 gamex86

 Timestamp is 53a62a22 (Sun Jun 22 02:58:10 2014)

 Preferred load address is 10000000

 Start         Length     Name                   Class
 0001:00000000 001d62ceH .text                   CODE
 0001:001d62d0 00006efdH .text$x                 CODE
 0001:001dd1d0 0000ef1fH .text$yc                CODE
 0001:001ec0f0 0000215fH .text$yd                CODE
 0002:00000000 00000120H .idata$5                DATA
 0002:00000120 00000004H .CRT$XCA                DATA
 0002:00000124 000013a4H .CRT$XCU                DATA
 0002:000014c8 00000004H .CRT$XCZ                DATA
 0002:000014cc 00000004H .CRT$XIA                DATA
 0002:000014d0 00000014H .CRT$XIC                DATA
 0002:000014e4 00000004H .CRT$XIZ                DATA
 0002:000014e8 00000004H .CRT$XPA                DATA
 0002:000014ec 00000004H .CRT$XPX                DATA
 0002:000014f0 00000004H .CRT$XPXA               DATA
 0002:000014f4 00000004H .CRT$XPZ                DATA
 0002:000014f8 00000004H .CRT$XTA                DATA
 0002:000014fc 00000004H .CRT$XTZ                DATA
 0002:00001500 00031378H .rdata                  DATA
 0002:00032878 0000004fH .rdata$debug            DATA
 0002:000328c8 0000461cH .rdata$r                DATA
 0002:00036ef0 0000080cH .rdata$sxdata           DATA
 0002:000376fc 00000004H .rtc$IAA                DATA
 0002:00037700 00000004H .rtc$IZZ                DATA
 0002:00037704 00000004H .rtc$TAA                DATA
 0002:00037708 00000004H .rtc$TZZ                DATA
 0002:00037710 0000a4ccH .xdata$x                DATA
 0002:00041bdc 00000028H .idata$2                DATA
 0002:00041c04 00000014H .idata$3                DATA
 0002:00041c18 00000120H .idata$4                DATA
 0002:00041d38 0000051cH .idata$6                DATA
 0002:00042260 00000049H .edata                  DATA
 0003:00000000 0000abf0H .data                   DATA
 0003:0000ac00 004a3dc4H .bss                    DATA

  Address         Publics by Value              Rva+Base       Lib:Object

 0000:00000000       __except_list              00000000     <absolute>
 0000:00000203       ___safe_se_handler_count   00000203     <absolute>
 0000:00000000       ___ImageBase               10000000     <linker-defined>
 0001:00000000       ??1SetTimeState@@QAE@XZ    10001000 f i Actor.obj
 0001:00000090       ?IsLoaded@idAF@@QBE_NXZ    10001090 f i Actor.obj
 0001:000000b0       ?Init@idAnimState@@QAEXPAVidActor@@PAVidAnimator@@H@Z 100010b0 f   Actor.obj
 0001:00000150       ?PlayAnim@idAnimState@@QAEXH@Z 10001150 f   Actor.obj
 0001:000001a0       ?CycleAnim@idAnimState@@QAEXH@Z 100011a0 f   Actor.obj
 0001:000001f0       ?BecomeIdle@idAnimState@@QAEXXZ 100011f0 f   Actor.obj
 0001:00000200       ?Disabled@idAnimState@@QBE_NXZ 10001200 f   Actor.obj
 0001:00000210       ?AnimDone@idAnimState@@QBE_NH@Z 10001210 f   Actor.obj
 0001:00000260       ?IsIdle@idAnimState@@QBE_NXZ 10001260 f   Actor.obj
 0001:00000280       ?GetAnimFlags@idAnimState@@QBE?AUanimFlags_t@@XZ 10001280 f   Actor.obj
 0001:000002e0       ?GetType@idActor@@UBEPAVidTypeInfo@@XZ 100012e0 f   Actor.obj
 0001:000002f0       ??0idVec3@@QAE@XZ          100012f0 f i Actor.obj
 0001:000002f0       ??0idVec2@@QAE@XZ          100012f0 f i BrittleFracture.obj
 0001:00000300       ?GetDefaultSurfaceType@idActor@@UBEHXZ 10001300 f   Actor.obj
 0001:00000310       ?ShutdownThreads@idActor@@QAEXXZ 10001310 f   Actor.obj
 0001:000003a0       ?GetScriptFunction@idActor@@QAEPBVfunction_t@@PBD@Z 100013a0 f   Actor.obj
 0001:000003f0       ?SetEyeHeight@idActor@@QAEXM@Z 100013f0 f   Actor.obj
 0001:00000400       ?EyeHeight@idActor@@QBEMXZ 10001400 f   Actor.obj
 0001:00000410       ?EyeOffset@idActor@@QBE?AVidVec3@@XZ 10001410 f   Actor.obj
 0001:00000460       ?GetEyePosition@idActor@@QBE?AVidVec3@@XZ 10001460 f   Actor.obj
 0001:000004f0       ?StopRagdoll@idActor@@QAEXXZ 100014f0 f   Actor.obj
 0001:00000510       ?UpdateAnimationControllers@idActor@@UAE_NXZ 10001510 f   Actor.obj
 0001:00000560       ?GetDeltaViewAngles@idActor@@QBEABVidAngles@@XZ 10001560 f   Actor.obj
 0001:00000570       ?ClearPain@idActor@@QAEXXZ 10001570 f   Actor.obj
 0001:00000580       ??_H@YGXPAXIHP6EPAX0@Z@Z   10001580 f i Actor.obj
 0001:000005b0       ?Event_EnableEyeFocus@idActor@@AAEXXZ 100015b0 f   Actor.obj
 0001:00000620       ?Event_EnableWalkIK@idActor@@AAEXXZ 10001620 f   Actor.obj
 0001:00000630       ?Event_DisableWalkIK@idActor@@AAEXXZ 10001630 f   Actor.obj
 0001:00000640       ?Event_EnableLegIK@idActor@@AAEXH@Z 10001640 f   Actor.obj
 0001:00000650       ?Event_DisableLegIK@idActor@@AAEXH@Z 10001650 f   Actor.obj
 0001:00000660       ?Event_PreventPain@idActor@@AAEXM@Z 10001660 f   Actor.obj
 0001:00000690       ?Event_DisablePain@idActor@@AAEXXZ 10001690 f   Actor.obj
 0001:000006a0       ?Event_EnablePain@idActor@@AAEXXZ 100016a0 f   Actor.obj
 0001:000006b0       ?Event_SetAnimPrefix@idActor@@AAEXPBD@Z 100016b0 f   Actor.obj
 0001:000006c0       ?Event_StopAnim@idActor@@AAEXHH@Z 100016c0 f   Actor.obj
 0001:000007b0       ?Event_SetBlendFrames@idActor@@AAEXHH@Z 100017b0 f   Actor.obj
 0001:00000810       ?Event_GetBlendFrames@idActor@@AAEXH@Z 10001810 f   Actor.obj
 0001:00000870       ??4idMat3@@QAEAAV0@ABV0@@Z 10001870 f i Actor.obj
 0001:000008b0       ?Event_AnimDone@idActor@@AAEXHH@Z 100018b0 f   Actor.obj
 0001:00000930       ?Event_SetNextState@idActor@@AAEXPBD@Z 10001930 f   Actor.obj
 0001:00000990       ?Event_SetState@idActor@@AAEXPBD@Z 10001990 f   Actor.obj
 0001:00000a10       ?Event_GetState@idActor@@AAEXXZ 10001a10 f   Actor.obj
 0001:00000a40       ?Event_SetDamageCap@idActor@@AAEXM@Z 10001a40 f   Actor.obj
 0001:00000a60       ?SetWaitState@idActor@@QAEXPBD@Z 10001a60 f   Actor.obj
 0001:00000a60       ?Event_SetWaitState@idActor@@AAEXPBD@Z 10001a60 f   Actor.obj
 0001:00000a70       ??1idToken@@QAE@XZ         10001a70 f i Actor.obj
 0001:00000a70       ??1mpChatLine_s@@QAE@XZ    10001a70 f i Game_local.obj
 0001:00000a70       ??1idStr@@QAE@XZ           10001a70 f i Actor.obj
 0001:00000a80       ??1idHashIndex@@QAE@XZ     10001a80 f i Actor.obj
 0001:00000a90       ??1idAnimState@@QAE@XZ     10001a90 f   Actor.obj
 0001:00000af0       ?SetState@idAnimState@@QAEXPBDH@Z 10001af0 f   Actor.obj
 0001:00000ba0       ?CopyJointsFromBodyToHead@idActor@@IAEXXZ 10001ba0 f   Actor.obj
 0001:00000f00       ?Save@idActor@@QBEXPAVidSaveGame@@@Z 10001f00 f   Actor.obj
 0001:00001560       ?Hide@idActor@@UAEXXZ      10002560 f   Actor.obj
 0001:00001610       ?Show@idActor@@UAEXXZ      10002610 f   Actor.obj
 0001:000016f0       ?ProjectOverlay@idActor@@UAEXABVidVec3@@0MPBD@Z 100026f0 f   Actor.obj
 0001:000017a0       ?SetupBody@idActor@@QAEXXZ 100027a0 f   Actor.obj
 0001:00001bb0       ?CheckBlink@idActor@@QAEXXZ 10002bb0 f   Actor.obj
 0001:00001ca0       ?GetPhysicsToVisualTransform@idActor@@UAE_NAAVidVec3@@AAVidMat3@@@Z 10002ca0 f   Actor.obj
 0001:00001d40       ?ConstructScriptObject@idActor@@UAEPAVidThread@@XZ 10002d40 f   Actor.obj
 0001:00001e70       ?SetState@idActor@@QAEXPBVfunction_t@@@Z 10002e70 f   Actor.obj
 0001:00001ef0       ?SetState@idActor@@QAEXPBD@Z 10002ef0 f   Actor.obj
 0001:00001f40       ?UpdateScript@idActor@@QAEXXZ 10002f40 f   Actor.obj
 0001:00002040       ?GetViewPos@idActor@@UBEXAAVidVec3@@AAVidMat3@@@Z 10003040 f   Actor.obj
 0001:000020c0       ?CheckFOV@idActor@@QBE_NABVidVec3@@@Z 100030c0 f   Actor.obj
 0001:00002290       ?GetAIAimTargets@idActor@@UAEXABVidVec3@@AAV2@1@Z 10003290 f   Actor.obj
 0001:000023d0       ?GetRenderView@idActor@@UAEPAUrenderView_s@@XZ 100033d0 f   Actor.obj
 0001:00002460       ?SetCombatModel@idActor@@QAEXXZ 10003460 f   Actor.obj
 0001:00002530       ?LinkCombat@idActor@@UAEXXZ 10003530 f   Actor.obj
 0001:000025b0       ?UnlinkCombat@idActor@@UAEXXZ 100035b0 f   Actor.obj
 0001:00002600       ?RemoveAttachments@idActor@@IAEXXZ 10003600 f   Actor.obj
 0001:00002680       ?Teleport@idActor@@UAEXABVidVec3@@ABVidAngles@@PAVidEntity@@@Z 10003680 f   Actor.obj
 0001:00002760       ?SetDeltaViewAngles@idActor@@QAEXABVidAngles@@@Z 10003760 f   Actor.obj
 0001:00002790       ?HasEnemies@idActor@@QBE_NXZ 10003790 f   Actor.obj
 0001:000027e0       ?ClosestEnemyToPoint@idActor@@QAEPAV1@ABVidVec3@@@Z 100037e0 f   Actor.obj
 0001:000028d0       ?EnemyWithMostHealth@idActor@@QAEPAV1@XZ 100038d0 f   Actor.obj
 0001:00002930       ?GetAASLocation@idActor@@UBEXPAVidAAS@@AAVidVec3@@AAH@Z 10003930 f   Actor.obj
 0001:00002a00       ?SetAnimState@idActor@@QAEXHPBDH@Z 10003a00 f   Actor.obj
 0001:00002b10       ?WaitState@idActor@@QBEPBDXZ 10003b10 f   Actor.obj
 0001:00002b30       ?UpdateAnimState@idActor@@QAEXXZ 10003b30 f   Actor.obj
 0001:00002c10       ?GetAnim@idActor@@QAEHHPBD@Z 10003c10 f   Actor.obj
 0001:00002cc0       ?SyncAnimChannels@idActor@@AAEXHHH@Z 10003cc0 f   Actor.obj
 0001:00002f10       ?Gib@idActor@@MAEXABVidVec3@@PBD@Z 10003f10 f   Actor.obj
 0001:00002f90       ?SpawnGibs@idActor@@UAEXABVidVec3@@PBD@Z 10003f90 f   Actor.obj
 0001:00002fb0       ?GetDamageForLocation@idActor@@QAEHHH@Z 10003fb0 f   Actor.obj
 0001:00003000       ?GetDamageGroup@idActor@@QAEPBDH@Z 10004000 f   Actor.obj
 0001:00003030       ?PlayFootStepSound@idActor@@AAEXXZ 10004030 f   Actor.obj
 0001:000030e0       ?Event_DisableEyeFocus@idActor@@AAEXXZ 100040e0 f   Actor.obj
 0001:00003140       ?Event_Footstep@idActor@@AAEXXZ 10004140 f   Actor.obj
 0001:00003150       ?Event_GetPainAnim@idActor@@AAEXXZ 10004150 f   Actor.obj
 0001:00003180       ?Event_PlayAnim@idActor@@AAEXHPBD@Z 10004180 f   Actor.obj
 0001:00003480       ?Event_PlayCycle@idActor@@AAEXHPBD@Z 10004480 f   Actor.obj
 0001:00003760       ?Event_IdleAnim@idActor@@AAEXHPBD@Z 10004760 f   Actor.obj
 0001:00003ba0       ?Event_SetSyncedAnimWeight@idActor@@AAEXHHM@Z 10004ba0 f   Actor.obj
 0001:00003d60       ?Event_OverrideAnim@idActor@@AAEXH@Z 10004d60 f   Actor.obj
 0001:00003e90       ?Event_EnableAnim@idActor@@AAEXHH@Z 10004e90 f   Actor.obj
 0001:00003f50       ?Event_AnimState@idActor@@AAEXHPBDH@Z 10004f50 f   Actor.obj
 0001:00003f60       ?Event_GetAnimState@idActor@@AAEXH@Z 10004f60 f   Actor.obj
 0001:00003fc0       ?Event_InAnimState@idActor@@AAEXHPBD@Z 10004fc0 f   Actor.obj
 0001:00004040       ?Event_FinishAction@idActor@@AAEXPBD@Z 10005040 f   Actor.obj
 0001:00004070       ?Event_HasAnim@idActor@@AAEXHPBD@Z 10005070 f   Actor.obj
 0001:000040b0       ?Event_CheckAnim@idActor@@AAEXHPBD@Z 100050b0 f   Actor.obj
 0001:00004110       ?Event_ChooseAnim@idActor@@AAEXHPBD@Z 10005110 f   Actor.obj
 0001:000041b0       ?Event_AnimLength@idActor@@AAEXHPBD@Z 100051b0 f   Actor.obj
 0001:00004290       ?Event_AnimDistance@idActor@@AAEXHPBD@Z 10005290 f   Actor.obj
 0001:00004470       ?Event_HasEnemies@idActor@@AAEXXZ 10005470 f   Actor.obj
 0001:00004480       ?Event_NextEnemy@idActor@@AAEXPAVidEntity@@@Z 10005480 f   Actor.obj
 0001:00004550       ?Event_ClosestEnemyToPoint@idActor@@AAEXABVidVec3@@@Z 10005550 f   Actor.obj
 0001:00004570       ?Event_StopSound@idActor@@AAEXHH@Z 10005570 f   Actor.obj
 0001:000045d0       ?Event_GetHead@idActor@@AAEXXZ 100055d0 f   Actor.obj
 0001:00004610       ?Event_SetDamageGroupScale@idActor@@AAEXPBDM@Z 10005610 f   Actor.obj
 0001:00004670       ?Event_SetDamageGroupScaleAll@idActor@@AAEXM@Z 10005670 f   Actor.obj
 0001:000046a0       ?Event_GetDamageGroupScale@idActor@@AAEXPBD@Z 100056a0 f   Actor.obj
 0001:00004720       ?Event_GetWaitState@idActor@@AAEXXZ 10005720 f   Actor.obj
 0001:00004750       ?FinishSetup@idActor@@AAEXXZ 10005750 f   Actor.obj
 0001:000047b0       ?LoadAF@idActor@@UAE_NXZ   100057b0 f   Actor.obj
 0001:000048c0       ?GetPhysicsToSoundTransform@idActor@@UAE_NAAVidVec3@@AAVidMat3@@@Z 100058c0 f   Actor.obj
 0001:00004a30       ?CanSee@idActor@@QBE_NPAVidEntity@@_N@Z 10005a30 f   Actor.obj
 0001:00004b40       ?StartRagdoll@idActor@@QAE_NXZ 10005b40 f   Actor.obj
 0001:00004e10       ?Damage@idActor@@UAEXPAVidEntity@@0ABVidVec3@@PBDMH@Z 10005e10 f   Actor.obj
 0001:00005350       ?Pain@idActor@@UAE_NPAVidEntity@@0HABVidVec3@@H@Z 10006350 f   Actor.obj
 0001:00005670       ??0idDict@@QAE@XZ          10006670 f i Actor.obj
 0001:00005780       ??1idDict@@QAE@XZ          10006780 f i Actor.obj
 0001:00005800       ??1?$idList@VidStr@@@@QAE@XZ 10006800 f i Actor.obj
 0001:00005840       ??1idActor@@UAE@XZ         10006840 f   Actor.obj
 0001:00005bc0       ?SetupDamageGroups@idActor@@QAEXXZ 10006bc0 f   Actor.obj
 0001:000060b0       ??0idActor@@QAE@XZ         100070b0 f   Actor.obj
 0001:000064f0       ??_EidActor@@UAEPAXI@Z     100074f0 f i Actor.obj
 0001:000064f0       ??_GidActor@@UAEPAXI@Z     100074f0 f i Actor.obj
 0001:00006510       ?SetupHead@idActor@@AAEXXZ 10007510 f   Actor.obj
 0001:00006c90       ?Restart@idActor@@UAEXXZ   10007c90 f   Actor.obj
 0001:00006ca0       ?Restore@idActor@@QAEXPAVidRestoreGame@@@Z 10007ca0 f   Actor.obj
 0001:00007870       ?Attach@idActor@@QAEXPAVidEntity@@@Z 10008870 f   Actor.obj
 0001:00007e00       ?CreateInstance@idActor@@SAPAVidClass@@XZ 10008e00 f   Actor.obj
 0001:00007ea0       ?Spawn@idActor@@QAEXXZ     10008ea0 f   Actor.obj
 0001:000088c0       ?Start@idAF@@QAEXXZ        100098c0 f   AF.obj
 0001:00008930       ?Stop@idAF@@QAEXXZ         10009930 f   AF.obj
 0001:00008950       ?Rest@idAF@@QAEXXZ         10009950 f   AF.obj
 0001:00008960       ?SetConstraintPosition@idAF@@QAEXPBDABVidVec3@@@Z 10009960 f   AF.obj
 0001:00008ae0       ?SetWorldAxis@idAFBody@@QAEXABVidMat3@@@Z 10009ae0 f i AF.obj
 0001:00008b30       ?Save@idAF@@QBEXPAVidSaveGame@@@Z 10009b30 f   AF.obj
 0001:00008bd0       ?SetupPose@idAF@@QAEXPAVidEntity@@H@Z 10009bd0 f   AF.obj
 0001:00009060       ?ChangePose@idAF@@QAEXPAVidEntity@@H@Z 1000a060 f   AF.obj
 0001:000095c0       ?EntitiesTouchingAF@idAF@@QBEHQAUafTouch_s@@@Z 1000a5c0 f   AF.obj
 0001:000097b0       ?BodyForClipModelId@idAF@@QBEHH@Z 1000a7b0 f   AF.obj
 0001:000097e0       ?GetPhysicsToVisualTransform@idAF@@QBEXAAVidVec3@@AAVidMat3@@@Z 1000a7e0 f   AF.obj
 0001:000098c0       ?GetImpactInfo@idAF@@QAEXPAVidEntity@@HABVidVec3@@PAUimpactInfo_s@@@Z 1000a8c0 f   AF.obj
 0001:00009920       ?ApplyImpulse@idAF@@QAEXPAVidEntity@@HABVidVec3@@1@Z 1000a920 f   AF.obj
 0001:00009980       ?AddForce@idAF@@QAEXPAVidEntity@@HABVidVec3@@1@Z 1000a980 f   AF.obj
 0001:000099e0       ?LoadConstraint@idAF@@IAE_NPBVidDeclAF_Constraint@@@Z 1000a9e0 f   AF.obj
 0001:0000a4a0       ??1?$idList@PAVidVarDef@@@@QAE@XZ 1000b4a0 f i Script_Program.obj
 0001:0000a4a0       ??1?$idList@H@@QAE@XZ      1000b4a0 f i AF.obj
 0001:0000a4a0       ??1?$idList@UframeLookup_t@@@@QAE@XZ 1000b4a0 f i Anim_Blend.obj
 0001:0000a4a0       ??1?$idList@UidFXLocalAction@@@@QAE@XZ 1000b4a0 f i Fx.obj
 0001:0000a4a0       ??1?$idList@VidAttachInfo@@@@QAE@XZ 1000b4a0 f i Actor.obj
 0001:0000a4a0       ??1?$idList@UcontactInfo_t@@@@QAE@XZ 1000b4a0 f i Physics_Base.obj
 0001:0000a4a0       ??1?$idList@VidDrawVert@@@@QAE@XZ 1000b4a0 f i idLib:MapFile.obj
 0001:0000a4a0       ??1?$idList@W4jointHandle_t@@@@QAE@XZ 1000b4a0 f i Actor.obj
 0001:0000a4a0       ??1?$idList@UaasLocation_t@@@@QAE@XZ 1000b4a0 f i Player.obj
 0001:0000a4a0       ??1?$idList@UcameraFrame_t@@@@QAE@XZ 1000b4a0 f i Camera.obj
 0001:0000a4a0       ??1?$idList@PAVidAAS@@@@QAE@XZ 1000b4a0 f i Game_local.obj
 0001:0000a4a0       ??1?$idList@PAVidAnim@@@@QAE@XZ 1000b4a0 f i Anim_Blend.obj
 0001:0000a4a0       ??1?$idList@PAVidMD5Anim@@@@QAE@XZ 1000b4a0 f i Anim.obj
 0001:0000a4a0       ??1?$idList@VidVec3@@@@QAE@XZ 1000b4a0 f i Entity.obj
 0001:0000a4a0       ??1?$idList@UAFCollision_s@@@@QAE@XZ 1000b4a0 f i Physics_AF.obj
 0001:0000a4a0       ??1?$idList@VidJointQuat@@@@QAE@XZ 1000b4a0 f i Anim.obj
 0001:0000a4a0       ??1?$idList@VidBounds@@@@QAE@XZ 1000b4a0 f i Anim.obj
 0001:0000a4a0       ??1?$idList@PAVidAFConstraint@@@@QAE@XZ 1000b4a0 f i Physics_AF.obj
 0001:0000a4a0       ??1?$idList@PAVidMapEntity@@@@QAE@XZ 1000b4a0 f i Game_local.obj
 0001:0000a4a0       ??1?$idList@_N@@QAE@XZ     1000b4a0 f i BrittleFracture.obj
 0001:0000a4a0       ??1?$idList@PAVidEntity@@@@QAE@XZ 1000b4a0 f i AFEntity.obj
 0001:0000a4a0       ??1?$idList@PAVidFixedWinding@@@@QAE@XZ 1000b4a0 f i BrittleFracture.obj
 0001:0000a4a0       ??1?$idList@PAVidVarDefName@@@@QAE@XZ 1000b4a0 f i Script_Program.obj
 0001:0000a4a0       ??1?$idList@UjointConversion_s@@@@QAE@XZ 1000b4a0 f i AF.obj
 0001:0000a4a0       ??1?$idList@UsurfaceEdge_s@@@@QAE@XZ 1000b4a0 f i idLib:MapFile.obj
 0001:0000a4a0       ??1?$idList@PAVidPoolStr@@@@QAE@XZ 1000b4a0 f i idLib:Dict.obj
 0001:0000a4a0       ??1?$idList@PAVidThread@@@@QAE@XZ 1000b4a0 f i Game_local.obj
 0001:0000a4a0       ??1?$idList@V?$idEntityPtr@VidEntity@@@@@@QAE@XZ 1000b4a0 f i Entity.obj
 0001:0000a4a0       ??1?$idList@UbeamTarget_t@@@@QAE@XZ 1000b4a0 f i Projectile.obj
 0001:0000a4a0       ??1?$idList@PAVidMapBrushSide@@@@QAE@XZ 1000b4a0 f i idLib:MapFile.obj
 0001:0000a4a0       ??1?$idList@PAVidClipModel@@@@QAE@XZ 1000b4a0 f i Physics_StaticMulti.obj
 0001:0000a4a0       ??1?$idList@UjointAnimInfo_t@@@@QAE@XZ 1000b4a0 f i Anim.obj
 0001:0000a4a0       ??1?$idList@PAUshard_s@@@@QAE@XZ 1000b4a0 f i BrittleFracture.obj
 0001:0000a4a0       ??1?$idList@PAVidAFTree@@@@QAE@XZ 1000b4a0 f i Physics_AF.obj
 0001:0000a4a0       ??1?$idList@PAVidTypeDef@@@@QAE@XZ 1000b4a0 f i Script_Compiler.obj
 0001:0000a4a0       ??1?$idList@UframeCommand_t@@@@QAE@XZ 1000b4a0 f i Anim_Blend.obj
 0001:0000a4a0       ??1?$idList@UjointInfo_t@@@@QAE@XZ 1000b4a0 f i Anim_Blend.obj
 0001:0000a4a0       ??1?$idList@PAVidDict@@@@QAE@XZ 1000b4a0 f i Player.obj
 0001:0000a4a0       ??1?$idList@UcopyJoints_t@@@@QAE@XZ 1000b4a0 f i Actor.obj
 0001:0000a4a0       ??1?$idList@UparticleEmitter_s@@@@QAE@XZ 1000b4a0 f i AI.obj
 0001:0000a4a0       ??1?$idList@PAVidRoutingObstacle@@@@QAE@XZ 1000b4a0 f i AAS.obj
 0001:0000a4a0       ??1?$idList@PAVidMapPrimitive@@@@QAE@XZ 1000b4a0 f i Game_local.obj
 0001:0000a4a0       ??1?$idList@M@@QAE@XZ      1000b4a0 f i Actor.obj
 0001:0000a4a0       ??1?$idList@UstaticPState_s@@@@QAE@XZ 1000b4a0 f i Physics_StaticMulti.obj
 0001:0000a4a0       ??1?$idList@PBVidClass@@@@QAE@XZ 1000b4a0 f i SaveGame.obj
 0001:0000a4a0       ??1?$idList@VidAngles@@@@QAE@XZ 1000b4a0 f i AI.obj
 0001:0000a4a0       ??1?$idList@PAVidRenderModel@@@@QAE@XZ 1000b4a0 f i AFEntity.obj
 0001:0000a4a0       ??1?$idList@VidAFPoseJointMod@@@@QAE@XZ 1000b4a0 f i Anim_Blend.obj
 0001:0000a4a0       ??1?$idList@PAVidAFBody@@@@QAE@XZ 1000b4a0 f i Physics_AF.obj
 0001:0000a4a0       ??1?$idList@PAVidAFConstraint_Contact@@@@QAE@XZ 1000b4a0 f i Physics_AF.obj
 0001:0000a4a0       ??1?$idList@PBVfunction_t@@@@QAE@XZ 1000b4a0 f i Script_Compiler.obj
 0001:0000a4a0       ??1?$idList@VidKeyValue@@@@QAE@XZ 1000b4a0 f i Actor.obj
 0001:0000a4a0       ??1?$idList@PAUjointMod_t@@@@QAE@XZ 1000b4a0 f i Anim_Blend.obj
 0001:0000a4a0       ??1?$idList@Usignal_t@@@@QAE@XZ 1000b4a0 f i Entity.obj
 0001:0000a4d0       ??H@YA?AVidStr@@PBDABV0@@Z 1000b4d0 f i AF.obj
 0001:0000a5b0       ??0idAF@@QAE@XZ            1000b5b0 f   AF.obj
 0001:0000a6f0       ??1idAF@@QAE@XZ            1000b6f0 f   AF.obj
 0001:0000a7a0       ?GetBounds@idAF@@QBE?AVidBounds@@XZ 1000b7a0 f   AF.obj
 0001:0000add0       ?TestSolid@idAF@@IBE_NXZ   1000bdd0 f   AF.obj
 0001:0000b030       ?SaveState@idAF@@QBEXAAVidDict@@@Z 1000c030 f   AF.obj
 0001:0000b260       ?LoadState@idAF@@QAEXABVidDict@@@Z 1000c260 f   AF.obj
 0001:0000b430       ?AddBindConstraints@idAF@@QAEXXZ 1000c430 f   AF.obj
 0001:0000bdd0       ?RemoveBindConstraints@idAF@@QAEXXZ 1000cdd0 f   AF.obj
 0001:0000bf00       ?UpdateAnimation@idAF@@QAE_NXZ 1000cf00 f   AF.obj
 0001:0000c930       ?StartFromCurrentPose@idAF@@QAEXH@Z 1000d930 f   AF.obj
 0001:0000c9e0       ?AddBody@idAF@@IAEXPAVidAFBody@@PBVidJointMat@@PBDW4AFJointModType_t@@@Z 1000d9e0 f   AF.obj
 0001:0000ce30       ?SetBase@idAF@@IAEXPAVidAFBody@@PBVidJointMat@@@Z 1000de30 f   AF.obj
 0001:0000cef0       ?LoadBody@idAF@@IAE_NPBVidDeclAF_Body@@PBVidJointMat@@@Z 1000def0 f   AF.obj
 0001:0000d8e0       ?Load@idAF@@QAE_NPAVidEntity@@PBD@Z 1000e8e0 f   AF.obj
 0001:0000e0d0       ?Restore@idAF@@QAEXPAVidRestoreGame@@@Z 1000f0d0 f   AF.obj
 0001:0000e1f0       ?GetType@idMultiModelAF@@UBEPAVidTypeInfo@@XZ 1000f1f0 f   AFEntity.obj
 0001:0000e200       ?Spawn@idMultiModelAF@@QAEXXZ 1000f200 f   AFEntity.obj
 0001:0000e220       ?GetType@idChain@@UBEPAVidTypeInfo@@XZ 1000f220 f   AFEntity.obj
 0001:0000e230       ?GetType@idAFAttachment@@UBEPAVidTypeInfo@@XZ 1000f230 f   AFEntity.obj
 0001:0000e240       ?Spawn@idAFAttachment@@QAEXXZ 1000f240 f   AFEntity.obj
 0001:0000e260       ?ClearBody@idAFAttachment@@QAEXXZ 1000f260 f   AFEntity.obj
 0001:0000e280       ?GetBody@idAFAttachment@@QBEPAVidEntity@@XZ 1000f280 f   AFEntity.obj
 0001:0000e290       ?Save@idAFAttachment@@QBEXPAVidSaveGame@@@Z 1000f290 f   AFEntity.obj
 0001:0000e2d0       ?Hide@idAFAttachment@@UAEXXZ 1000f2d0 f   AFEntity.obj
 0001:0000e2f0       ?Show@idAFAttachment@@UAEXXZ 1000f2f0 f   AFEntity.obj
 0001:0000e310       ?Damage@idAFAttachment@@UAEXPAVidEntity@@0ABVidVec3@@PBDMH@Z 1000f310 f   AFEntity.obj
 0001:0000e360       ?AddDamageEffect@idAFAttachment@@UAEXABUtrace_s@@ABVidVec3@@PBD@Z 1000f360 f   AFEntity.obj
 0001:0000e3c0       ?GetImpactInfo@idAFAttachment@@UAEXPAVidEntity@@HABVidVec3@@PAUimpactInfo_s@@@Z 1000f3c0 f   AFEntity.obj
 0001:0000e400       ?ApplyImpulse@idAFAttachment@@UAEXPAVidEntity@@HABVidVec3@@1@Z 1000f400 f   AFEntity.obj
 0001:0000e440       ?AddForce@idAFAttachment@@UAEXPAVidEntity@@HABVidVec3@@1@Z 1000f440 f   AFEntity.obj
 0001:0000e480       ?PlayIdleAnim@idAFAttachment@@QAEXH@Z 1000f480 f   AFEntity.obj
 0001:0000e4d0       ?Think@idAFAttachment@@UAEXXZ 1000f4d0 f   AFEntity.obj
 0001:0000e4f0       ?SetCombatModel@idAFAttachment@@QAEXXZ 1000f4f0 f   AFEntity.obj
 0001:0000e580       ?LinkCombat@idAFAttachment@@UAEXXZ 1000f580 f   AFEntity.obj
 0001:0000e5c0       ?UnlinkCombat@idAFAttachment@@UAEXXZ 1000f5c0 f   AFEntity.obj
 0001:0000e5d0       ?GetType@idAFEntity_Base@@UBEPAVidTypeInfo@@XZ 1000f5d0 f   AFEntity.obj
 0001:0000e5e0       ?Save@idAFEntity_Base@@QBEXPAVidSaveGame@@@Z 1000f5e0 f   AFEntity.obj
 0001:0000e640       ?Restore@idAFEntity_Base@@QAEXPAVidRestoreGame@@@Z 1000f640 f   AFEntity.obj
 0001:0000e6b0       ?BodyForClipModelId@idAFEntity_Base@@QBEHH@Z 1000f6b0 f   AFEntity.obj
 0001:0000e6c0       ?AddBindConstraints@idAFEntity_Base@@QAEXXZ 1000f6c0 f   AFEntity.obj
 0001:0000e6d0       ?RemoveBindConstraints@idAFEntity_Base@@QAEXXZ 1000f6d0 f   AFEntity.obj
 0001:0000e6e0       ?GetImpactInfo@idAFEntity_Base@@UAEXPAVidEntity@@HABVidVec3@@PAUimpactInfo_s@@@Z 1000f6e0 f   AFEntity.obj
 0001:0000e700       ?ApplyImpulse@idAFEntity_Base@@UAEXPAVidEntity@@HABVidVec3@@1@Z 1000f700 f   AFEntity.obj
 0001:0000e760       ?AddForce@idAFEntity_Base@@UAEXPAVidEntity@@HABVidVec3@@1@Z 1000f760 f   AFEntity.obj
 0001:0000e7c0       ?GetPhysicsToVisualTransform@idAFEntity_Base@@UAE_NAAVidVec3@@AAVidMat3@@@Z 1000f7c0 f   AFEntity.obj
 0001:0000e7f0       ?UpdateAnimationControllers@idAFEntity_Base@@UAE_NXZ 1000f7f0 f   AFEntity.obj
 0001:0000e810       ?SetCombatModel@idAFEntity_Base@@QAEXXZ 1000f810 f   AFEntity.obj
 0001:0000e8a0       ?SetCombatContents@idAFEntity_Base@@QAEX_N@Z 1000f8a0 f   AFEntity.obj
 0001:0000e8f0       ?LinkCombat@idAFEntity_Base@@UAEXXZ 1000f8f0 f   AFEntity.obj
 0001:0000e930       ?UnlinkCombat@idAFEntity_Base@@UAEXXZ 1000f930 f   AFEntity.obj
 0001:0000e940       ?FreeModelDef@idAFEntity_Base@@UAEXXZ 1000f940 f   AFEntity.obj
 0001:0000e960       ?ShowEditingDialog@idAFEntity_Base@@UAEXXZ 1000f960 f   AFEntity.obj
 0001:0000e980       ?Event_SetConstraintPosition@idAFEntity_Base@@IAEXPBDABVidVec3@@@Z 1000f980 f   AFEntity.obj
 0001:0000e990       ?GetType@idAFEntity_Gibbable@@UBEPAVidTypeInfo@@XZ 1000f990 f   AFEntity.obj
 0001:0000e9a0       ??1idAFEntity_Gibbable@@UAE@XZ 1000f9a0 f   AFEntity.obj
 0001:0000ea60       ?Save@idAFEntity_Gibbable@@QBEXPAVidSaveGame@@@Z 1000fa60 f   AFEntity.obj
 0001:0000eaa0       ?SetThrown@idAFEntity_Gibbable@@QAEX_N@Z 1000faa0 f   AFEntity.obj
 0001:0000eb10       ?Event_Gib@idAFEntity_Gibbable@@IAEXPBD@Z 1000fb10 f   AFEntity.obj
 0001:0000eb10       ?Event_Gib@idAFEntity_WithAttachedHead@@QAEXPBD@Z 1000fb10 f   AFEntity.obj
 0001:0000eb40       ?GetType@idAFEntity_Generic@@UBEPAVidTypeInfo@@XZ 1000fb40 f   AFEntity.obj
 0001:0000eb50       ?Save@idAFEntity_Generic@@QBEXPAVidSaveGame@@@Z 1000fb50 f   AFEntity.obj
 0001:0000eb70       ?Restore@idAFEntity_Generic@@QAEXPAVidRestoreGame@@@Z 1000fb70 f   AFEntity.obj
 0001:0000eb90       ?Think@idAFEntity_Generic@@UAEXXZ 1000fb90 f   AFEntity.obj
 0001:0000ebe0       ?GetType@idAFEntity_WithAttachedHead@@UBEPAVidTypeInfo@@XZ 1000fbe0 f   AFEntity.obj
 0001:0000ebf0       ?Think@idAFEntity_Harvest@@UAEXXZ 1000fbf0 f   AFEntity.obj
 0001:0000ebf0       ?Think@idAFEntity_WithAttachedHead@@UAEXXZ 1000fbf0 f   AFEntity.obj
 0001:0000ebf0       ?Think@idAFEntity_Base@@UAEXXZ 1000fbf0 f   AFEntity.obj
 0001:0000ec20       ?GetType@idAFEntity_Vehicle@@UBEPAVidTypeInfo@@XZ 1000fc20 f   AFEntity.obj
 0001:0000ec30       ??1idAFEntity_Base@@UAE@XZ 1000fc30 f i AFEntity.obj
 0001:0000ec30       ??1idAFEntity_Vehicle@@UAE@XZ 1000fc30 f i AFEntity.obj
 0001:0000ecb0       ?GetSteerAngle@idAFEntity_Vehicle@@IAEMXZ 1000fcb0 f   AFEntity.obj
 0001:0000ed40       ?GetType@idAFEntity_VehicleSimple@@UBEPAVidTypeInfo@@XZ 1000fd40 f   AFEntity.obj
 0001:0000ed50       ??1idAFEntity_VehicleSimple@@UAE@XZ 1000fd50 f   AFEntity.obj
 0001:0000ee10       ?GetType@idAFEntity_VehicleFourWheels@@UBEPAVidTypeInfo@@XZ 1000fe10 f   AFEntity.obj
 0001:0000ee20       ?GetType@idAFEntity_VehicleSixWheels@@UBEPAVidTypeInfo@@XZ 1000fe20 f   AFEntity.obj
 0001:0000ee30       ?GetType@idAFEntity_VehicleAutomated@@UBEPAVidTypeInfo@@XZ 1000fe30 f   AFEntity.obj
 0001:0000ee40       ?Spawn@idAFEntity_VehicleAutomated@@QAEXXZ 1000fe40 f   AFEntity.obj
 0001:0000eef0       ?Event_SetVelocity@idAFEntity_VehicleAutomated@@AAEXM@Z 1000fef0 f   AFEntity.obj
 0001:0000ef00       ?Event_SetTorque@idAFEntity_VehicleAutomated@@AAEXM@Z 1000ff00 f   AFEntity.obj
 0001:0000ef10       ?Event_SetSteeringSpeed@idAFEntity_VehicleAutomated@@AAEXM@Z 1000ff10 f   AFEntity.obj
 0001:0000ef20       ?Event_SetWayPoint@idAFEntity_VehicleAutomated@@AAEXPAVidEntity@@@Z 1000ff20 f   AFEntity.obj
 0001:0000ef30       ?GetType@idAFEntity_SteamPipe@@UBEPAVidTypeInfo@@XZ 1000ff30 f   AFEntity.obj
 0001:0000ef40       ??1idAFEntity_SteamPipe@@UAE@XZ 1000ff40 f   AFEntity.obj
 0001:0000f000       ?Think@idAFEntity_SteamPipe@@UAEXXZ 10010000 f   AFEntity.obj
 0001:0000f1e0       ?GetType@idAFEntity_ClawFourFingers@@UBEPAVidTypeInfo@@XZ 100101e0 f   AFEntity.obj
 0001:0000f1f0       ?Save@idAFEntity_ClawFourFingers@@QBEXPAVidSaveGame@@@Z 100101f0 f   AFEntity.obj
 0001:0000f220       ?Restore@idAFEntity_ClawFourFingers@@QAEXPAVidRestoreGame@@@Z 10010220 f   AFEntity.obj
 0001:0000f300       ?Event_SetFingerAngle@idAFEntity_ClawFourFingers@@AAEXM@Z 10010300 f   AFEntity.obj
 0001:0000f350       ?Event_StopFingers@idAFEntity_ClawFourFingers@@AAEXXZ 10010350 f   AFEntity.obj
 0001:0000f380       ?GetType@idHarvestable@@UBEPAVidTypeInfo@@XZ 10010380 f   AFEntity.obj
 0001:0000f390       ?GetType@idAFEntity_Harvest@@UBEPAVidTypeInfo@@XZ 10010390 f   AFEntity.obj
 0001:0000f3a0       ?Spawn@idAFEntity_Harvest@@QAEXXZ 100103a0 f   AFEntity.obj
 0001:0000f3b0       ??4idBounds@@QAEAAV0@ABV0@@Z 100103b0 f i AFEntity.obj
 0001:0000f3e0       ?Present@idMultiModelAF@@UAEXXZ 100103e0 f   AFEntity.obj
 0001:0000f510       ?CreateInstance@idAFAttachment@@SAPAVidClass@@XZ 10010510 f   AFEntity.obj
 0001:0000f5d0       ?SetBody@idAFAttachment@@QAEXPAVidEntity@@PBDW4jointHandle_t@@@Z 100105d0 f   AFEntity.obj
 0001:0000f650       ?Restore@idAFAttachment@@QAEXPAVidRestoreGame@@@Z 10010650 f   AFEntity.obj
 0001:0000f6a0       ?Spawn@idAFEntity_Base@@QAEXXZ 100106a0 f   AFEntity.obj
 0001:0000f750       ?SaveState@idAFEntity_Base@@QBEXAAVidDict@@@Z 10010750 f   AFEntity.obj
 0001:0000f820       ?Collide@idAFEntity_Base@@UAE_NABUtrace_s@@ABVidVec3@@@Z 10010820 f   AFEntity.obj
 0001:0000fa00       ??_EidAFEntity_Gibbable@@UAEPAXI@Z 10010a00 f i AFEntity.obj
 0001:0000fa00       ??_GidAFEntity_Gibbable@@UAEPAXI@Z 10010a00 f i AFEntity.obj
 0001:0000fa20       ?InitSkeletonModel@idAFEntity_Gibbable@@IAEXXZ 10010a20 f   AFEntity.obj
 0001:0000fb00       ??4renderEntity_s@@QAEAAU0@ABU0@@Z 10010b00 f i AFEntity.obj
 0001:0000fcc0       ?Damage@idAFEntity_Gibbable@@UAEXPAVidEntity@@0ABVidVec3@@PBDMH@Z 10010cc0 f   AFEntity.obj
 0001:0000fd40       ?Collide@idAFEntity_Gibbable@@UAE_NABUtrace_s@@ABVidVec3@@@Z 10010d40 f   AFEntity.obj
 0001:0000fec0       ?Gib@idAFEntity_Gibbable@@MAEXABVidVec3@@PBD@Z 10010ec0 f   AFEntity.obj
 0001:00010030       ??_GidAFEntity_Generic@@UAEPAXI@Z 10011030 f i AFEntity.obj
 0001:00010030       ??_EidAFEntity_Generic@@UAEPAXI@Z 10011030 f i AFEntity.obj
 0001:00010060       ?Spawn@idAFEntity_Generic@@QAEXXZ 10011060 f   AFEntity.obj
 0001:000100f0       ?Event_Activate@idAFEntity_Generic@@AAEXPAVidEntity@@@Z 100110f0 f   AFEntity.obj
 0001:000100f0       ?Event_Activate@idAFEntity_WithAttachedHead@@QAEXPAVidEntity@@@Z 100110f0 f   AFEntity.obj
 0001:00010250       ??1idAFEntity_WithAttachedHead@@UAE@XZ 10011250 f   AFEntity.obj
 0001:00010330       ?Save@idAFEntity_WithAttachedHead@@QBEXPAVidSaveGame@@@Z 10011330 f   AFEntity.obj
 0001:00010350       ?Restore@idAFEntity_WithAttachedHead@@QAEXPAVidRestoreGame@@@Z 10011350 f   AFEntity.obj
 0001:00010370       ?LinkCombat@idAFEntity_WithAttachedHead@@UAEXXZ 10011370 f   AFEntity.obj
 0001:000103e0       ?UnlinkCombat@idAFEntity_WithAttachedHead@@UAEXXZ 100113e0 f   AFEntity.obj
 0001:00010430       ?Hide@idAFEntity_WithAttachedHead@@UAEXXZ 10011430 f   AFEntity.obj
 0001:00010490       ?Show@idAFEntity_WithAttachedHead@@UAEXXZ 10011490 f   AFEntity.obj
 0001:000104f0       ?ProjectOverlay@idAFEntity_WithAttachedHead@@UAEXABVidVec3@@0MPBD@Z 100114f0 f   AFEntity.obj
 0001:00010560       ?Gib@idAFEntity_WithAttachedHead@@MAEXABVidVec3@@PBD@Z 10011560 f   AFEntity.obj
 0001:000105d0       ?Spawn@idAFEntity_Vehicle@@QAEXXZ 100115d0 f   AFEntity.obj
 0001:00010730       ?Use@idAFEntity_Vehicle@@QAEXPAVidPlayer@@@Z 10011730 f   AFEntity.obj
 0001:00010890       ??_EidAFEntity_VehicleSimple@@UAEPAXI@Z 10011890 f i AFEntity.obj
 0001:00010890       ??_GidAFEntity_VehicleSimple@@UAEPAXI@Z 10011890 f i AFEntity.obj
 0001:000108b0       ?Think@idAFEntity_VehicleSimple@@UAEXXZ 100118b0 f   AFEntity.obj
 0001:00010e40       ?Spawn@idAFEntity_VehicleFourWheels@@QAEXXZ 10011e40 f   AFEntity.obj
 0001:00011000       ?Think@idAFEntity_VehicleFourWheels@@UAEXXZ 10012000 f   AFEntity.obj
 0001:00011460       ?Spawn@idAFEntity_VehicleSixWheels@@QAEXXZ 10012460 f   AFEntity.obj
 0001:00011630       ?Think@idAFEntity_VehicleSixWheels@@UAEXXZ 10012630 f   AFEntity.obj
 0001:00011bb0       ?PostSpawn@idAFEntity_VehicleAutomated@@QAEXXZ 10012bb0 f   AFEntity.obj
 0001:00011bf0       ??_GidAFEntity_SteamPipe@@UAEPAXI@Z 10012bf0 f i AFEntity.obj
 0001:00011bf0       ??_EidAFEntity_SteamPipe@@UAEPAXI@Z 10012bf0 f i AFEntity.obj
 0001:00011c10       ?InitSteamRenderEntity@idAFEntity_SteamPipe@@AAEXXZ 10012c10 f   AFEntity.obj
 0001:00011de0       ?Spawn@idAFEntity_ClawFourFingers@@QAEXXZ 10012de0 f   AFEntity.obj
 0001:00011e60       ?AF_UpdateEntities@idGameEdit@@UAEXPBD@Z 10012e60 f   AFEntity.obj
 0001:00011f60       ?AF_UndoChanges@idGameEdit@@UAEXXZ 10012f60 f   AFEntity.obj
 0001:00012170       ?Spawn@idHarvestable@@QAEXXZ 10013170 f   AFEntity.obj
 0001:00012270       ?Init@idHarvestable@@QAEXPAVidEntity@@@Z 10013270 f   AFEntity.obj
 0001:000125c0       ?Save@idHarvestable@@QBEXPAVidSaveGame@@@Z 100135c0 f   AFEntity.obj
 0001:00012680       ?Restore@idHarvestable@@QAEXPAVidRestoreGame@@@Z 10013680 f   AFEntity.obj
 0001:00012730       ?Gib@idHarvestable@@QAEXXZ 10013730 f   AFEntity.obj
 0001:00012830       ?BeginBurn@idHarvestable@@IAEXXZ 10013830 f   AFEntity.obj
 0001:00012b10       ?CalcTriggerBounds@idHarvestable@@IAEXMAAVidBounds@@@Z 10013b10 f   AFEntity.obj
 0001:00012c10       ?GetFxOrientationAxis@idHarvestable@@IAE_NAAVidMat3@@@Z 10013c10 f   AFEntity.obj
 0001:000133f0       ?Event_SpawnHarvestTrigger@idHarvestable@@IAEXXZ 100143f0 f   AFEntity.obj
 0001:00013510       ??1idAFEntity_Harvest@@UAE@XZ 10014510 f   AFEntity.obj
 0001:000135b0       ?Save@idAFEntity_Harvest@@QBEXPAVidSaveGame@@@Z 100145b0 f   AFEntity.obj
 0001:000135d0       ?Restore@idAFEntity_Harvest@@QAEXPAVidRestoreGame@@@Z 100145d0 f   AFEntity.obj
 0001:000135f0       ?Event_SpawnHarvestEntity@idAFEntity_Harvest@@IAEXXZ 100145f0 f   AFEntity.obj
 0001:000136d0       ?Gib@idAFEntity_Harvest@@UAEXABVidVec3@@PBD@Z 100146d0 f   AFEntity.obj
 0001:00013730       ??H@YA?AVidStr@@ABV0@0@Z   10014730 f i AFEntity.obj
 0001:00013800       ??1idMultiModelAF@@UAE@XZ  10014800 f   AFEntity.obj
 0001:00013900       ?SetModelForId@idMultiModelAF@@IAEXHABVidStr@@@Z 10014900 f   AFEntity.obj
 0001:00013b30       ??4idTraceModel@@QAEAAV0@ABV0@@Z 10014b30 f i AFEntity.obj
 0001:00013da0       ??_EidAFAttachment@@UAEPAXI@Z 10014da0 f i AFEntity.obj
 0001:00013da0       ??_GidAFAttachment@@UAEPAXI@Z 10014da0 f i AFEntity.obj
 0001:00013e30       ?LoadAF@idAFEntity_Base@@UAE_NXZ 10014e30 f   AFEntity.obj
 0001:00013fd0       ??0idAFEntity_Gibbable@@QAE@XZ 10014fd0 f   AFEntity.obj
 0001:000140d0       ?Restore@idAFEntity_Gibbable@@QAEXPAVidRestoreGame@@@Z 100150d0 f   AFEntity.obj
 0001:00014130       ?Spawn@idAFEntity_Gibbable@@QAEXXZ 10015130 f   AFEntity.obj
 0001:00014150       ?Present@idAFEntity_Gibbable@@UAEXXZ 10015150 f   AFEntity.obj
 0001:00014200       ??_EidAFEntity_WithAttachedHead@@UAEPAXI@Z 10015200 f i AFEntity.obj
 0001:00014200       ??_GidAFEntity_WithAttachedHead@@UAEPAXI@Z 10015200 f i AFEntity.obj
 0001:00014220       ?SetupHead@idAFEntity_WithAttachedHead@@QAEXXZ 10015220 f   AFEntity.obj
 0001:00014510       ??_GidAFEntity_ClawFourFingers@@UAEPAXI@Z 10015510 f i AFEntity.obj
 0001:00014510       ??_GidAFEntity_VehicleAutomated@@UAEPAXI@Z 10015510 f i AFEntity.obj
 0001:00014510       ??_GidAFEntity_VehicleSixWheels@@UAEPAXI@Z 10015510 f i AFEntity.obj
 0001:00014510       ??_EidAFEntity_Vehicle@@UAEPAXI@Z 10015510 f i AFEntity.obj
 0001:00014510       ??_GidAFEntity_Vehicle@@UAEPAXI@Z 10015510 f i AFEntity.obj
 0001:00014510       ??_EidAFEntity_VehicleSixWheels@@UAEPAXI@Z 10015510 f i AFEntity.obj
 0001:00014510       ??_GidAFEntity_VehicleFourWheels@@UAEPAXI@Z 10015510 f i AFEntity.obj
 0001:00014510       ??_EidAFEntity_Base@@UAEPAXI@Z 10015510 f i AFEntity.obj
 0001:00014510       ??_EidAFEntity_ClawFourFingers@@UAEPAXI@Z 10015510 f i AFEntity.obj
 0001:00014510       ??_EidAFEntity_VehicleFourWheels@@UAEPAXI@Z 10015510 f i AFEntity.obj
 0001:00014510       ??_EidAFEntity_VehicleAutomated@@UAEPAXI@Z 10015510 f i AFEntity.obj
 0001:00014510       ??_GidAFEntity_Base@@UAEPAXI@Z 10015510 f i AFEntity.obj
 0001:000145b0       ?Spawn@idAFEntity_VehicleSimple@@QAEXXZ 100155b0 f   AFEntity.obj
 0001:00014980       ?Think@idAFEntity_VehicleAutomated@@UAEXXZ 10015980 f   AFEntity.obj
 0001:00014ec0       ??0idAFEntity_SteamPipe@@QAE@XZ 10015ec0 f   AFEntity.obj
 0001:00014ff0       ?Spawn@idAFEntity_SteamPipe@@QAEXXZ 10015ff0 f   AFEntity.obj
 0001:00015150       ?AF_CreateMesh@idGameEdit@@UAEPAVidRenderModel@@ABVidDict@@AAVidVec3@@AAVidMat3@@AA_N@Z 10016150 f   AFEntity.obj
 0001:00016840       ?CreateInstance@idHarvestable@@SAPAVidClass@@XZ 10017840 f   AFEntity.obj
 0001:00016920       ??_GidHarvestable@@UAEPAXI@Z 10017920 f i AFEntity.obj
 0001:00016920       ??_EidHarvestable@@UAEPAXI@Z 10017920 f i AFEntity.obj
 0001:000169c0       ?Think@idHarvestable@@UAEXXZ 100179c0 f   AFEntity.obj
 0001:00016bc0       ?BeginFX@idHarvestable@@IAEXXZ 10017bc0 f   AFEntity.obj
 0001:00016ca0       ?Event_Touch@idHarvestable@@IAEXPAVidEntity@@PAUtrace_s@@@Z 10017ca0 f   AFEntity.obj
 0001:00017030       ??_GidAFEntity_Harvest@@UAEPAXI@Z 10018030 f i AFEntity.obj
 0001:00017030       ??_EidAFEntity_Harvest@@UAEPAXI@Z 10018030 f i AFEntity.obj
 0001:00017050       ?CreateInstance@idMultiModelAF@@SAPAVidClass@@XZ 10018050 f   AFEntity.obj
 0001:00017140       ?CreateInstance@idChain@@SAPAVidClass@@XZ 10018140 f   AFEntity.obj
 0001:00017230       ??_GidChain@@UAEPAXI@Z     10018230 f i AFEntity.obj
 0001:00017230       ??_GidMultiModelAF@@UAEPAXI@Z 10018230 f i AFEntity.obj
 0001:00017230       ??_EidChain@@UAEPAXI@Z     10018230 f i AFEntity.obj
 0001:00017230       ??_EidMultiModelAF@@UAEPAXI@Z 10018230 f i AFEntity.obj
 0001:00017250       ?BuildChain@idChain@@IAEXABVidStr@@ABVidVec3@@MMMH_N@Z 10018250 f   AFEntity.obj
 0001:00017b70       ?Spawn@idChain@@QAEXXZ     10018b70 f   AFEntity.obj
 0001:00017de0       ?CreateInstance@idAFEntity_Base@@SAPAVidClass@@XZ 10018de0 f   AFEntity.obj
 0001:00017ef0       ?DropAFs@idAFEntity_Base@@SAXPAVidEntity@@PBDPAV?$idList@PAVidEntity@@@@@Z 10018ef0 f   AFEntity.obj
 0001:000182e0       ?CreateInstance@idAFEntity_Gibbable@@SAPAVidClass@@XZ 100192e0 f   AFEntity.obj
 0001:00018430       ?SpawnGibs@idAFEntity_Gibbable@@UAEXABVidVec3@@PBD@Z 10019430 f   AFEntity.obj
 0001:00018880       ?CreateInstance@idAFEntity_Generic@@SAPAVidClass@@XZ 10019880 f   AFEntity.obj
 0001:000189d0       ?CreateInstance@idAFEntity_WithAttachedHead@@SAPAVidClass@@XZ 100199d0 f   AFEntity.obj
 0001:00018b20       ?Spawn@idAFEntity_WithAttachedHead@@QAEXXZ 10019b20 f   AFEntity.obj
 0001:00018c30       ?CreateInstance@idAFEntity_Vehicle@@SAPAVidClass@@XZ 10019c30 f   AFEntity.obj
 0001:00018d90       ?CreateInstance@idAFEntity_VehicleSimple@@SAPAVidClass@@XZ 10019d90 f   AFEntity.obj
 0001:00018ef0       ?CreateInstance@idAFEntity_VehicleFourWheels@@SAPAVidClass@@XZ 10019ef0 f   AFEntity.obj
 0001:00019080       ?CreateInstance@idAFEntity_VehicleSixWheels@@SAPAVidClass@@XZ 1001a080 f   AFEntity.obj
 0001:00019220       ?CreateInstance@idAFEntity_VehicleAutomated@@SAPAVidClass@@XZ 1001a220 f   AFEntity.obj
 0001:000193d0       ?CreateInstance@idAFEntity_SteamPipe@@SAPAVidClass@@XZ 1001a3d0 f   AFEntity.obj
 0001:00019470       ?Restore@idAFEntity_SteamPipe@@QAEXPAVidRestoreGame@@@Z 1001a470 f   AFEntity.obj
 0001:00019480       ?CreateInstance@idAFEntity_ClawFourFingers@@SAPAVidClass@@XZ 1001a480 f   AFEntity.obj
 0001:000195d0       ?AF_SpawnEntity@idGameEdit@@UAE_NPBD@Z 1001a5d0 f   AFEntity.obj
 0001:000199c0       ?CreateInstance@idAFEntity_Harvest@@SAPAVidClass@@XZ 1001a9c0 f   AFEntity.obj
 0001:00019b20       ?GetType@idBrittleFracture@@UBEPAVidTypeInfo@@XZ 1001ab20 f   BrittleFracture.obj
 0001:00019b30       ?Killed@idBrittleFracture@@UAEXPAVidEntity@@0HABVidVec3@@H@Z 1001ab30 f   BrittleFracture.obj
 0001:00019b70       ?Event_Activate@idBrittleFracture@@AAEXPAVidEntity@@@Z 1001ab70 f   BrittleFracture.obj
 0001:00019bb0       ?Clear@idWinding@@UAEXXZ   1001abb0 f i BrittleFracture.obj
 0001:00019bd0       ??1idFixedWinding@@UAE@XZ  1001abd0 f i BrittleFracture.obj
 0001:00019c00       ?Clear@idFixedWinding@@UAEXXZ 1001ac00 f i BrittleFracture.obj
 0001:00019c10       ?Save@idBrittleFracture@@QBEXPAVidSaveGame@@@Z 1001ac10 f   BrittleFracture.obj
 0001:00019f50       ?UpdateRenderEntity@idBrittleFracture@@ABE_NPAUrenderEntity_s@@PBUrenderView_s@@@Z 1001af50 f   BrittleFracture.obj
 0001:0001ac20       ?ModelCallback@idBrittleFracture@@CA_NPAUrenderEntity_s@@PBUrenderView_s@@@Z 1001bc20 f   BrittleFracture.obj
 0001:0001ac60       ?DropShard@idBrittleFracture@@AAEXPAUshard_s@@ABVidVec3@@1MH@Z 1001bc60 f   BrittleFracture.obj
 0001:0001b230       ?DropFloatingIslands@idBrittleFracture@@AAEXABVidVec3@@0H@Z 1001c230 f   BrittleFracture.obj
 0001:0001b460       ??_EidWinding@@UAEPAXI@Z   1001c460 f i BrittleFracture.obj
 0001:0001b460       ??_GidWinding@@UAEPAXI@Z   1001c460 f i BrittleFracture.obj
 0001:0001b4a0       ??_EidFixedWinding@@UAEPAXI@Z 1001c4a0 f i BrittleFracture.obj
 0001:0001b4a0       ??_GidFixedWinding@@UAEPAXI@Z 1001c4a0 f i BrittleFracture.obj
 0001:0001b4e0       ??0idBrittleFracture@@QAE@XZ 1001c4e0 f   BrittleFracture.obj
 0001:0001b660       ??1shard_s@@QAE@XZ         1001c660 f i BrittleFracture.obj
 0001:0001b740       ??0shard_s@@QAE@XZ         1001c740 f i BrittleFracture.obj
 0001:0001b7f0       ??4idFixedWinding@@QAEAAV0@ABV0@@Z 1001c7f0 f i BrittleFracture.obj
 0001:0001b8a0       ?Present@idBrittleFracture@@UAEXXZ 1001c8a0 f   BrittleFracture.obj
 0001:0001b9e0       ?ProjectDecal@idBrittleFracture@@QAEXABVidVec3@@0HPBD@Z 1001c9e0 f   BrittleFracture.obj
 0001:0001c360       ?Shatter@idBrittleFracture@@AAEXABVidVec3@@0H@Z 1001d360 f   BrittleFracture.obj
 0001:0001c680       ?AddDamageEffect@idBrittleFracture@@UAEXABUtrace_s@@ABVidVec3@@PBD@Z 1001d680 f   BrittleFracture.obj
 0001:0001c6b0       ?FindNeighbours@idBrittleFracture@@AAEXXZ 1001d6b0 f   BrittleFracture.obj
 0001:0001d1c0       ?Event_Touch@idBrittleFracture@@AAEXPAVidEntity@@PAUtrace_s@@@Z 1001e1c0 f   BrittleFracture.obj
 0001:0001d2a0       ?ClientReceiveEvent@idBrittleFracture@@UAE_NHHABVidBitMsg@@@Z 1001e2a0 f   BrittleFracture.obj
 0001:0001d3c0       ?CreateInstance@idBrittleFracture@@SAPAVidClass@@XZ 1001e3c0 f   BrittleFracture.obj
 0001:0001d460       ?Restore@idBrittleFracture@@QAEXPAVidRestoreGame@@@Z 1001e460 f   BrittleFracture.obj
 0001:0001dbb0       ?AddShard@idBrittleFracture@@AAEXPAVidClipModel@@AAVidFixedWinding@@@Z 1001ebb0 f   BrittleFracture.obj
 0001:0001def0       ?RemoveShard@idBrittleFracture@@AAEXH@Z 1001eef0 f   BrittleFracture.obj
 0001:0001df80       ?Think@idBrittleFracture@@UAEXXZ 1001ef80 f   BrittleFracture.obj
 0001:0001e1f0       ?ApplyImpulse@idBrittleFracture@@UAEXPAVidEntity@@HABVidVec3@@1@Z 1001f1f0 f   BrittleFracture.obj
 0001:0001e260       ?AddForce@idBrittleFracture@@UAEXPAVidEntity@@HABVidVec3@@1@Z 1001f260 f   BrittleFracture.obj
 0001:0001e2d0       ?Fracture_r@idBrittleFracture@@AAEXAAVidFixedWinding@@@Z 1001f2d0 f   BrittleFracture.obj
 0001:0001e980       ?CreateFractures@idBrittleFracture@@AAEXPBVidRenderModel@@@Z 1001f980 f   BrittleFracture.obj
 0001:0001ee10       ??1idBrittleFracture@@UAE@XZ 1001fe10 f   BrittleFracture.obj
 0001:0001ef70       ?Spawn@idBrittleFracture@@QAEXXZ 1001ff70 f   BrittleFracture.obj
 0001:0001f4a0       ??_GidBrittleFracture@@UAEPAXI@Z 100204a0 f i BrittleFracture.obj
 0001:0001f4a0       ??_EidBrittleFracture@@UAEPAXI@Z 100204a0 f i BrittleFracture.obj
 0001:0001f4c0       ?CreateInstance@idCamera@@SAPAVidClass@@XZ 100204c0 f   Camera.obj
 0001:0001f4e0       ?GetRenderView@idCamera@@UAEPAUrenderView_s@@XZ 100204e0 f   Camera.obj
 0001:0001f500       ?GetType@idCameraView@@UBEPAVidTypeInfo@@XZ 10020500 f   Camera.obj
 0001:0001f510       ??1idTarget@@UAE@XZ        10020510 f i Target.obj
 0001:0001f510       ??1idCamera@@UAE@XZ        10020510 f i Camera.obj
 0001:0001f510       ??1idTrigger@@UAE@XZ       10020510 f i Trigger.obj
 0001:0001f520       ?Save@idCameraView@@QBEXPAVidSaveGame@@@Z 10020520 f   Camera.obj
 0001:0001f560       ?Restore@idCameraView@@QAEXPAVidRestoreGame@@@Z 10020560 f   Camera.obj
 0001:0001f5a0       ?GetType@idCameraAnim@@UBEPAVidTypeInfo@@XZ 100205a0 f   Camera.obj
 0001:0001f5b0       ?Event_SetCallback@idCameraAnim@@AAEXXZ 100205b0 f   Camera.obj
 0001:0001f5f0       ?Event_Activate@idCameraView@@IAEXPAVidEntity@@@Z 100205f0 f   Camera.obj
 0001:0001f6b0       ?Stop@idCameraView@@UAEXXZ 100206b0 f   Camera.obj
 0001:0001f700       ?Spawn@idCameraView@@QAEXXZ 10020700 f   Camera.obj
 0001:0001f7b0       ?GetViewParms@idCameraView@@UAEXPAUrenderView_s@@@Z 100207b0 f   Camera.obj
 0001:0001f960       ?Save@idCameraAnim@@QBEXPAVidSaveGame@@@Z 10020960 f   Camera.obj
 0001:0001f9d0       ?Start@idCameraAnim@@AAEXXZ 100209d0 f   Camera.obj
 0001:0001fa90       ?Stop@idCameraAnim@@EAEXXZ 10020a90 f   Camera.obj
 0001:0001fb40       ?Think@idCameraAnim@@EAEXXZ 10020b40 f   Camera.obj
 0001:0001fc00       ?GetViewParms@idCameraAnim@@UAEXPAUrenderView_s@@@Z 10020c00 f   Camera.obj
 0001:000204c0       ?Event_Activate@idCameraAnim@@AAEXPAVidEntity@@@Z 100214c0 f   Camera.obj
 0001:00020510       ?Event_Start@idCameraAnim@@AAEXXZ 10021510 f   Camera.obj
 0001:00020520       ?CreateInstance@idCameraView@@SAPAVidClass@@XZ 10021520 f   Camera.obj
 0001:000205e0       ?Event_SetAttachments@idCameraView@@IAEXXZ 100215e0 f   Camera.obj
 0001:00020670       ??1idCameraAnim@@UAE@XZ    10021670 f   Camera.obj
 0001:00020730       ?CreateInstance@idCameraAnim@@SAPAVidClass@@XZ 10021730 f   Camera.obj
 0001:00020850       ??_GidCameraAnim@@UAEPAXI@Z 10021850 f i Camera.obj
 0001:00020850       ??_EidCameraAnim@@UAEPAXI@Z 10021850 f i Camera.obj
 0001:00020870       ?LoadAnim@idCameraAnim@@AAEXXZ 10021870 f   Camera.obj
 0001:00020f40       ?Restore@idCameraAnim@@QAEXPAVidRestoreGame@@@Z 10021f40 f   Camera.obj
 0001:00020fb0       ?Spawn@idCameraAnim@@QAEXXZ 10021fb0 f   Camera.obj
 0001:00021050       ?CreateInstance@idEntity@@SAPAVidClass@@XZ 10022050 f   Entity.obj
 0001:00021070       ?GetType@idEntity@@UBEPAVidTypeInfo@@XZ 10022070 f   Entity.obj
 0001:00021080       ??_GidClass@@UAEPAXI@Z     10022080 f i Entity.obj
 0001:00021080       ??_EidClass@@UAEPAXI@Z     10022080 f i Entity.obj
 0001:000210a0       ?DoDormantTests@idEntity@@AAE_NXZ 100220a0 f   Entity.obj
 0001:00021120       ?CheckDormant@idEntity@@QAE_NXZ 10022120 f   Entity.obj
 0001:00021170       ?GetColor@idEntity@@UBEXAAVidVec3@@@Z 10022170 f   Entity.obj
 0001:000211a0       ?FreeModelDef@idEntity@@UAEXXZ 100221a0 f   Entity.obj
 0001:000211d0       ?IsHidden@idEntity@@QBE_NXZ 100221d0 f   Entity.obj
 0001:000211e0       ?GetRenderEntity@idEntity@@UAEPAUrenderEntity_s@@XZ 100221e0 f   Entity.obj
 0001:000211f0       ?GetModelDefHandle@idEntity@@UAEHXZ 100221f0 f   Entity.obj
 0001:00021200       ?SetSoundVolume@idEntity@@QAEXM@Z 10022200 f   Entity.obj
 0001:00021210       ?GetListenerId@idEntity@@QBEHXZ 10022210 f   Entity.obj
 0001:00021220       ?GetSoundEmitter@idEntity@@QBEPAVidSoundEmitter@@XZ 10022220 f   Entity.obj
 0001:00021230       ?FreeSoundEmitter@idEntity@@QAEX_N@Z 10022230 f   Entity.obj
 0001:00021260       ?IsBound@idEntity@@QBE_NXZ 10022260 f   Entity.obj
 0001:00021270       ?GetBindMaster@idEntity@@QBEPAV1@XZ 10022270 f   Entity.obj
 0001:00021280       ?GetBindJoint@idEntity@@QBE?AW4jointHandle_t@@XZ 10022280 f   Entity.obj
 0001:00021290       ?GetBindBody@idEntity@@QBEHXZ 10022290 f   Entity.obj
 0001:000212a0       ?GetTeamMaster@idEntity@@QBEPAV1@XZ 100222a0 f   Entity.obj
 0001:000212b0       ?GetNextTeamEntity@idEntity@@QBEPAV1@XZ 100222b0 f   Entity.obj
 0001:000212c0       ?QuitTeam@idEntity@@AAEXXZ 100222c0 f   Entity.obj
 0001:00021350       ?SetPhysics@idEntity@@QAEXPAVidPhysics@@@Z 10022350 f   Entity.obj
 0001:000213f0       ?RestorePhysics@idEntity@@QAEXPAVidPhysics@@@Z 100223f0 f   Entity.obj
 0001:00021400       ?GetPhysics@idEntity@@QBEPAVidPhysics@@XZ 10022400 f   Entity.obj
 0001:00021410       ?GetImpactInfo@idEntity@@UAEXPAV1@HABVidVec3@@PAUimpactInfo_s@@@Z 10022410 f   Entity.obj
 0001:00021430       ?ApplyImpulse@idEntity@@UAEXPAV1@HABVidVec3@@1@Z 10022430 f   Entity.obj
 0001:00021450       ?AddForce@idEntity@@UAEXPAV1@HABVidVec3@@1@Z 10022450 f   Entity.obj
 0001:00021470       ?ActivatePhysics@idEntity@@UAEXPAV1@@Z 10022470 f   Entity.obj
 0001:00021480       ?IsAtRest@idEntity@@UBE_NXZ 10022480 f   Entity.obj
 0001:00021490       ?GetRestStartTime@idEntity@@UBEHXZ 10022490 f   Entity.obj
 0001:000214a0       ?AddContactEntity@idEntity@@UAEXPAV1@@Z 100224a0 f   Entity.obj
 0001:000214b0       ?RemoveContactEntity@idEntity@@UAEXPAV1@@Z 100224b0 f   Entity.obj
 0001:000214c0       ?Pain@idEntity@@UAE_NPAV1@0HABVidVec3@@H@Z 100224c0 f   Entity.obj
 0001:000214d0       ?Killed@idEntity@@UAEXPAV1@0HABVidVec3@@H@Z 100224d0 f   Entity.obj
 0001:000214e0       ?TriggerGuis@idEntity@@QAEXXZ 100224e0 f   Entity.obj
 0001:00021510       ?Event_SetOwner@idEntity@@AAEXPAV1@@Z 10022510 f   Entity.obj
 0001:00021560       ?Event_SetModel@idEntity@@AAEXPBD@Z 10022560 f   Entity.obj
 0001:00021570       ?Event_GetShaderParm@idEntity@@AAEXH@Z 10022570 f   Entity.obj
 0001:000215b0       ?Event_SetColor@idEntity@@AAEXMMM@Z 100225b0 f   Entity.obj
 0001:000215e0       ?Event_GetColor@idEntity@@AAEXXZ 100225e0 f   Entity.obj
 0001:00021600       ?Event_IsHidden@idEntity@@AAEXXZ 10022600 f   Entity.obj
 0001:00021620       ?Spawn@idExplodable@@QAEXXZ 10022620 f   Misc.obj
 0001:00021620       ?Event_Hide@idEntity@@AAEXXZ 10022620 f   Entity.obj
 0001:00021630       ?Event_Show@idEntity@@AAEXXZ 10022630 f   Entity.obj
 0001:00021640       ?Event_FadeSound@idEntity@@AAEXHMM@Z 10022640 f   Entity.obj
 0001:00021670       ?Event_GetWorldOrigin@idEntity@@AAEXXZ 10022670 f   Entity.obj
 0001:00021690       ?Event_SetLinearVelocity@idEntity@@AAEXABVidVec3@@@Z 10022690 f   Entity.obj
 0001:000216b0       ?Event_GetLinearVelocity@idEntity@@AAEXXZ 100226b0 f   Entity.obj
 0001:000216d0       ?Event_SetAngularVelocity@idEntity@@AAEXABVidVec3@@@Z 100226d0 f   Entity.obj
 0001:000216f0       ?Event_GetAngularVelocity@idEntity@@AAEXXZ 100226f0 f   Entity.obj
 0001:00021710       ?Event_SetGuiParm@idEntity@@AAEXPBD0@Z 10022710 f   Entity.obj
 0001:00021790       ?Event_SetGuiFloat@idEntity@@AAEXPBDM@Z 10022790 f   Entity.obj
 0001:00021800       ?Event_SetKey@idEntity@@AAEXPBD0@Z 10022800 f   Entity.obj
 0001:00021830       ?Event_GetIntKey@idEntity@@AAEXPBD@Z 10022830 f   Entity.obj
 0001:00021860       ?Event_GetFloatKey@idEntity@@AAEXPBD@Z 10022860 f   Entity.obj
 0001:00021890       ?Event_GetVectorKey@idEntity@@AAEXPBD@Z 10022890 f   Entity.obj
 0001:000218c0       ?Event_DistanceTo@idEntity@@AAEXPAV1@@Z 100228c0 f   Entity.obj
 0001:000219b0       ?Event_DistanceToPoint@idEntity@@AAEXABVidVec3@@@Z 100229b0 f   Entity.obj
 0001:00021a60       ?Event_StartFx@idEntity@@AAEXPBD@Z 10022a60 f   Entity.obj
 0001:00021a80       ?Event_WaitFrame@idEntity@@AAEXXZ 10022a80 f   Entity.obj
 0001:00021aa0       ?Event_Wait@idEntity@@AAEXM@Z 10022aa0 f   Entity.obj
 0001:00021ae0       ?Event_HasFunction@idEntity@@AAEXPBD@Z 10022ae0 f   Entity.obj
 0001:00021b10       ?Event_CallFunction@idEntity@@AAEXPBD@Z 10022b10 f   Entity.obj
 0001:00021be0       ?Event_SetNeverDormant@idEntity@@AAEXH@Z 10022be0 f   Entity.obj
 0001:00021c10       ?Event_PrecacheGui@idEntity@@AAEXPBD@Z 10022c10 f   Entity.obj
 0001:00021c30       ?Event_GetGuiParm@idEntity@@AAEXHPBD@Z 10022c30 f   Entity.obj
 0001:00021c70       ?Event_GetGuiParmFloat@idEntity@@AAEXHPBD@Z 10022c70 f   Entity.obj
 0001:00021cc0       ?Event_GuiNamedEvent@idEntity@@AAEXHPBD@Z 10022cc0 f   Entity.obj
 0001:00021cf0       ?WriteBindToSnapshot@idEntity@@QBEXAAVidBitMsgDelta@@@Z 10022cf0 f   Entity.obj
 0001:00021d70       ?ServerReceiveEvent@idEntity@@UAE_NHHABVidBitMsg@@@Z 10022d70 f   Entity.obj
 0001:00021d80       ?DetermineTimeGroup@idEntity@@QAEX_N@Z 10022d80 f   Entity.obj
 0001:00021db0       ?SetGrabbedState@idEntity@@QAEX_N@Z 10022db0 f   Entity.obj
 0001:00021dd0       ?IsGrabbed@idEntity@@QAE_NXZ 10022dd0 f   Entity.obj
 0001:00021de0       ?GetType@idAnimatedEntity@@UBEPAVidTypeInfo@@XZ 10022de0 f   Entity.obj
 0001:00021df0       ?Save@idAnimatedEntity@@QBEXPAVidSaveGame@@@Z 10022df0 f   Entity.obj
 0001:00021e00       ?GetAnimator@idAnimatedEntity@@UAEPAVidAnimator@@XZ 10022e00 f   Entity.obj
 0001:00021e10       ?Event_GetJointHandle@idAnimatedEntity@@AAEXPBD@Z 10022e10 f   Entity.obj
 0001:00021e30       ?Event_ClearAllJoints@idAnimatedEntity@@AAEXXZ 10022e30 f   Entity.obj
 0001:00021e40       ?Event_ClearJoint@idAnimatedEntity@@AAEXW4jointHandle_t@@@Z 10022e40 f   Entity.obj
 0001:00021e50       ?Event_SetJointPos@idAnimatedEntity@@AAEXW4jointHandle_t@@W4jointModTransform_t@@ABVidVec3@@@Z 10022e50 f   Entity.obj
 0001:00021e60       ?Event_SetJointAngle@idAnimatedEntity@@AAEXW4jointHandle_t@@W4jointModTransform_t@@ABVidAngles@@@Z 10022e60 f   Entity.obj
 0001:00021ee0       ?Clear@?$idLinkList@VidEvent@@@@QAEXXZ 10022ee0 f i Event.obj
 0001:00021ee0       ?Clear@?$idLinkList@VidActor@@@@QAEXXZ 10022ee0 f i Actor.obj
 0001:00021ee0       ?Clear@?$idLinkList@VidEntity@@@@QAEXXZ 10022ee0 f i Entity.obj
 0001:00021f30       ?UpdateGuiParms@@YAXPAVidUserInterface@@PBVidDict@@@Z 10022f30 f   Entity.obj
 0001:00021ff0       ?ParseSpawnArgsToRefSound@idGameEdit@@UAEXPBVidDict@@PAUrefSound_t@@@Z 10022ff0 f   Entity.obj
 0001:00022270       ?UpdateChangeableSpawnArgs@idEntity@@UAEXPBVidDict@@@Z 10023270 f   Entity.obj
 0001:000222e0       ?Save@idEntity@@QBEXPAVidSaveGame@@@Z 100232e0 f   Entity.obj
 0001:00022570       ?GetEntityDefName@idEntity@@QBEPBDXZ 10023570 f   Entity.obj
 0001:000225a0       ?SetName@idEntity@@QAEXPBD@Z 100235a0 f   Entity.obj
 0001:00022640       ?IsActive@idEntity@@QBE_NXZ 10023640 f   Entity.obj
 0001:00022650       ?BecomeInactive@idEntity@@QAEXH@Z 10023650 f   Entity.obj
 0001:00022700       ?GetColor@idEntity@@UBEXAAVidVec4@@@Z 10023700 f   Entity.obj
 0001:00022730       ?UpdateModelTransform@idEntity@@QAEXXZ 10023730 f   Entity.obj
 0001:00022a00       ?UpdatePVSAreas@idEntity@@AAEXXZ 10023a00 f   Entity.obj
 0001:00022b50       ?UpdatePVSAreas@idEntity@@QAEXABVidVec3@@@Z 10023b50 f   Entity.obj
 0001:00022bc0       ?GetNumPVSAreas@idEntity@@QAEHXZ 10023bc0 f   Entity.obj
 0001:00022be0       ?GetPVSAreas@idEntity@@QAEPBHXZ 10023be0 f   Entity.obj
 0001:00022c00       ?PhysicsTeamInPVS@idEntity@@QAE_NUpvsHandle_s@@@Z 10023c00 f   Entity.obj
 0001:00022cb0       ?Present@idEntity@@UAEXXZ  10023cb0 f   Entity.obj
 0001:00022d40       ?UpdateRenderEntity@idEntity@@QAE_NPAUrenderEntity_s@@PBUrenderView_s@@@Z 10023d40 f   Entity.obj
 0001:00022f10       ?ModelCallback@idEntity@@SA_NPAUrenderEntity_s@@PBUrenderView_s@@@Z 10023f10 f   Entity.obj
 0001:00022f50       ?UpdateSound@idEntity@@QAEXXZ 10023f50 f   Entity.obj
 0001:00023080       ?Unbind@idEntity@@QAEXXZ   10024080 f   Entity.obj
 0001:000231e0       ?RemoveBinds@idEntity@@AAEXXZ 100241e0 f   Entity.obj
 0001:00023390       ?ConvertLocalToWorldTransform@idEntity@@QAEXAAVidVec3@@AAVidMat3@@@Z 10024390 f   Entity.obj
 0001:000235d0       ?GetMasterPosition@idEntity@@QBE_NAAVidVec3@@AAVidMat3@@@Z 100245d0 f   Entity.obj
 0001:000239c0       ?JoinTeam@idEntity@@QAEXPAV1@@Z 100249c0 f   Entity.obj
 0001:00023ae0       ?GetFloorPos@idEntity@@QBE_NMAAVidVec3@@@Z 10024ae0 f   Entity.obj
 0001:00023c00       ?CanDamage@idEntity@@UBE_NABVidVec3@@AAV2@@Z 10024c00 f   Entity.obj
 0001:00023fb0       ?Damage@idEntity@@UAEXPAV1@0ABVidVec3@@PBDMH@Z 10024fb0 f   Entity.obj
 0001:00024210       ?ConstructScriptObject@idEntity@@UAEPAVidThread@@XZ 10025210 f   Entity.obj
 0001:000242c0       ?DeconstructScriptObject@idEntity@@UAEXXZ 100252c0 f   Entity.obj
 0001:00024370       ?ClearSignalThread@idEntity@@QAEXW4signalNum_t@@PAVidThread@@@Z 10025370 f   Entity.obj
 0001:00024400       ?Signal@idEntity@@QAEXW4signalNum_t@@@Z 10025400 f   Entity.obj
 0001:000244b0       ?FindTargets@idEntity@@QAEXXZ 100254b0 f   Entity.obj
 0001:00024530       ?RemoveNullTargets@idEntity@@QAEXXZ 10025530 f   Entity.obj
 0001:000245b0       ?ActivateTargets@idEntity@@QBEXPAV1@@Z 100255b0 f   Entity.obj
 0001:00024680       ?TouchTriggers@idEntity@@QBE_NXZ 10025680 f   Entity.obj
 0001:00024a70       ?Event_GetName@idEntity@@AAEXXZ 10025a70 f   Entity.obj
 0001:00024a80       ?Event_SetName@idEntity@@AAEXPBD@Z 10025a80 f   Entity.obj
 0001:00024a90       ?Event_FindTargets@idEntity@@AAEXXZ 10025a90 f   Entity.obj
 0001:00024aa0       ?Event_ActivateTargets@idEntity@@AAEXPAV1@@Z 10025aa0 f   Entity.obj
 0001:00024ab0       ?Event_NumTargets@idEntity@@AAEXXZ 10025ab0 f   Entity.obj
 0001:00024ad0       ?Event_GetTarget@idEntity@@AAEXM@Z 10025ad0 f   Entity.obj
 0001:00024b40       ?Event_RandomTarget@idEntity@@AAEXPBD@Z 10025b40 f   Entity.obj
 0001:00024c60       ?Event_RemoveBinds@idEntity@@AAEXXZ 10025c60 f   Entity.obj
 0001:00024c70       ?Event_Unbind@idEntity@@AAEXXZ 10025c70 f   Entity.obj
 0001:00024c80       ?Event_GetAngles@idEntity@@AAEXXZ 10025c80 f   Entity.obj
 0001:00024cd0       ?Event_SetSize@idEntity@@AAEXABVidVec3@@0@Z 10025cd0 f   Entity.obj
 0001:00024d20       ?Event_GetSize@idEntity@@AAEXXZ 10025d20 f   Entity.obj
 0001:00024d90       ?Event_GetMins@idEntity@@AAEXXZ 10025d90 f   Entity.obj
 0001:00024db0       ?Event_GetMaxs@idEntity@@AAEXXZ 10025db0 f   Entity.obj
 0001:00024dd0       ?Event_Touches@idEntity@@AAEXPAV1@@Z 10025dd0 f   Entity.obj
 0001:00024e90       ?Event_GetNextKey@idEntity@@AAEXPBD0@Z 10025e90 f   Entity.obj
 0001:00024ee0       ?Event_GetKey@idEntity@@AAEXPBD@Z 10025ee0 f   Entity.obj
 0001:00024f10       ?Event_GetEntityKey@idEntity@@AAEXPBD@Z 10025f10 f   Entity.obj
 0001:00024f80       ?Event_RestorePosition@idEntity@@AAEXXZ 10025f80 f   Entity.obj
 0001:000250d0       ?Event_SetGui@idEntity@@AAEXHPBD@Z 100260d0 f   Entity.obj
 0001:00025160       ?WriteColorToSnapshot@idEntity@@QBEXAAVidBitMsgDelta@@@Z 10026160 f   Entity.obj
 0001:000251b0       ?ReadColorFromSnapshot@idEntity@@QAEXABVidBitMsgDelta@@@Z 100261b0 f   Entity.obj
 0001:00025200       ?WriteGUIToSnapshot@idEntity@@QBEXAAVidBitMsgDelta@@@Z 10026200 f   Entity.obj
 0001:00025280       ?ReadGUIFromSnapshot@idEntity@@QAEXABVidBitMsgDelta@@@Z 10026280 f   Entity.obj
 0001:000252d0       ?ServerSendEvent@idEntity@@QBEXHPBVidBitMsg@@_NH@Z 100262d0 f   Entity.obj
 0001:00025430       ?ClientSendEvent@idEntity@@QBEXHPBVidBitMsg@@@Z 10026430 f   Entity.obj
 0001:00025560       ?Restore@idAnimatedEntity@@QAEXPAVidRestoreGame@@@Z 10026560 f   Entity.obj
 0001:000255f0       ?GetJointWorldTransform@idAnimatedEntity@@QAE_NW4jointHandle_t@@HAAVidVec3@@AAVidMat3@@@Z 100265f0 f   Entity.obj
 0001:00025630       ?GetJointTransformForAnim@idAnimatedEntity@@QBE_NW4jointHandle_t@@HHAAVidVec3@@AAVidMat3@@@Z 10026630 f   Entity.obj
 0001:000257a0       ?UpdateDamageEffects@idAnimatedEntity@@QAEXXZ 100267a0 f   Entity.obj
 0001:00025b80       ?Event_GetJointPos@idAnimatedEntity@@AAEXW4jointHandle_t@@@Z 10026b80 f   Entity.obj
 0001:00025c00       ?Event_GetJointAngle@idAnimatedEntity@@AAEXW4jointHandle_t@@@Z 10026c00 f   Entity.obj
 0001:00025ca0       ?Right@idStr@@QBE?AV1@H@Z  10026ca0 f i Entity.obj
 0001:00025d20       ?ParseSpawnArgsToRenderEntity@idGameEdit@@UAEXPBVidDict@@PAUrenderEntity_s@@@Z 10026d20 f   Entity.obj
 0001:00026240       ?FixupLocalizedStrings@idEntity@@AAEXXZ 10027240 f   Entity.obj
 0001:000262b0       ?BecomeActive@idEntity@@QAEXH@Z 100272b0 f   Entity.obj
 0001:00026390       ?UpdateModel@idEntity@@QAEXXZ 10027390 f   Entity.obj
 0001:00026440       ?UpdateVisuals@idEntity@@QAEXXZ 10027440 f   Entity.obj
 0001:00026450       ?ProjectOverlay@idEntity@@UAEXABVidVec3@@0MPBD@Z 10027450 f   Entity.obj
 0001:00026aa0       ?GetRenderView@idEntity@@UAEPAUrenderView_s@@XZ 10027aa0 f   Entity.obj
 0001:00026c10       ?StartSoundShader@idEntity@@QAE_NPBVidSoundShader@@HH_NPAH@Z 10027c10 f   Entity.obj
 0001:00026da0       ?StopSound@idEntity@@QAEXH_N@Z 10027da0 f   Entity.obj
 0001:00026e50       ?InitBind@idEntity@@AAE_NPAV1@@Z 10027e50 f   Entity.obj
 0001:00026ed0       ?FinishBind@idEntity@@AAEXXZ 10027ed0 f   Entity.obj
 0001:00026f30       ?Bind@idEntity@@QAEXPAV1@_N@Z 10027f30 f   Entity.obj
 0001:00026f90       ?BindToJoint@idEntity@@QAEXPAV1@PBD_N@Z 10027f90 f   Entity.obj
 0001:00027050       ?BindToJoint@idEntity@@QAEXPAV1@W4jointHandle_t@@_N@Z 10028050 f   Entity.obj
 0001:000270b0       ?BindToBody@idEntity@@QAEXPAV1@H_N@Z 100280b0 f   Entity.obj
 0001:00027130       ?GetLocalVector@idEntity@@QBE?AVidVec3@@ABV2@@Z 10028130 f   Entity.obj
 0001:000271e0       ?GetLocalCoordinates@idEntity@@QBE?AVidVec3@@ABV2@@Z 100281e0 f   Entity.obj
 0001:000272c0       ?GetWorldVector@idEntity@@QBE?AVidVec3@@ABV2@@Z 100282c0 f   Entity.obj
 0001:00027400       ?GetWorldCoordinates@idEntity@@QBE?AVidVec3@@ABV2@@Z 10028400 f   Entity.obj
 0001:00027550       ?InitDefaultPhysics@idEntity@@AAEXABVidVec3@@ABVidMat3@@@Z 10028550 f   Entity.obj
 0001:00027970       ?SetAxis@idEntity@@QAEXABVidMat3@@@Z 10028970 f   Entity.obj
 0001:00027a20       ?GetPhysicsToSoundTransform@idEntity@@UAE_NAAVidVec3@@AAVidMat3@@@Z 10028a20 f   Entity.obj
 0001:00027b00       ?AddDamageEffect@idEntity@@UAEXABUtrace_s@@ABVidVec3@@PBD@Z 10028b00 f   Entity.obj
 0001:00027ce0       ?Teleport@idEntity@@UAEXABVidVec3@@ABVidAngles@@PAV1@@Z 10028ce0 f   Entity.obj
 0001:00027d40       ?Event_BindToJoint@idEntity@@AAEXPAV1@PBDM@Z 10028d40 f   Entity.obj
 0001:00027d70       ?Event_Bind@idEntity@@AAEXPAV1@@Z 10028d70 f   Entity.obj
 0001:00027dc0       ?Event_BindPosition@idEntity@@AAEXPAV1@@Z 10028dc0 f   Entity.obj
 0001:00027e10       ?Event_SpawnBind@idEntity@@AAEXXZ 10028e10 f   Entity.obj
 0001:000280a0       ?Event_SetSkin@idEntity@@AAEXPBD@Z 100290a0 f   Entity.obj
 0001:000280d0       ?Event_SetShaderParms@idEntity@@AAEXMMMM@Z 100290d0 f   Entity.obj
 0001:00028110       ?Event_StartSoundShader@idEntity@@AAEXPBDH@Z 10029110 f   Entity.obj
 0001:00028160       ?Event_StopSound@idEntity@@AAEXHH@Z 10029160 f   Entity.obj
 0001:00028180       ?Event_SetWorldOrigin@idEntity@@AAEXABVidVec3@@@Z 10029180 f   Entity.obj
 0001:000281c0       ?Event_SetOrigin@idEntity@@AAEXABVidVec3@@@Z 100291c0 f   Entity.obj
 0001:000281c0       ?SetOrigin@idEntity@@QAEXABVidVec3@@@Z 100291c0 f   Entity.obj
 0001:000281f0       ?Event_GetOrigin@idEntity@@AAEXXZ 100291f0 f   Entity.obj
 0001:00028230       ?Event_SetAngles@idEntity@@AAEXABVidAngles@@@Z 10029230 f   Entity.obj
 0001:00028230       ?SetAngles@idEntity@@QAEXABVidAngles@@@Z 10029230 f   Entity.obj
 0001:00028260       ?Event_UpdateCameraTarget@idEntity@@AAEXXZ 10029260 f   Entity.obj
 0001:00028470       ?ReadBindFromSnapshot@idEntity@@QAEXABVidBitMsgDelta@@@Z 10029470 f   Entity.obj
 0001:00028500       ?ClientReceiveEvent@idEntity@@UAE_NHHABVidBitMsg@@@Z 10029500 f   Entity.obj
 0001:00028600       ?UpdateAnimation@idAnimatedEntity@@QAEXXZ 10029600 f   Entity.obj
 0001:000286d0       ?AddLocalDamageEffect@idAnimatedEntity@@QAEXW4jointHandle_t@@ABVidVec3@@11PBVidDeclEntityDef@@PBVidMaterial@@@Z 100296d0 f   Entity.obj
 0001:00028df0       ?ClientReceiveEvent@idAnimatedEntity@@UAE_NHHABVidBitMsg@@@Z 10029df0 f   Entity.obj
 0001:00028f40       ?RemoveIndex@?$idCurve@VidVec3@@@@UAEXH@Z 10029f40 f i Entity.obj
 0001:00028fd0       ?Clear@?$idCurve@VidVec3@@@@UAEXXZ 10029fd0 f i Entity.obj
 0001:00029020       ?GetCurrentSecondDerivative@?$idCurve@VidVec3@@@@UBE?AVidVec3@@M@Z 1002a020 f i Entity.obj
 0001:00029020       ?GetCurrentFirstDerivative@?$idCurve@VidVec3@@@@UBE?AVidVec3@@M@Z 1002a020 f i Entity.obj
 0001:00029050       ?IsDone@?$idCurve@VidVec3@@@@UBE_NM@Z 1002a050 f i Entity.obj
 0001:00029080       ?GetCurrentValue@?$idCurve@VidVec3@@@@UBE?AVidVec3@@M@Z 1002a080 f i Entity.obj
 0001:00029190       ??1?$idCurve_NonUniformBSpline@VidVec3@@@@UAE@XZ 1002a190 f i Entity.obj
 0001:00029210       ??0idEntity@@QAE@XZ        1002a210 f   Entity.obj
 0001:000294a0       ?Spawn@idEntity@@QAEXXZ    1002a4a0 f   Entity.obj
 0001:00029b20       ?SetShaderParm@idEntity@@QAEXHM@Z 1002ab20 f   Entity.obj
 0001:00029b20       ?Event_SetShaderParm@idEntity@@AAEXHM@Z 1002ab20 f   Entity.obj
 0001:00029b60       ?SetColor@idEntity@@UAEXMMM@Z 1002ab60 f   Entity.obj
 0001:00029ba0       ?SetColor@idEntity@@UAEXABVidVec3@@@Z 1002aba0 f   Entity.obj
 0001:00029be0       ?SetColor@idEntity@@UAEXABVidVec4@@@Z 1002abe0 f   Entity.obj
 0001:00029c20       ?SetModel@idEntity@@UAEXPBD@Z 1002ac20 f   Entity.obj
 0001:00029d00       ?SetSkin@idEntity@@QAEXPBVidDeclSkin@@@Z 1002ad00 f   Entity.obj
 0001:00029d20       ?Hide@idEntity@@UAEXXZ     1002ad20 f   Entity.obj
 0001:00029d50       ?Show@idEntity@@UAEXXZ     1002ad50 f   Entity.obj
 0001:00029d80       ?StartSound@idEntity@@QAE_NPBDHH_NPAH@Z 1002ad80 f   Entity.obj
 0001:00029e00       ?RunPhysics@idEntity@@QAE_NXZ 1002ae00 f   Entity.obj
 0001:0002a1d0       ?SetSignal@idEntity@@QAEXW4signalNum_t@@PAVidThread@@PBVfunction_t@@@Z 1002b1d0 f   Entity.obj
 0001:0002a400       ?HandleGuiCommands@idEntity@@QAE_NPAV1@PBD@Z 1002b400 f   Entity.obj
 0001:0002adb0       ?Event_StartSound@idEntity@@AAEXPBDHH@Z 1002bdb0 f   Entity.obj
 0001:0002ae00       ?Think@idEntity@@UAEXXZ    1002be00 f   Entity.obj
 0001:0002ae00       ?Think@idMultiModelAF@@UAEXXZ 1002be00 f   AFEntity.obj
 0001:0002ae00       ?ClientPredictionThink@idEntity@@UAEXXZ 1002be00 f   Entity.obj
 0001:0002ae20       ?ClientPredictionThink@idAnimatedEntity@@UAEXXZ 1002be20 f   Entity.obj
 0001:0002ae40       ?Think@idAnimatedEntity@@UAEXXZ 1002be40 f   Entity.obj
 0001:0002ae60       ?SetModel@idAnimatedEntity@@UAEXPBD@Z 1002be60 f   Entity.obj
 0001:0002af10       ?AddDamageEffect@idAnimatedEntity@@UAEXABUtrace_s@@ABVidVec3@@PBD@Z 1002bf10 f   Entity.obj
 0001:0002b5c0       ?AddValue@?$idCurve@VidVec3@@@@UAEHMABVidVec3@@@Z 1002c5c0 f i Entity.obj
 0001:0002bac0       ?SetBoundaryType@?$idCurve_Spline@VidVec3@@@@UAEXW4boundary_t@1@@Z 1002cac0 f i Entity.obj
 0001:0002bad0       ?NumParameters@idTypeDef@@QBEHXZ 1002cad0 f i Script_Program.obj
 0001:0002bad0       ?GetBoundaryType@?$idCurve_Spline@VidVec3@@@@UBE?AW4boundary_t@1@XZ 1002cad0 f i Entity.obj
 0001:0002bae0       ?SetCloseTime@?$idCurve_Spline@VidVec3@@@@UAEXM@Z 1002cae0 f i Entity.obj
 0001:0002baf0       ?GetCloseTime@?$idCurve_Spline@VidVec3@@@@UAEMXZ 1002caf0 f i Entity.obj
 0001:0002bb10       ?IsDone@?$idCurve_Spline@VidVec3@@@@UBE_NM@Z 1002cb10 f i Entity.obj
 0001:0002bb40       ??1idEntity@@UAE@XZ        1002cb40 f   Entity.obj
 0001:0002be60       ?Restore@idEntity@@QAEXPAVidRestoreGame@@@Z 1002ce60 f   Entity.obj
 0001:0002c3c0       ??0idAnimatedEntity@@QAE@XZ 1002d3c0 f   Entity.obj
 0001:0002c430       ??1idAnimatedEntity@@UAE@XZ 1002d430 f   Entity.obj
 0001:0002c4b0       ?GetCurrentValue@?$idCurve_CatmullRomSpline@VidVec3@@@@UBE?AVidVec3@@M@Z 1002d4b0 f i Entity.obj
 0001:0002ca60       ?GetCurrentFirstDerivative@?$idCurve_CatmullRomSpline@VidVec3@@@@UBE?AVidVec3@@M@Z 1002da60 f i Entity.obj
 0001:0002d140       ?GetCurrentSecondDerivative@?$idCurve_CatmullRomSpline@VidVec3@@@@UBE?AVidVec3@@M@Z 1002e140 f i Entity.obj
 0001:0002d810       ??_E?$idCurve_BSpline@VidVec3@@@@UAEPAXI@Z 1002e810 f i Entity.obj
 0001:0002d810       ??_E?$idCurve_NonUniformBSpline@VidVec3@@@@UAEPAXI@Z 1002e810 f i Entity.obj
 0001:0002d810       ??_G?$idCurve@VidVec3@@@@UAEPAXI@Z 1002e810 f i Entity.obj
 0001:0002d810       ??_E?$idCurve@VidVec3@@@@UAEPAXI@Z 1002e810 f i Entity.obj
 0001:0002d810       ??_E?$idCurve_CatmullRomSpline@VidVec3@@@@UAEPAXI@Z 1002e810 f i Entity.obj
 0001:0002d810       ??_G?$idCurve_CatmullRomSpline@VidVec3@@@@UAEPAXI@Z 1002e810 f i Entity.obj
 0001:0002d810       ??_G?$idCurve_BSpline@VidVec3@@@@UAEPAXI@Z 1002e810 f i Entity.obj
 0001:0002d810       ??_G?$idCurve_NonUniformBSpline@VidVec3@@@@UAEPAXI@Z 1002e810 f i Entity.obj
 0001:0002d8a0       ?GetOrder@?$idCurve_BSpline@VidVec3@@@@UBEHXZ 1002e8a0 f i Entity.obj
 0001:0002d8b0       ?SetOrder@?$idCurve_BSpline@VidVec3@@@@UAEXH@Z 1002e8b0 f i Entity.obj
 0001:0002d8c0       ?Basis@?$idCurve_BSpline@VidVec3@@@@IBEMHHM@Z 1002e8c0 f i Entity.obj
 0001:0002dea0       ?GetCurrentValue@?$idCurve_BSpline@VidVec3@@@@UBE?AVidVec3@@M@Z 1002eea0 f i Entity.obj
 0001:0002e750       ?GetCurrentFirstDerivative@?$idCurve_BSpline@VidVec3@@@@UBE?AVidVec3@@M@Z 1002f750 f i Entity.obj
 0001:0002f5c0       ?GetCurrentSecondDerivative@?$idCurve_BSpline@VidVec3@@@@UBE?AVidVec3@@M@Z 100305c0 f i Entity.obj
 0001:00031040       ?GetCurrentValue@?$idCurve_NonUniformBSpline@VidVec3@@@@UBE?AVidVec3@@M@Z 10032040 f i Entity.obj
 0001:00031600       ?GetCurrentFirstDerivative@?$idCurve_NonUniformBSpline@VidVec3@@@@UBE?AVidVec3@@M@Z 10032600 f i Entity.obj
 0001:00031e10       ?GetCurrentSecondDerivative@?$idCurve_NonUniformBSpline@VidVec3@@@@UBE?AVidVec3@@M@Z 10032e10 f i Entity.obj
 0001:000328b0       ?RemoveIndex@?$idCurve_NURBS@VidVec3@@@@UAEXH@Z 100338b0 f i Entity.obj
 0001:00032960       ?Clear@?$idCurve_NURBS@VidVec3@@@@UAEXXZ 10033960 f i Entity.obj
 0001:000329c0       ?GetCurrentValue@?$idCurve_NURBS@VidVec3@@@@UBE?AVidVec3@@M@Z 100339c0 f i Entity.obj
 0001:00033010       ?GetCurrentFirstDerivative@?$idCurve_NURBS@VidVec3@@@@UBE?AVidVec3@@M@Z 10034010 f i Entity.obj
 0001:00033bc0       ?GetCurrentSecondDerivative@?$idCurve_NURBS@VidVec3@@@@UBE?AVidVec3@@M@Z 10034bc0 f i Entity.obj
 0001:00034fe0       ??1?$idCurve_NURBS@VidVec3@@@@UAE@XZ 10035fe0 f i Entity.obj
 0001:00035080       ?AddValue@?$idCurve_NURBS@VidVec3@@@@UAEHMABVidVec3@@M@Z 10036080 f i Entity.obj
 0001:00035720       ?AddValue@?$idCurve_NURBS@VidVec3@@@@UAEHMABVidVec3@@@Z 10036720 f i Entity.obj
 0001:00035dc0       ??_G?$idCurve_NURBS@VidVec3@@@@UAEPAXI@Z 10036dc0 f i Entity.obj
 0001:00035dc0       ??_E?$idCurve_NURBS@VidVec3@@@@UAEPAXI@Z 10036dc0 f i Entity.obj
 0001:00035de0       ?GetSpline@idEntity@@QBEPAV?$idCurve_Spline@VidVec3@@@@XZ 10036de0 f   Entity.obj
 0001:000360f0       ?CreateInstance@idAnimatedEntity@@SAPAVidClass@@XZ 100370f0 f   Entity.obj
 0001:000361c0       ??_EidAnimatedEntity@@UAEPAXI@Z 100371c0 f i Entity.obj
 0001:000361c0       ??_GidAnimatedEntity@@UAEPAXI@Z 100371c0 f i Entity.obj
 0001:000361e0       ?GetType@idEntityFx@@UBEPAVidTypeInfo@@XZ 100371e0 f   Fx.obj
 0001:000361f0       ?ApplyFade@idEntityFx@@IAEXABUidFXSingleAction@@AAUidFXLocalAction@@HH@Z 100371f0 f   Fx.obj
 0001:00036380       ?GetType@idTeleporter@@UBEPAVidTypeInfo@@XZ 10037380 f   Fx.obj
 0001:00036390       ?Save@idEntityFx@@QBEXPAVidSaveGame@@@Z 10037390 f   Fx.obj
 0001:00036500       ?CleanUp@idEntityFx@@IAEXXZ 10037500 f   Fx.obj
 0001:000365d0       ?Start@idEntityFx@@QAEXH@Z 100375d0 f   Fx.obj
 0001:00036630       ?Duration@idEntityFx@@QAE?BHXZ 10037630 f   Fx.obj
 0001:00036680       ?Event_ClearFx@idEntityFx@@IAEXXZ 10037680 f   Fx.obj
 0001:00036820       ?WriteToSnapshot@idEntityFx@@UBEXAAVidBitMsgDelta@@@Z 10037820 f   Fx.obj
 0001:00036890       ?Event_DoAction@idTeleporter@@AAEXPAVidEntity@@@Z 10037890 f   Fx.obj
 0001:00036940       ??4renderLight_s@@QAEAAU0@ABU0@@Z 10037940 f i Fx.obj
 0001:00036ad0       ??0idEntityFx@@QAE@XZ      10037ad0 f   Fx.obj
 0001:00036b60       ??1idEntityFx@@UAE@XZ      10037b60 f   Fx.obj
 0001:00036c00       ??4idFXLocalAction@@QAEAAU0@ABU0@@Z 10037c00 f i Fx.obj
 0001:00036ca0       ?CreateInstance@idEntityFx@@SAPAVidClass@@XZ 10037ca0 f   Fx.obj
 0001:00036d40       ?Run@idEntityFx@@QAEXH@Z   10037d40 f   Fx.obj
 0001:00037b20       ??_GidEntityFx@@UAEPAXI@Z  10038b20 f i Fx.obj
 0001:00037b20       ??_EidTeleporter@@UAEPAXI@Z 10038b20 f i Fx.obj
 0001:00037b20       ??_EidEntityFx@@UAEPAXI@Z  10038b20 f i Fx.obj
 0001:00037b20       ??_GidTeleporter@@UAEPAXI@Z 10038b20 f i Fx.obj
 0001:00037b40       ?Think@idEntityFx@@UAEXXZ  10038b40 f   Fx.obj
 0001:00037b80       ?StartFx@idEntityFx@@SAPAV1@PBDPBVidVec3@@PBVidMat3@@PAVidEntity@@_N@Z 10038b80 f   Fx.obj
 0001:00037e00       ?ClientPredictionThink@idEntityFx@@UAEXXZ 10038e00 f   Fx.obj
 0001:00037e30       ?CreateInstance@idTeleporter@@SAPAVidClass@@XZ 10038e30 f   Fx.obj
 0001:00037ee0       ?Restore@idEntityFx@@QAEXPAVidRestoreGame@@@Z 10038ee0 f   Fx.obj
 0001:000381b0       ?Setup@idEntityFx@@QAEXPBD@Z 100391b0 f   Fx.obj
 0001:00038460       ?Spawn@idEntityFx@@QAEXXZ  10039460 f   Fx.obj
 0001:000385a0       ?Event_Trigger@idEntityFx@@IAEXPAVidEntity@@@Z 100395a0 f   Fx.obj
 0001:000386b0       ?ReadFromSnapshot@idEntityFx@@UAEXABVidBitMsgDelta@@@Z 100396b0 f   Fx.obj
 0001:000387b0       ??1idClip@@QAE@XZ          100397b0 f i Game_local.obj
 0001:00038800       _GetGameAPI                10039800 f   Game_local.obj
 0001:000388e0       ?GetPersistentPlayerInfo@idGameLocal@@UAEABVidDict@@H@Z 100398e0 f   Game_local.obj
 0001:00038940       ?SetPersistentPlayerInfo@idGameLocal@@UAEXHABVidDict@@@Z 10039940 f   Game_local.obj
 0001:00038960       ?Printf@idGameLocal@@QBAXPBDZZ 10039960 f   Game_local.obj
 0001:000389a0       ?Warning@idGameLocal@@QBAXPBDZZ 100399a0 f   Game_local.obj
 0001:00038a00       ?Error@idGameLocal@@QBAXPBDZZ 10039a00 f   Game_local.obj
 0001:00038a60       ?gameError@@YAXPBDZZ       10039a60 f   Game_local.obj
 0001:00038aa0       ?SetLocalClient@idGameLocal@@UAEXH@Z 10039aa0 f   Game_local.obj
 0001:00038ab0       ?GetUserInfo@idGameLocal@@UAEPBVidDict@@H@Z 10039ab0 f   Game_local.obj
 0001:00038af0       ?InitScriptForMap@idGameLocal@@AAEXXZ 10039af0 f   Game_local.obj
 0001:00038bd0       ?GetClientByNum@idGameLocal@@QBEPAVidPlayer@@H@Z 10039bd0 f   Game_local.obj
 0001:00038bf0       ?GetNextClientNum@idGameLocal@@QBEHH@Z 10039bf0 f   Game_local.obj
 0001:00038c50       ?GetLocalPlayer@idGameLocal@@QBEPAVidPlayer@@XZ 10039c50 f   Game_local.obj
 0001:00038ca0       ?InPlayerPVS@idGameLocal@@QBE_NPAVidEntity@@@Z 10039ca0 f   Game_local.obj
 0001:00038cf0       ?InPlayerConnectedArea@idGameLocal@@QBE_NPAVidEntity@@@Z 10039cf0 f   Game_local.obj
 0001:00038d40       ?GetGravity@idGameLocal@@QBEABVidVec3@@XZ 10039d40 f   Game_local.obj
 0001:00038d50       ?Draw@idGameLocal@@UAE_NH@Z 10039d50 f   Game_local.obj
 0001:00038d90       ?HandleESC@idGameLocal@@UAE?AW4escReply_t@@PAPAVidUserInterface@@@Z 10039d90 f   Game_local.obj
 0001:00038e20       ?StartMenu@idGameLocal@@UAEPAVidUserInterface@@XZ 10039e20 f   Game_local.obj
 0001:00038e40       ?HandleGuiCommands@idGameLocal@@UAEPBDPBD@Z 10039e40 f   Game_local.obj
 0001:00038e60       ?CallFrameCommand@idGameLocal@@QAEXPAVidEntity@@PBVfunction_t@@@Z 10039e60 f   Game_local.obj
 0001:00038e90       ?SpawnEntityType@idGameLocal@@QAEPAVidEntity@@ABVidTypeInfo@@PBVidDict@@_N@Z 10039e90 f   Game_local.obj
 0001:00038f50       ?FindEntityDef@idGameLocal@@QBEPBVidDeclEntityDef@@PBD_N@Z 10039f50 f   Game_local.obj
 0001:00038fb0       ?FindEntityDefDict@idGameLocal@@QBEPBVidDict@@PBD_N@Z 10039fb0 f   Game_local.obj
 0001:00039010       ?GameState@idGameLocal@@QBE?AW4gameState_t@@XZ 1003a010 f   Game_local.obj
 0001:00039020       ?GetTraceEntity@idGameLocal@@QBEPAVidEntity@@ABUtrace_s@@@Z 1003a020 f   Game_local.obj
 0001:00039060       ?GetCamera@idGameLocal@@QBEPAVidCamera@@XZ 1003a060 f   Game_local.obj
 0001:00039070       ?LocationForPoint@idGameLocal@@QAEPAVidLocationEntity@@ABVidVec3@@@Z 1003a070 f   Game_local.obj
 0001:000390d0       ?sortSpawnPoints@idGameLocal@@CAHPBX0@Z 1003a0d0 f   Game_local.obj
 0001:00039120       ?SetGlobalMaterial@idGameLocal@@QAEXPBVidMaterial@@@Z 1003a120 f   Game_local.obj
 0001:00039130       ?GetGlobalMaterial@idGameLocal@@QAEPBVidMaterial@@XZ 1003a130 f   Game_local.obj
 0001:00039140       ?GetSpawnId@idGameLocal@@QBEHPBVidEntity@@@Z 1003a140 f   Game_local.obj
 0001:00039160       ?ThrottleUserInfo@idGameLocal@@UAEXXZ 1003a160 f   Game_local.obj
 0001:00039170       ?IsPortalSkyAcive@idGameLocal@@QAE_NXZ 1003a170 f   Game_local.obj
 0001:00039180       ?SelectTimeGroup@idGameLocal@@UAEXH@Z 1003a180 f   Game_local.obj
 0001:00039210       ?GetTimeGroupTime@idGameLocal@@UAEHH@Z 1003a210 f   Game_local.obj
 0001:00039230       ?QuickSlowmoReset@idGameLocal@@QAEXXZ 1003a230 f   Game_local.obj
 0001:00039240       ?GetClientStats@idGameLocal@@UAEXHPADH@Z 1003a240 f   Game_local.obj
 0001:00039250       ?SwitchTeam@idGameLocal@@UAEXHH@Z 1003a250 f   Game_local.obj
 0001:000392a0       ??0?$idStaticList@PAVidEntity@@$0BAAA@@@QAE@XZ 1003a2a0 f i Game_local.obj
 0001:000392a0       ??0?$idStaticList@UspawnSpot_t@@$0BAAA@@@QAE@XZ 1003a2a0 f i Game_local.obj
 0001:000392a0       ??0idAttachInfo@@QAE@XZ    1003a2a0 f i Actor.obj
 0001:000392a0       ??0beamTarget_t@@QAE@XZ    1003a2a0 f i Projectile.obj
 0001:000392a0       ??0?$idEntityPtr@VidEntity@@@@QAE@XZ 1003a2a0 f i Actor.obj
 0001:000392b0       ??$idDeclAllocator@VidDeclModelDef@@@@YAPAVidDecl@@XZ 1003a2b0 f i Game_local.obj
 0001:00039310       ??$idListDecls_f@$04@@YAXABVidCmdArgs@@@Z 1003a310 f i Game_local.obj
 0001:00039330       ??$idPrintDecls_f@$04@@YAXABVidCmdArgs@@@Z 1003a330 f i Game_local.obj
 0001:00039350       ??$ArgCompletion_Decl@$04@idCmdSystem@@SAXABVidCmdArgs@@P6AXPBD@Z@Z 1003a350 f i Game_local.obj
 0001:00039370       ?Shutdown@?$idBlockAlloc@UentityNetEvent_s@@$0CA@@@QAEXXZ 1003a370 f i Game_local.obj
 0001:000393c0       ?Shutdown@?$idBlockAlloc@Usnapshot_s@@$0EA@@@QAEXXZ 1003a3c0 f i Game_local.obj
 0001:00039410       ?Left@idStr@@QBE?AV1@H@Z   1003a410 f i Game_local.obj
 0001:00039440       ?Argv@idCmdArgs@@QBEPBDH@Z 1003a440 f i Game_local.obj
 0001:00039460       ?ArgCompletion_Boolean@idCmdSystem@@SAXABVidCmdArgs@@P6AXPBD@Z@Z 1003a460 f i Game_local.obj
 0001:000394c0       ??_EidCVar@@UAEPAXI@Z      1003a4c0 f i Game_local.obj
 0001:000394c0       ??_GidCVar@@UAEPAXI@Z      1003a4c0 f i Game_local.obj
 0001:000394e0       ??1idDecl@@UAE@XZ          1003a4e0 f i Game_local.obj
 0001:000394f0       ?SetDefaultText@idDecl@@UAE_NXZ 1003a4f0 f i Game_local.obj
 0001:00039500       ?DefaultDefinition@idDecl@@UBEPBDXZ 1003a500 f i Game_local.obj
 0001:00039510       ?FreeData@idDecl@@UAEXXZ   1003a510 f i Game_local.obj
 0001:00039520       ?Size@idDecl@@UBEIXZ       1003a520 f i Game_local.obj
 0001:00039530       ?List@idDecl@@UBEXXZ       1003a530 f i Game_local.obj
 0001:00039540       ?Print@idDecl@@UBEXXZ      1003a540 f i Game_local.obj
 0001:00039550       ??_GidDecl@@UAEPAXI@Z      1003a550 f i Game_local.obj
 0001:00039550       ??_EidDecl@@UAEPAXI@Z      1003a550 f i Game_local.obj
 0001:00039570       ??1idGame@@UAE@XZ          1003a570 f i Game_local.obj
 0001:00039580       ??_GidGame@@UAEPAXI@Z      1003a580 f i Game_local.obj
 0001:00039580       ??_EidGame@@UAEPAXI@Z      1003a580 f i Game_local.obj
 0001:000395a0       ?DPrintf@idGameLocal@@QBAXPBDZZ 1003a5a0 f   Game_local.obj
 0001:00039600       ?DWarning@idGameLocal@@QBAXPBDZZ 1003a600 f   Game_local.obj
 0001:00039670       ?SetUserInfo@idGameLocal@@UAEPBVidDict@@HABV2@_N1@Z 1003a670 f   Game_local.obj
 0001:00039880       ?GetClientByName@idGameLocal@@QBEPAVidPlayer@@PBD@Z 1003a880 f   Game_local.obj
 0001:00039920       ?GetClientByCmdArgs@idGameLocal@@QBEPAVidPlayer@@ABVidCmdArgs@@@Z 1003a920 f   Game_local.obj
 0001:00039a70       ?SetupPlayerPVS@idGameLocal@@AAEXXZ 1003aa70 f   Game_local.obj
 0001:00039f10       ?UpdateGravity@idGameLocal@@AAEXXZ 1003af10 f   Game_local.obj
 0001:00039fe0       ?RunTimeGroup2@idGameLocal@@QAEXXZ 1003afe0 f   Game_local.obj
 0001:0003a0d0       ?CalcFov@idGameLocal@@QBEXMAAM0@Z 1003b0d0 f   Game_local.obj
 0001:0003a2b0       ?GetMapName@idGameLocal@@QBEPBDXZ 1003b2b0 f   Game_local.obj
 0001:0003a2c0       ?CallObjectFrameCommand@idGameLocal@@QAEXPAVidEntity@@PBD@Z 1003b2c0 f   Game_local.obj
 0001:0003a340       ?ShowTargets@idGameLocal@@AAEXXZ 1003b340 f   Game_local.obj
 0001:0003adc0       ?NumAAS@idGameLocal@@QBEHXZ 1003bdc0 f   Game_local.obj
 0001:0003add0       ?GetAAS@idGameLocal@@QBEPAVidAAS@@H@Z 1003bdd0 f   Game_local.obj
 0001:0003ae20       ?GetAAS@idGameLocal@@QBEPAVidAAS@@PBD@Z 1003be20 f   Game_local.obj
 0001:0003aea0       ?SetAASAreaState@idGameLocal@@QAEXABVidBounds@@H_N@Z 1003bea0 f   Game_local.obj
 0001:0003aef0       ?CheatsOk@idGameLocal@@QAE_N_N@Z 1003bef0 f   Game_local.obj
 0001:0003af70       ?UnregisterEntity@idGameLocal@@QAEXPAVidEntity@@@Z 1003bf70 f   Game_local.obj
 0001:0003b000       ?SpawnEntityDef@idGameLocal@@QAE_NABVidDict@@PAPAVidEntity@@_N@Z 1003c000 f   Game_local.obj
 0001:0003b2f0       ?InhibitEntitySpawn@idGameLocal@@AAE_NAAVidDict@@@Z 1003c2f0 f   Game_local.obj
 0001:0003b460       ?ArgCompletion_EntityName@idGameLocal@@SAXABVidCmdArgs@@P6AXPBD@Z@Z 1003c460 f   Game_local.obj
 0001:0003b4b0       ?FindEntityUsingDef@idGameLocal@@QBEPAVidEntity@@PAV2@PBD@Z 1003c4b0 f   Game_local.obj
 0001:0003b520       ?FindTraceEntity@idGameLocal@@QBEPAVidEntity@@VidVec3@@0ABVidTypeInfo@@PBV2@@Z 1003c520 f   Game_local.obj
 0001:0003b6a0       ?EntitiesWithinRadius@idGameLocal@@QBEHVidVec3@@MPAPAVidEntity@@H@Z 1003c6a0 f   Game_local.obj
 0001:0003b7c0       ?KillBox@idGameLocal@@QAEXPAVidEntity@@_N@Z 1003c7c0 f   Game_local.obj
 0001:0003b930       ?RequirementMet@idGameLocal@@QAE_NPAVidEntity@@ABVidStr@@H@Z 1003c930 f   Game_local.obj
 0001:0003b990       ?AlertAI@idGameLocal@@QAEXPAVidEntity@@@Z 1003c990 f   Game_local.obj
 0001:0003b9f0       ?GetAlertEntity@idGameLocal@@QAEPAVidActor@@XZ 1003c9f0 f   Game_local.obj
 0001:0003bc10       ?SetCamera@idGameLocal@@QAEXPAVidCamera@@@Z 1003cc10 f   Game_local.obj
 0001:0003bf20       ?SkipCinematic@idGameLocal@@QAE_NXZ 1003cf20 f   Game_local.obj
 0001:0003c060       ?SpreadLocations@idGameLocal@@QAEXXZ 1003d060 f   Game_local.obj
 0001:0003c230       ?SetPortalState@idGameLocal@@QAEXHH@Z 1003d230 f   Game_local.obj
 0001:0003c2d0       ?RandomizeInitialSpawns@idGameLocal@@AAEXXZ 1003d2d0 f   Game_local.obj
 0001:0003c7a0       ?SelectInitialSpawnPoint@idGameLocal@@QAEPAVidEntity@@PAVidPlayer@@@Z 1003d7a0 f   Game_local.obj
 0001:0003cdc0       ?UpdateServerInfoFlags@idGameLocal@@AAEXXZ 1003ddc0 f   Game_local.obj
 0001:0003cfd0       ?SetPortalSkyEnt@idGameLocal@@QAEXPAVidEntity@@@Z 1003dfd0 f   Game_local.obj
 0001:0003d000       ?GetBestGameType@idGameLocal@@UAEXPBD0QAD@Z 1003e000 f   Game_local.obj
 0001:0003d050       ?ComputeSlowMsec@idGameLocal@@QAEXXZ 1003e050 f   Game_local.obj
 0001:0003d2c0       ??1?$idBlockAlloc@Usnapshot_s@@$0EA@@@QAE@XZ 1003e2c0 f i Game_local.obj
 0001:0003d2d0       ??$idDeclAllocator@VidDecl@@@@YAPAVidDecl@@XZ 1003e2d0 f i Game_local.obj
 0001:0003d2f0       ??1selectedTypeInfo_s@@QAE@XZ 1003e2f0 f i Game_local.obj
 0001:0003d300       ??H@YA?AVidStr@@ABV0@PBD@Z 1003e300 f i Game_local.obj
 0001:0003d3f0       ??1idMultiplayerGame@@QAE@XZ 1003e3f0 f i Game_local.obj
 0001:0003d470       ??1idEventQueue@@QAE@XZ    1003e470 f i Game_local.obj
 0001:0003d480       ??_F?$idList@Usignal_t@@@@QAEXXZ 1003e480 f i Entity.obj
 0001:0003d480       ??_F?$idList@H@@QAEXXZ     1003e480 f i Game_local.obj
 0001:0003d4a0       ?Clear@idGameLocal@@AAEXXZ 1003e4a0 f   Game_local.obj
 0001:0003d8b0       ?SaveGame@idGameLocal@@UAEXPAVidFile@@@Z 1003e8b0 f   Game_local.obj
 0001:0003dff0       ?SetServerInfo@idGameLocal@@UAEXABVidDict@@@Z 1003eff0 f   Game_local.obj
 0001:0003e080       ?SortActiveEntityList@idGameLocal@@AAEXXZ 1003f080 f   Game_local.obj
 0001:0003e330       ?RunDebugInfo@idGameLocal@@AAEXXZ 1003f330 f   Game_local.obj
 0001:0003edb0       ?RegisterEntity@idGameLocal@@QAEXPAVidEntity@@@Z 1003fdb0 f   Game_local.obj
 0001:0003eee0       ?RemoveEntityFromHash@idGameLocal@@QAE_NPBDPAVidEntity@@@Z 1003fee0 f   Game_local.obj
 0001:0003f000       ?FindEntity@idGameLocal@@QBEPAVidEntity@@PBD@Z 10040000 f   Game_local.obj
 0001:0003f0a0       ?RadiusPushClipModel@idGameLocal@@QAEXABVidVec3@@MPBVidClipModel@@@Z 100400a0 f   Game_local.obj
 0001:0003f2d0       ??1idMapEntity@@QAE@XZ     100402d0 f i Game_local.obj
 0001:0003f3b0       ?Init@idGameLocal@@UAEXXZ  100403b0 f   Game_local.obj
 0001:0003fc50       ?NextMap@idGameLocal@@QAE_NXZ 10040c50 f   Game_local.obj
 0001:00040020       ?DumpOggSounds@idGameLocal@@AAEXXZ 10041020 f   Game_local.obj
 0001:00041020       ?GetShakeSounds@idGameLocal@@AAEXPBVidDict@@@Z 10042020 f   Game_local.obj
 0001:00041470       ?CacheDictionaryMedia@idGameLocal@@UAEXPBVidDict@@@Z 10042470 f   Game_local.obj
 0001:00041b20       ?SpawnPlayer@idGameLocal@@UAEXH@Z 10042b20 f   Game_local.obj
 0001:00041de0       ?RunFrame@idGameLocal@@UAE?AUgameReturn_t@@PBVusercmd_t@@@Z 10042de0 f   Game_local.obj
 0001:000426e0       ?SpawnMapEntities@idGameLocal@@AAEXXZ 100436e0 f   Game_local.obj
 0001:000429d0       ?AddEntityToHash@idGameLocal@@QAEXPBDPAVidEntity@@@Z 100439d0 f   Game_local.obj
 0001:00042aa0       ?GetTargets@idGameLocal@@QBEHABVidDict@@AAV?$idList@V?$idEntityPtr@VidEntity@@@@@@PBD@Z 10043aa0 f   Game_local.obj
 0001:00042d10       ?RadiusPush@idGameLocal@@QAEXABVidVec3@@MMPBVidEntity@@1M_N@Z 10043d10 f   Game_local.obj
 0001:00042ff0       ?ProjectDecal@idGameLocal@@QAEXABVidVec3@@0M_NMPBDM@Z 10043ff0 f   Game_local.obj
 0001:00043b40       ?BloodSplat@idGameLocal@@QAEXABVidVec3@@0MPBD@Z 10044b40 f   Game_local.obj
 0001:00043d90       ?NeedRestart@idGameLocal@@QAE_NXZ 10044d90 f   Game_local.obj
 0001:00044010       ?MapPopulate@idGameLocal@@AAEXXZ 10045010 f   Game_local.obj
 0001:00044070       ?RadiusDamage@idGameLocal@@QAEXABVidVec3@@PAVidEntity@@111PBDM@Z 10045070 f   Game_local.obj
 0001:000446b0       ??1?$idList@UselectedTypeInfo_s@@@@QAE@XZ 100456b0 f i Game_local.obj
 0001:000446f0       ??1idMapFile@@QAE@XZ       100456f0 f i Game_local.obj
 0001:000447a0       ?LoadMap@idGameLocal@@QAEXPBDH@Z 100457a0 f   Game_local.obj
 0001:00044e40       ?InitFromNewMap@idGameLocal@@UAEXPBDPAVidRenderWorld@@PAVidSoundWorld@@_N3H@Z 10045e40 f   Game_local.obj
 0001:00044f10       ?InitFromSaveGame@idGameLocal@@UAE_NPBDPAVidRenderWorld@@PAVidSoundWorld@@PAVidFile@@@Z 10045f10 f   Game_local.obj
 0001:00045950       ?GetLevelMap@idGameLocal@@QAEPAVidMapFile@@XZ 10046950 f   Game_local.obj
 0001:00045af0       ?Shutdown@?$idBlockAlloc@UentityState_s@@$0BAA@@@QAEXXZ 10046af0 f i Game_local.obj
 0001:00045b50       ?Shutdown@idGameLocal@@UAEXXZ 10046b50 f   Game_local.obj
 0001:00045d10       ??1?$idBlockAlloc@UentityState_s@@$0BAA@@@QAE@XZ 10046d10 f i Game_local.obj
 0001:00045d20       ??1idGameLocal@@UAE@XZ     10046d20 f i Game_local.obj
 0001:000460c0       ??0idGameLocal@@QAE@XZ     100470c0 f   Game_local.obj
 0001:00046720       ??_EidGameLocal@@UAEPAXI@Z 10047720 f i Game_local.obj
 0001:00046720       ??_GidGameLocal@@UAEPAXI@Z 10047720 f i Game_local.obj
 0001:00046740       ?MapClear@idGameLocal@@AAEX_N@Z 10047740 f   Game_local.obj
 0001:00046940       ?MapShutdown@idGameLocal@@UAEXXZ 10047940 f   Game_local.obj
 0001:00046a30       ?LocalMapRestart@idGameLocal@@QAEXXZ 10047a30 f   Game_local.obj
 0001:00046bc0       ?MapRestart@idGameLocal@@QAEXXZ 10047bc0 f   Game_local.obj
 0001:00046f60       ?MapRestart_f@idGameLocal@@SAXABVidCmdArgs@@@Z 10047f60 f   Game_local.obj
 0001:00046fb0       ?NextMap_f@idGameLocal@@SAXABVidCmdArgs@@@Z 10047fb0 f   Game_local.obj
 0001:00046ff0       ?ServerClientConnect@idGameLocal@@UAEXHPBD@Z 10047ff0 f   Game_network.obj
 0001:00047060       ?NetworkEventWarning@idGameLocal@@AAAXPBUentityNetEvent_s@@PBDZZ 10048060 f   Game_network.obj
 0001:000470e0       ?Init@idEventQueue@@QAEXXZ 100480e0 f   Game_network.obj
 0001:000470f0       ?Alloc@?$idBlockAlloc@UentityNetEvent_s@@$0CA@@@QAEPAUentityNetEvent_s@@XZ 100480f0 f i Game_network.obj
 0001:00047170       ?Alloc@?$idBlockAlloc@Usnapshot_s@@$0EA@@@QAEPAUsnapshot_s@@XZ 10048170 f i Game_network.obj
 0001:000471f0       ?InitAsyncNetwork@idGameLocal@@AAEXXZ 100481f0 f   Game_network.obj
 0001:00047320       ?ClientRemapDecl@idGameLocal@@QAEHW4declType_t@@H@Z 10048320 f   Game_network.obj
 0001:000473d0       ?ServerAllowClient@idGameLocal@@UAE?AW4allowReply_t@@HPBD00QAD@Z 100483d0 f   Game_network.obj
 0001:00047550       ?ServerWriteInitialReliableMessages@idGameLocal@@UAEXH@Z 10048550 f   Game_network.obj
 0001:00047770       ?FreeSnapshotsOlderThanSequence@idGameLocal@@AAEXHH@Z 10048770 f   Game_network.obj
 0001:00047820       ?ApplySnapshot@idGameLocal@@AAE_NHH@Z 10048820 f   Game_network.obj
 0001:00047920       ?ServerApplySnapshot@idGameLocal@@UAE_NHH@Z 10048920 f   Game_network.obj
 0001:00047920       ?ClientApplySnapshot@idGameLocal@@UAE_NHH@Z 10048920 f   Game_network.obj
 0001:00047930       ?ServerSendChatMessage@idGameLocal@@QAEXHPBD0@Z 10048930 f   Game_network.obj
 0001:000479f0       ?ClientShowSnapshot@idGameLocal@@ABEXH@Z 100489f0 f   Game_network.obj
 0001:00047ca0       ?UpdateLagometer@idGameLocal@@AAEXHH@Z 10048ca0 f   Game_network.obj
 0001:00047e00       ?ClientPrediction@idGameLocal@@UAE?AUgameReturn_t@@HPBVusercmd_t@@_N@Z 10048e00 f   Game_network.obj
 0001:00047fc0       ?Alloc@idEventQueue@@QAEPAUentityNetEvent_s@@XZ 10048fc0 f   Game_network.obj
 0001:00047fe0       ?Shutdown@idEventQueue@@QAEXXZ 10048fe0 f   Game_network.obj
 0001:00048000       ?Enqueue@idEventQueue@@QAEXPAUentityNetEvent_s@@W4outOfOrderBehaviour_t@1@@Z 10049000 f   Game_network.obj
 0001:00048120       ??$ArgCompletion_Integer@$0A@$02@idCmdSystem@@SAXABVidCmdArgs@@P6AXPBD@Z@Z 10049120 f i Game_network.obj
 0001:00048160       ?InitClientDeclRemap@idGameLocal@@AAEXH@Z 10049160 f   Game_network.obj
 0001:00048340       ?ServerSendDeclRemapToClient@idGameLocal@@AAEXHW4declType_t@@H@Z 10049340 f   Game_network.obj
 0001:000485a0       ?ServerRemapDecl@idGameLocal@@QAEHHW4declType_t@@H@Z 100495a0 f   Game_network.obj
 0001:00048600       ?ServerClientBegin@idGameLocal@@UAEXH@Z 10049600 f   Game_network.obj
 0001:00048700       ?ServerClientDisconnect@idGameLocal@@UAEXH@Z 10049700 f   Game_network.obj
 0001:00048820       ?SaveEntityNetworkEvent@idGameLocal@@QAEXPBVidEntity@@HPBVidBitMsg@@@Z 10049820 f   Game_network.obj
 0001:000488d0       ?ServerProcessEntityNetworkEventQueue@idGameLocal@@AAEXXZ 100498d0 f   Game_network.obj
 0001:000489e0       ?ServerProcessReliableMessage@idGameLocal@@UAEXHABVidBitMsg@@@Z 100499e0 f   Game_network.obj
 0001:00048c60       ?ClientProcessEntityNetworkEventQueue@idGameLocal@@AAEXXZ 10049c60 f   Game_network.obj
 0001:00048d80       ??0element_s@?$idBlockAlloc@UentityState_s@@$0BAA@@@QAE@XZ 10049d80 f i Game_network.obj
 0001:00048d90       ?ClientProcessReliableMessage@idGameLocal@@UAEXHABVidBitMsg@@@Z 10049d90 f   Game_network.obj
 0001:00049800       ?Tokenize@idGameLocal@@QAEXAAV?$idList@VidStr@@@@PBD@Z 1004a800 f   Game_network.obj
 0001:00049bb0       ?DownloadRequest@idGameLocal@@UAE_NPBD00QAD@Z 1004abb0 f   Game_network.obj
 0001:00049fd0       ?Alloc@?$idBlockAlloc@UentityState_s@@$0BAA@@@QAEPAUentityState_s@@XZ 1004afd0 f i Game_network.obj
 0001:0004a0b0       ?ServerWriteSnapshot@idGameLocal@@UAEXHHAAVidBitMsg@@PAEH@Z 1004b0b0 f   Game_network.obj
 0001:0004a5d0       ?ClientReadSnapshot@idGameLocal@@UAEXHHHHHHABVidBitMsg@@@Z 1004b5d0 f   Game_network.obj
 0001:0004b270       ?ShutdownAsyncNetwork@idGameLocal@@AAEXXZ 1004c270 f   Game_network.obj
 0001:0004b300       ?GetType@idCursor3D@@UBEPAVidTypeInfo@@XZ 1004c300 f   GameEdit.obj
 0001:0004b310       ?FindEntityDefDict@idGameEdit@@UBEPBVidDict@@PBD_N@Z 1004c310 f   GameEdit.obj
 0001:0004b320       ?SpawnEntityDef@idGameEdit@@UAEXABVidDict@@PAPAVidEntity@@@Z 1004c320 f   GameEdit.obj
 0001:0004b340       ?FindEntity@idGameEdit@@UBEPAVidEntity@@PBD@Z 1004c340 f   GameEdit.obj
 0001:0004b350       ?GetUniqueEntityName@idGameEdit@@UBEPBDPBD@Z 1004c350 f   GameEdit.obj
 0001:0004b3b0       ?EntitySetOrigin@idGameEdit@@UAEXPAVidEntity@@ABVidVec3@@@Z 1004c3b0 f   GameEdit.obj
 0001:0004b3d0       ?EntitySetAxis@idGameEdit@@UAEXPAVidEntity@@ABVidMat3@@@Z 1004c3d0 f   GameEdit.obj
 0001:0004b3f0       ?EntitySetColor@idGameEdit@@UAEXPAVidEntity@@VidVec3@@@Z 1004c3f0 f   GameEdit.obj
 0001:0004b410       ?EntityTranslate@idGameEdit@@UAEXPAVidEntity@@ABVidVec3@@@Z 1004c410 f   GameEdit.obj
 0001:0004b430       ?EntityGetSpawnArgs@idGameEdit@@UBEPBVidDict@@PAVidEntity@@@Z 1004c430 f   GameEdit.obj
 0001:0004b450       ?EntityUpdateChangeableSpawnArgs@idGameEdit@@UAEXPAVidEntity@@PBVidDict@@@Z 1004c450 f   GameEdit.obj
 0001:0004b470       ?EntityUpdateVisuals@idGameEdit@@UAEXPAVidEntity@@@Z 1004c470 f   GameEdit.obj
 0001:0004b480       ?EntitySetModel@idGameEdit@@UAEXPAVidEntity@@PBD@Z 1004c480 f   GameEdit.obj
 0001:0004b4b0       ?EntityStopSound@idGameEdit@@UAEXPAVidEntity@@@Z 1004c4b0 f   GameEdit.obj
 0001:0004b4d0       ?EntityDelete@idGameEdit@@UAEXPAVidEntity@@@Z 1004c4d0 f   GameEdit.obj
 0001:0004b4f0       ?PlayerIsValid@idGameEdit@@UBE_NXZ 1004c4f0 f   GameEdit.obj
 0001:0004b510       ?MapGetEntityDict@idGameEdit@@UBEPBVidDict@@PBD@Z 1004c510 f   GameEdit.obj
 0001:0004b540       ?MapSetEntityKeyVal@idGameEdit@@UBEXPBD00@Z 1004c540 f   GameEdit.obj
 0001:0004b580       ?MapRemoveEntity@idGameEdit@@UBEXPBD@Z 1004c580 f   GameEdit.obj
 0001:0004b5b0       ??_EidGameEdit@@UAEPAXI@Z  1004c5b0 f i GameEdit.obj
 0001:0004b5b0       ??_GidGameEdit@@UAEPAXI@Z  1004c5b0 f i GameEdit.obj
 0001:0004b5d0       ??_EidCursor3D@@UAEPAXI@Z  1004c5d0 f i GameEdit.obj
 0001:0004b5d0       ??_GidCursor3D@@UAEPAXI@Z  1004c5d0 f i GameEdit.obj
 0001:0004b640       ?Present@idCursor3D@@UAEXXZ 1004c640 f   GameEdit.obj
 0001:0004b760       ?Clear@idDragEntity@@QAEXXZ 1004c760 f   GameEdit.obj
 0001:0004b7c0       ?SetSelected@idDragEntity@@QAEXPAVidEntity@@@Z 1004c7c0 f   GameEdit.obj
 0001:0004b800       ?DeleteSelected@idDragEntity@@QAEXXZ 1004c800 f   GameEdit.obj
 0001:0004b850       ?UnbindSelected@idDragEntity@@QAEXXZ 1004c850 f   GameEdit.obj
 0001:0004b980       ?ClearSelectedEntities@idEditEntities@@QAEXXZ 1004c980 f   GameEdit.obj
 0001:0004b9d0       ??0selectedTypeInfo_s@@QAE@XZ 1004c9d0 f i GameEdit.obj
 0001:0004b9f0       ?GetSelectedEntities@idGameEdit@@UAEHQAPAVidEntity@@H@Z 1004c9f0 f   GameEdit.obj
 0001:0004ba40       ?TriggerSelected@idGameEdit@@UAEXXZ 1004ca40 f   GameEdit.obj
 0001:0004bab0       ?ClearEntitySelection@idGameEdit@@UAEXXZ 1004cab0 f   GameEdit.obj
 0001:0004bb40       ?EntityGetOrigin@idGameEdit@@UBEXPAVidEntity@@AAVidVec3@@@Z 1004cb40 f   GameEdit.obj
 0001:0004bb80       ?EntityGetAxis@idGameEdit@@UBEXPAVidEntity@@AAVidMat3@@@Z 1004cb80 f   GameEdit.obj
 0001:0004bbe0       ?PlayerGetOrigin@idGameEdit@@UBEXAAVidVec3@@@Z 1004cbe0 f   GameEdit.obj
 0001:0004bc20       ?PlayerGetAxis@idGameEdit@@UBEXAAVidMat3@@@Z 1004cc20 f   GameEdit.obj
 0001:0004bc80       ?PlayerGetViewAngles@idGameEdit@@UBEXAAVidAngles@@@Z 1004cc80 f   GameEdit.obj
 0001:0004bcb0       ?PlayerGetEyePosition@idGameEdit@@UBEXAAVidVec3@@@Z 1004ccb0 f   GameEdit.obj
 0001:0004bcf0       ?MapSave@idGameEdit@@UBEXPBD@Z 1004ccf0 f   GameEdit.obj
 0001:0004bd20       ?MapEntityTranslate@idGameEdit@@UBEXPBDABVidVec3@@@Z 1004cd20 f   GameEdit.obj
 0001:0004bdb0       ?CreateInstance@idCursor3D@@SAPAVidClass@@XZ 1004cdb0 f   GameEdit.obj
 0001:0004be80       ??0idDragEntity@@QAE@XZ    1004ce80 f   GameEdit.obj
 0001:0004bf10       ??1idDragEntity@@QAE@XZ    1004cf10 f   GameEdit.obj
 0001:0004bf90       ?BindSelected@idDragEntity@@QAEXXZ 1004cf90 f   GameEdit.obj
 0001:0004c3c0       ?RemoveSelectedEntity@idEditEntities@@QAEXPAVidEntity@@@Z 1004d3c0 f   GameEdit.obj
 0001:0004c440       ?EntityIsSelectable@idEditEntities@@QAE_NPAVidEntity@@PAVidVec4@@PAVidStr@@@Z 1004d440 f   GameEdit.obj
 0001:0004c590       ?EntityChangeSpawnArgs@idGameEdit@@UAEXPAVidEntity@@PBVidDict@@@Z 1004d590 f   GameEdit.obj
 0001:0004c600       ?MapCopyDictToEntity@idGameEdit@@UBEXPBDPBVidDict@@@Z 1004d600 f   GameEdit.obj
 0001:0004c670       ?MapGetUniqueMatchingKeyVals@idGameEdit@@UBEHPBDQAPBDH@Z 1004d670 f   GameEdit.obj
 0001:0004c6f0       ?MapGetEntitiesMatchingClassWithString@idGameEdit@@UBEHPBD0QAPBDH@Z 1004d6f0 f   GameEdit.obj
 0001:0004c900       ??4selectedTypeInfo_s@@QAEAAU0@ABU0@@Z 1004d900 f i GameEdit.obj
 0001:0004c950       ??0idMapEntity@@QAE@XZ     1004d950 f i GameEdit.obj
 0001:0004caa0       ?Update@idDragEntity@@QAEXPAVidPlayer@@@Z 1004daa0 f   GameEdit.obj
 0001:0004d570       ?AddSelectedEntity@idEditEntities@@QAEXPAVidEntity@@@Z 1004e570 f   GameEdit.obj
 0001:0004d6c0       ?AddSelectedEntity@idGameEdit@@UAEXPAVidEntity@@@Z 1004e6c0 f   GameEdit.obj
 0001:0004d6e0       ?MapAddEntity@idGameEdit@@UBEXPBVidDict@@@Z 1004e6e0 f   GameEdit.obj
 0001:0004d760       ??0idEditEntities@@QAE@XZ  1004e760 f   GameEdit.obj
 0001:0004d7f0       ?SelectEntity@idEditEntities@@QAE_NABVidVec3@@0PBVidEntity@@@Z 1004e7f0 f   GameEdit.obj
 0001:0004d950       ?DisplayEntities@idEditEntities@@QAEXXZ 1004e950 f   GameEdit.obj
 0001:0004fb70       ?GetType@idGrabber@@UBEPAVidTypeInfo@@XZ 10050b70 f   Grabber.obj
 0001:0004fb80       ?SetDragDistance@idGrabber@@QAEXM@Z 10050b80 f   Grabber.obj
 0001:0004fb90       ?grabbableAI@idGrabber@@AAE_NPBD@Z 10050b90 f   Grabber.obj
 0001:0004fc10       ??0idGrabber@@QAE@XZ       10050c10 f   Grabber.obj
 0001:0004fcc0       ?Save@idGrabber@@QBEXPAVidSaveGame@@@Z 10050cc0 f   Grabber.obj
 0001:0004fdd0       ?StopDrag@idGrabber@@AAEX_N@Z 10050dd0 f   Grabber.obj
 0001:00050290       ?UpdateBeams@idGrabber@@AAEXXZ 10051290 f   Grabber.obj
 0001:00050470       ?ApplyShake@idGrabber@@AAEXXZ 10051470 f   Grabber.obj
 0001:000505f0       ?CreateInstance@idGrabber@@SAPAVidClass@@XZ 100515f0 f   Grabber.obj
 0001:00050710       ??1idGrabber@@UAE@XZ       10051710 f   Grabber.obj
 0001:000507a0       ?StartDrag@idGrabber@@AAEXPAVidEntity@@H@Z 100517a0 f   Grabber.obj
 0001:00050ca0       ??_GidGrabber@@UAEPAXI@Z   10051ca0 f i Grabber.obj
 0001:00050ca0       ??_EidGrabber@@UAEPAXI@Z   10051ca0 f i Grabber.obj
 0001:00050cc0       ?Initialize@idGrabber@@QAEXXZ 10051cc0 f   Grabber.obj
 0001:00050f90       ?Update@idGrabber@@QAEHPAVidPlayer@@_N@Z 10051f90 f   Grabber.obj
 0001:00051ba0       ?Restore@idGrabber@@QAEXPAVidRestoreGame@@@Z 10052ba0 f   Grabber.obj
 0001:00051d20       ??1idIK@@UAE@XZ            10052d20 f   IK.obj
 0001:00051d30       ?Save@idIK@@QBEXPAVidSaveGame@@@Z 10052d30 f   IK.obj
 0001:00051db0       ?ClearJointMods@idIK@@UAEXXZ 10052db0 f   IK.obj
 0001:00051dc0       ?Save@idIK_Walk@@QBEXPAVidSaveGame@@@Z 10052dc0 f   IK.obj
 0001:00052080       ?ClearJointMods@idIK_Walk@@UAEXXZ 10053080 f   IK.obj
 0001:00052120       ?EnableAll@idIK_Walk@@QAEXXZ 10053120 f   IK.obj
 0001:00052140       ?DisableAll@idIK_Walk@@QAEXXZ 10053140 f   IK.obj
 0001:00052150       ?EnableLeg@idIK_Walk@@QAEXH@Z 10053150 f   IK.obj
 0001:00052170       ?DisableLeg@idIK_Walk@@QAEXH@Z 10053170 f   IK.obj
 0001:00052190       ??_EidIK@@UAEPAXI@Z        10053190 f i IK.obj
 0001:00052190       ??_GidIK@@UAEPAXI@Z        10053190 f i IK.obj
 0001:000521b0       ?Restore@idIK@@QAEXPAVidRestoreGame@@@Z 100531b0 f   IK.obj
 0001:00052300       ?IsInitialized@idIK@@QBE_NXZ 10053300 f   IK.obj
 0001:00052320       ?Init@idIK@@UAE_NPAVidEntity@@PBDABVidVec3@@@Z 10053320 f   IK.obj
 0001:00052460       ?SolveTwoBones@idIK@@QAE_NABVidVec3@@00MMAAV2@@Z 10053460 f   IK.obj
 0001:00052850       ?GetBoneAxis@idIK@@QAEMABVidVec3@@00AAVidMat3@@@Z 10053850 f   IK.obj
 0001:00052aa0       ??1idIK_Walk@@UAE@XZ       10053aa0 f   IK.obj
 0001:00052b00       ?Restore@idIK_Walk@@QAEXPAVidRestoreGame@@@Z 10053b00 f   IK.obj
 0001:00052d90       ??0idIK_Walk@@QAE@XZ       10053d90 f   IK.obj
 0001:00052fe0       ??_GidIK_Walk@@UAEPAXI@Z   10053fe0 f i IK.obj
 0001:00052fe0       ??_EidIK_Walk@@UAEPAXI@Z   10053fe0 f i IK.obj
 0001:00053060       ?Init@idIK_Walk@@UAE_NPAVidEntity@@PBDABVidVec3@@@Z 10054060 f   IK.obj
 0001:00053cc0       ?Evaluate@idIK_Walk@@UAEXXZ 10054cc0 f   IK.obj
 0001:00055ab0       ?GetType@idItem@@UBEPAVidTypeInfo@@XZ 10056ab0 f   Item.obj
 0001:00055ac0       ??1idItem@@UAE@XZ          10056ac0 f   Item.obj
 0001:00055b30       ?Save@idItem@@QBEXPAVidSaveGame@@@Z 10056b30 f   Item.obj
 0001:00055bc0       ?Restore@idItem@@QAEXPAVidRestoreGame@@@Z 10056bc0 f   Item.obj
 0001:00055c60       ?ClientPredictionThink@idItem@@UAEXXZ 10056c60 f   Item.obj
 0001:00055c60       ?ClientPredictionThink@idBrittleFracture@@UAEXXZ 10056c60 f   BrittleFracture.obj
 0001:00055c80       ?WriteToSnapshot@idItem@@UBEXAAVidBitMsgDelta@@@Z 10056c80 f   Item.obj
 0001:00055ca0       ?ReadFromSnapshot@idItem@@UAEXABVidBitMsgDelta@@@Z 10056ca0 f   Item.obj
 0001:00055cd0       ?Event_Touch@idItem@@AAEXPAVidEntity@@PAUtrace_s@@@Z 10056cd0 f   Item.obj
 0001:00055d10       ?Event_Respawn@idItem@@AAEXXZ 10056d10 f   Item.obj
 0001:00055da0       ?GetType@idItemPowerup@@UBEPAVidTypeInfo@@XZ 10056da0 f   Item.obj
 0001:00055db0       ?Save@idItemPowerup@@QBEXPAVidSaveGame@@@Z 10056db0 f   Item.obj
 0001:00055de0       ?Restore@idItemPowerup@@QAEXPAVidRestoreGame@@@Z 10056de0 f   Item.obj
 0001:00055e10       ?GiveToPlayer@idItemPowerup@@UAE_NPAVidPlayer@@@Z 10056e10 f   Item.obj
 0001:00055e50       ?GetType@idItemTeam@@UBEPAVidTypeInfo@@XZ 10056e50 f   Item.obj
 0001:00055e60       ?PrivateReturn@idItemTeam@@AAEXXZ 10056e60 f   Item.obj
 0001:00055f80       ?FreeLightDef@idItemTeam@@UAEXXZ 10056f80 f   Item.obj
 0001:00055fb0       ?UpdateGuis@idItemTeam@@AAEXXZ 10056fb0 f   Item.obj
 0001:00056090       ?GetType@idObjective@@UBEPAVidTypeInfo@@XZ 10057090 f   Item.obj
 0001:000560a0       ?Save@idObjective@@QBEXPAVidSaveGame@@@Z 100570a0 f   Item.obj
 0001:000560c0       ?Restore@idObjective@@QAEXPAVidRestoreGame@@@Z 100570c0 f   Item.obj
 0001:000560e0       ?Spawn@idObjective@@QAEXXZ 100570e0 f   Item.obj
 0001:00056120       ?Event_GetPlayerPos@idObjective@@AAEXXZ 10057120 f   Item.obj
 0001:00056190       ?Event_HideObjective@idObjective@@AAEXPAVidEntity@@@Z 10057190 f   Item.obj
 0001:000562d0       ?GetType@idVideoCDItem@@UBEPAVidTypeInfo@@XZ 100572d0 f   Item.obj
 0001:000562e0       ?GetType@idPDAItem@@UBEPAVidTypeInfo@@XZ 100572e0 f   Item.obj
 0001:000562f0       ?GetType@idMoveableItem@@UBEPAVidTypeInfo@@XZ 100572f0 f   Item.obj
 0001:00056300       ?Save@idMoveableItem@@QBEXPAVidSaveGame@@@Z 10057300 f   Item.obj
 0001:00056360       ?Restore@idMoveableItem@@QAEXPAVidRestoreGame@@@Z 10057360 f   Item.obj
 0001:000563c0       ?Think@idMoveableItem@@UAEXXZ 100573c0 f   Item.obj
 0001:000564e0       ?Collide@idMoveableItem@@UAE_NABUtrace_s@@ABVidVec3@@@Z 100574e0 f   Item.obj
 0001:00056630       ?WriteToSnapshot@idMoveableItem@@UBEXAAVidBitMsgDelta@@@Z 10057630 f   Item.obj
 0001:00056650       ?GetType@idMoveablePDAItem@@UBEPAVidTypeInfo@@XZ 10057650 f   Item.obj
 0001:00056660       ?GetType@idItemRemover@@UBEPAVidTypeInfo@@XZ 10057660 f   Item.obj
 0001:00056670       ?GetType@idObjectiveComplete@@UBEPAVidTypeInfo@@XZ 10057670 f   Item.obj
 0001:00056680       ?Save@idTarget_Tip@@QBEXPAVidSaveGame@@@Z 10057680 f   Target.obj
 0001:00056680       ?Save@idObjectiveComplete@@QBEXPAVidSaveGame@@@Z 10057680 f   Item.obj
 0001:000566a0       ?Event_GetPlayerPos@idObjectiveComplete@@AAEXXZ 100576a0 f   Item.obj
 0001:00056710       ?Event_HideObjective@idObjectiveComplete@@AAEXPAVidEntity@@@Z 10057710 f   Item.obj
 0001:00056870       ??0idItem@@QAE@XZ          10057870 f   Item.obj
 0001:000568e0       ?UpdateRenderEntity@idItem@@ABE_NPAUrenderEntity_s@@PBUrenderView_s@@@Z 100578e0 f   Item.obj
 0001:00056b70       ?ModelCallback@idItem@@CA_NPAUrenderEntity_s@@PBUrenderView_s@@@Z 10057b70 f   Item.obj
 0001:00056bb0       ?Think@idItem@@UAEXXZ      10057bb0 f   Item.obj
 0001:00056c90       ?Spawn@idItem@@QAEXXZ      10057c90 f   Item.obj
 0001:00057030       ?GiveToPlayer@idItem@@UAE_NPAVidPlayer@@@Z 10058030 f   Item.obj
 0001:00057090       ?Pickup@idItem@@UAE_NPAVidPlayer@@@Z 10058090 f   Item.obj
 0001:000572d0       ?Event_Trigger@idItem@@AAEXPAVidEntity@@@Z 100582d0 f   Item.obj
 0001:00057350       ?Event_RespawnFx@idItem@@AAEXXZ 10058350 f   Item.obj
 0001:000573a0       ?Spawn@idItemPowerup@@QAEXXZ 100583a0 f   Item.obj
 0001:00057420       ?LoadScript@idItemTeam@@AAEPAVfunction_t@@PAD@Z 10058420 f   Item.obj
 0001:00057500       ?Pickup@idItemTeam@@UAE_NPAVidPlayer@@@Z 10058500 f   Item.obj
 0001:00057600       ?Event_TakeFlag@idItemTeam@@AAEXPAVidPlayer@@@Z 10058600 f   Item.obj
 0001:00057860       ?Event_DropFlag@idItemTeam@@AAEX_N@Z 10058860 f   Item.obj
 0001:00057b80       ?Event_FlagReturn@idItemTeam@@AAEXPAVidPlayer@@@Z 10058b80 f   Item.obj
 0001:00057cf0       ?Event_FlagCapture@idItemTeam@@AAEXXZ 10058cf0 f   Item.obj
 0001:00057e90       ?WriteToSnapshot@idItemTeam@@UBEXAAVidBitMsgDelta@@@Z 10058e90 f   Item.obj
 0001:00057ee0       ?Present@idItemTeam@@UAEXXZ 10058ee0 f   Item.obj
 0001:00057f40       ??_EidVideoCDItem@@UAEPAXI@Z 10058f40 f i Item.obj
 0001:00057f40       ??_EidItemPowerup@@UAEPAXI@Z 10058f40 f i Item.obj
 0001:00057f40       ??_GidPDAItem@@UAEPAXI@Z   10058f40 f i Item.obj
 0001:00057f40       ??_GidItem@@UAEPAXI@Z      10058f40 f i Item.obj
 0001:00057f40       ??_GidVideoCDItem@@UAEPAXI@Z 10058f40 f i Item.obj
 0001:00057f40       ??_GidObjective@@UAEPAXI@Z 10058f40 f i Item.obj
 0001:00057f40       ??_GidItemPowerup@@UAEPAXI@Z 10058f40 f i Item.obj
 0001:00057f40       ??_EidItem@@UAEPAXI@Z      10058f40 f i Item.obj
 0001:00057f40       ??_EidPDAItem@@UAEPAXI@Z   10058f40 f i Item.obj
 0001:00057f40       ??_EidObjective@@UAEPAXI@Z 10058f40 f i Item.obj
 0001:00057fc0       ?GiveToPlayer@idVideoCDItem@@UAE_NPAVidPlayer@@@Z 10058fc0 f   Item.obj
 0001:000580a0       ??1idMoveableItem@@UAE@XZ  100590a0 f   Item.obj
 0001:00058140       ?Pickup@idMoveableItem@@UAE_NPAVidPlayer@@@Z 10059140 f   Item.obj
 0001:00058170       ?ReadFromSnapshot@idMoveableItem@@UAEXABVidBitMsgDelta@@@Z 10059170 f   Item.obj
 0001:000581a0       ?Gib@idMoveableItem@@IAEXABVidVec3@@PBD@Z 100591a0 f   Item.obj
 0001:00058260       ?Event_Gib@idMoveableItem@@IAEXPBD@Z 10059260 f   Item.obj
 0001:00058280       ?GiveToPlayer@idPDAItem@@UAE_NPAVidPlayer@@@Z 10059280 f   Item.obj
 0001:00058280       ?GiveToPlayer@idMoveablePDAItem@@UAE_NPAVidPlayer@@@Z 10059280 f   Item.obj
 0001:000582c0       ?CreateInstance@idItemRemover@@SAPAVidClass@@XZ 100592c0 f   Item.obj
 0001:00058370       ?Event_Trigger@idItemRemover@@AAEXPAVidEntity@@@Z 10059370 f   Item.obj
 0001:000583d0       ?CreateInstance@idObjectiveComplete@@SAPAVidClass@@XZ 100593d0 f   Item.obj
 0001:00058490       ?Spawn@idObjectiveComplete@@QAEXXZ 10059490 f   Item.obj
 0001:000584c0       ?Event_Trigger@idObjectiveComplete@@AAEXPAVidEntity@@@Z 100594c0 f   Item.obj
 0001:00058620       ?CreateInstance@idItem@@SAPAVidClass@@XZ 10059620 f   Item.obj
 0001:000586c0       ?Present@idItem@@UAEXXZ    100596c0 f   Item.obj
 0001:00058750       ?GetAttributes@idItem@@QAEXAAVidDict@@@Z 10059750 f   Item.obj
 0001:00058840       ?ClientReceiveEvent@idItem@@UAE_NHHABVidBitMsg@@@Z 10059840 f   Item.obj
 0001:000588d0       ?CreateInstance@idItemPowerup@@SAPAVidClass@@XZ 100598d0 f   Item.obj
 0001:00058980       ?ClientReceiveEvent@idItemTeam@@UAE_NHHABVidBitMsg@@@Z 10059980 f   Item.obj
 0001:00058a80       ?Drop@idItemTeam@@QAEX_N@Z 10059a80 f   Item.obj
 0001:00058a90       ?Return@idItemTeam@@QAEXPAVidPlayer@@@Z 10059a90 f   Item.obj
 0001:00058ab0       ?ReadFromSnapshot@idItemTeam@@UAEXABVidBitMsgDelta@@@Z 10059ab0 f   Item.obj
 0001:00058b40       ?CreateInstance@idObjective@@SAPAVidClass@@XZ 10059b40 f   Item.obj
 0001:00058c00       ?Event_CamShot@idObjective@@AAEXXZ 10059c00 f   Item.obj
 0001:00058fa0       ?Event_Trigger@idObjective@@AAEXPAVidEntity@@@Z 10059fa0 f   Item.obj
 0001:00059330       ?CreateInstance@idVideoCDItem@@SAPAVidClass@@XZ 1005a330 f   Item.obj
 0001:000593e0       ?CreateInstance@idPDAItem@@SAPAVidClass@@XZ 1005a3e0 f   Item.obj
 0001:00059490       ?CreateInstance@idMoveableItem@@SAPAVidClass@@XZ 1005a490 f   Item.obj
 0001:00059560       ?Spawn@idMoveableItem@@QAEXXZ 1005a560 f   Item.obj
 0001:00059cc0       ?CreateInstance@idMoveablePDAItem@@SAPAVidClass@@XZ 1005acc0 f   Item.obj
 0001:00059da0       ??_EidMoveableItem@@UAEPAXI@Z 1005ada0 f i Item.obj
 0001:00059da0       ??_GidMoveablePDAItem@@UAEPAXI@Z 1005ada0 f i Item.obj
 0001:00059da0       ??_GidMoveableItem@@UAEPAXI@Z 1005ada0 f i Item.obj
 0001:00059da0       ??_EidMoveablePDAItem@@UAEPAXI@Z 1005ada0 f i Item.obj
 0001:00059dc0       ?Event_DropToFloor@idItem@@AAEXXZ 1005adc0 f   Item.obj
 0001:00059e80       ?CreateInstance@idItemTeam@@SAPAVidClass@@XZ 1005ae80 f   Item.obj
 0001:00059fc0       ??_EidItemTeam@@UAEPAXI@Z  1005afc0 f i Item.obj
 0001:00059fc0       ??_GidItemTeam@@UAEPAXI@Z  1005afc0 f i Item.obj
 0001:0005a050       ?Spawn@idItemTeam@@QAEXXZ  1005b050 f   Item.obj
 0001:0005a2b0       ?DropItem@idMoveableItem@@SAPAVidEntity@@PBDABVidVec3@@ABVidMat3@@1HH@Z 1005b2b0 f   Item.obj
 0001:0005a530       ?DropItems@idMoveableItem@@SAXPAVidAnimatedEntity@@PBDPAV?$idList@PAVidEntity@@@@@Z 1005b530 f   Item.obj
 0001:0005ac60       ?SpawnNugget@idItemTeam@@AAEXVidVec3@@@Z 1005bc60 f   Item.obj
 0001:0005ae80       ?Think@idItemTeam@@UAEXXZ  1005be80 f   Item.obj
 0001:0005af90       ?GetType@idLight@@UBEPAVidTypeInfo@@XZ 1005bf90 f   Light.obj
 0001:0005afa0       ?UpdateChangeableSpawnArgs@idLight@@UAEXPBVidDict@@@Z 1005bfa0 f   Light.obj
 0001:0005b030       ?Fade@idLight@@QAEXABVidVec4@@M@Z 1005c030 f   Light.obj
 0001:0005b0b0       ?PresentLightDefChange@idLight@@AAEXXZ 1005c0b0 f   Light.obj
 0001:0005b0f0       ?PresentModelDefChange@idLight@@AAEXXZ 1005c0f0 f   Light.obj
 0001:0005b140       ?FreeLightDef@idLight@@UAEXXZ 1005c140 f   Light.obj
 0001:0005b170       ?Event_GetLightParm@idLight@@AAEXH@Z 1005c170 f   Light.obj
 0001:0005b1b0       ?Event_FadeOut@idLight@@AAEXM@Z 1005c1b0 f   Light.obj
 0001:0005b1b0       ?FadeOut@idLight@@QAEXM@Z  1005c1b0 f   Light.obj
 0001:0005b1d0       ?ClientPredictionThink@idBarrel@@UAEXXZ 1005c1d0 f   Moveable.obj
 0001:0005b1d0       ?ClientPredictionThink@idLight@@UAEXXZ 1005c1d0 f   Light.obj
 0001:0005b1e0       ?ParseSpawnArgsToRenderLight@idGameEdit@@UAEXPBVidDict@@PAUrenderLight_s@@@Z 1005c1e0 f   Light.obj
 0001:0005bd60       ?Save@idLight@@QBEXPAVidSaveGame@@@Z 1005cd60 f   Light.obj
 0001:0005be70       ?SetLightLevel@idLight@@QAEXXZ 1005ce70 f   Light.obj
 0001:0005bf70       ?GetColor@idLight@@UBEXAAVidVec3@@@Z 1005cf70 f   Light.obj
 0001:0005bfa0       ?GetColor@idLight@@UBEXAAVidVec4@@@Z 1005cfa0 f   Light.obj
 0001:0005bfd0       ?SetColor@idLight@@UAEXMMM@Z 1005cfd0 f   Light.obj
 0001:0005c000       ?SetColor@idLight@@UAEXABVidVec4@@@Z 1005d000 f   Light.obj
 0001:0005c040       ?SetLightParm@idLight@@QAEXHM@Z 1005d040 f   Light.obj
 0001:0005c0b0       ?SetLightParms@idLight@@QAEXMMMM@Z 1005d0b0 f   Light.obj
 0001:0005c180       ?On@idLight@@QAEXXZ        1005d180 f   Light.obj
 0001:0005c1f0       ?Event_Off@idLight@@AAEXXZ 1005d1f0 f   Light.obj
 0001:0005c1f0       ?Off@idLight@@QAEXXZ       1005d1f0 f   Light.obj
 0001:0005c240       ?FadeIn@idLight@@QAEXM@Z   1005d240 f   Light.obj
 0001:0005c2b0       ?BecomeBroken@idLight@@QAEXPAVidEntity@@@Z 1005d2b0 f   Light.obj
 0001:0005c600       ?Present@idLight@@UAEXXZ   1005d600 f   Light.obj
 0001:0005c930       ?Think@idLight@@UAEXXZ     1005d930 f   Light.obj
 0001:0005ca00       ?GetPhysicsToSoundTransform@idLight@@UAE_NAAVidVec3@@AAVidMat3@@@Z 1005da00 f   Light.obj
 0001:0005cbf0       ?ShowEditingDialog@idLight@@UAEXXZ 1005dbf0 f   Light.obj
 0001:0005cc20       ?SetShader@idLight@@QAEXPBD@Z 1005dc20 f   Light.obj
 0001:0005cc20       ?Event_SetShader@idLight@@AAEXPBD@Z 1005dc20 f   Light.obj
 0001:0005cc80       ?Event_SetLightParm@idLight@@AAEXHM@Z 1005dc80 f   Light.obj
 0001:0005cca0       ?Event_SetLightParms@idLight@@AAEXMMMM@Z 1005dca0 f   Light.obj
 0001:0005ccd0       ?Event_SetRadiusXYZ@idLight@@AAEXMMM@Z 1005dcd0 f   Light.obj
 0001:0005cd30       ?Event_SetRadius@idLight@@AAEXM@Z 1005dd30 f   Light.obj
 0001:0005cd90       ?Event_Hide@idLight@@AAEXXZ 1005dd90 f   Light.obj
 0001:0005ce30       ?Event_Show@idLight@@AAEXXZ 1005de30 f   Light.obj
 0001:0005ce90       ?Event_On@idLight@@AAEXXZ  1005de90 f   Light.obj
 0001:0005cea0       ?Event_ToggleOnOff@idLight@@AAEXPAVidEntity@@@Z 1005dea0 f   Light.obj
 0001:0005cf10       ?Event_SetSoundHandles@idLight@@AAEXXZ 1005df10 f   Light.obj
 0001:0005cfb0       ?Event_FadeIn@idLight@@AAEXM@Z 1005dfb0 f   Light.obj
 0001:0005cfc0       ?WriteToSnapshot@idLight@@UBEXAAVidBitMsgDelta@@@Z 1005dfc0 f   Light.obj
 0001:0005d130       ?ReadFromSnapshot@idLight@@UAEXABVidBitMsgDelta@@@Z 1005e130 f   Light.obj
 0001:0005d310       ?ClientReceiveEvent@idLight@@UAE_NHHABVidBitMsg@@@Z 1005e310 f   Light.obj
 0001:0005d330       ??0idLight@@QAE@XZ         1005e330 f   Light.obj
 0001:0005d4a0       ??_GidLight@@UAEPAXI@Z     1005e4a0 f i Light.obj
 0001:0005d4a0       ??_EidLight@@UAEPAXI@Z     1005e4a0 f i Light.obj
 0001:0005d530       ?Restore@idLight@@QAEXPAVidRestoreGame@@@Z 1005e530 f   Light.obj
 0001:0005d6b0       ?Spawn@idLight@@QAEXXZ     1005e6b0 f   Light.obj
 0001:0005df00       ?Killed@idLight@@UAEXPAVidEntity@@0HABVidVec3@@H@Z 1005ef00 f   Light.obj
 0001:0005df10       ?SaveState@idLight@@QAEXPAVidDict@@@Z 1005ef10 f   Light.obj
 0001:0005dfa0       ?CreateInstance@idLight@@SAPAVidClass@@XZ 1005efa0 f   Light.obj
 0001:0005e040       ?GetType@idSpawnableEntity@@UBEPAVidTypeInfo@@XZ 1005f040 f   Misc.obj
 0001:0005e050       ?GetType@idPlayerStart@@UBEPAVidTypeInfo@@XZ 1005f050 f   Misc.obj
 0001:0005e060       ?Spawn@idPlayerStart@@QAEXXZ 1005f060 f   Misc.obj
 0001:0005e070       ?Save@idPlayerStart@@QBEXPAVidSaveGame@@@Z 1005f070 f   Misc.obj
 0001:0005e090       ?Restore@idPlayerStart@@QAEXPAVidRestoreGame@@@Z 1005f090 f   Misc.obj
 0001:0005e0b0       ?GetType@idActivator@@UBEPAVidTypeInfo@@XZ 1005f0b0 f   Misc.obj
 0001:0005e0c0       ?Restore@idActivator@@QAEXPAVidRestoreGame@@@Z 1005f0c0 f   Misc.obj
 0001:0005e0f0       ?Think@idActivator@@UAEXXZ 1005f0f0 f   Misc.obj
 0001:0005e130       ?Event_Activate@idActivator@@AAEXPAVidEntity@@@Z 1005f130 f   Misc.obj
 0001:0005e130       ?Event_Trigger@idTrigger_Touch@@AAEXPAVidEntity@@@Z 1005f130 f   Trigger.obj
 0001:0005e150       ?GetType@idPathCorner@@UBEPAVidTypeInfo@@XZ 1005f150 f   Misc.obj
 0001:0005e160       ?GetType@idDamagable@@UBEPAVidTypeInfo@@XZ 1005f160 f   Misc.obj
 0001:0005e170       ?Restore@idDamagable@@QAEXPAVidRestoreGame@@@Z 1005f170 f   Misc.obj
 0001:0005e170       ?Restore@idBeam@@QAEXPAVidRestoreGame@@@Z 1005f170 f   Misc.obj
 0001:0005e1a0       ?Hide@idDamagable@@UAEXXZ  1005f1a0 f   Misc.obj
 0001:0005e1a0       ?Hide@idStaticEntity@@UAEXXZ 1005f1a0 f   Misc.obj
 0001:0005e1c0       ?Show@idDamagable@@UAEXXZ  1005f1c0 f   Misc.obj
 0001:0005e1e0       ?GetType@idExplodable@@UBEPAVidTypeInfo@@XZ 1005f1e0 f   Misc.obj
 0001:0005e1f0       ?GetType@idSpring@@UBEPAVidTypeInfo@@XZ 1005f1f0 f   Misc.obj
 0001:0005e200       ?Spawn@idSpring@@QAEXXZ    1005f200 f   Misc.obj
 0001:0005e300       ?GetType@idForceField@@UBEPAVidTypeInfo@@XZ 1005f300 f   Misc.obj
 0001:0005e310       ?Think@idCursor3D@@UAEXXZ  1005f310 f   GameEdit.obj
 0001:0005e310       ?Think@idForceField@@UAEXXZ 1005f310 f   Misc.obj
 0001:0005e340       ?Save@idForceField@@QBEXPAVidSaveGame@@@Z 1005f340 f   Misc.obj
 0001:0005e360       ?Restore@idForceField@@QAEXPAVidRestoreGame@@@Z 1005f360 f   Misc.obj
 0001:0005e380       ?Event_Toggle@idForceField@@AAEXXZ 1005f380 f   Misc.obj
 0001:0005e3a0       ?Event_Activate@idForceField@@AAEXPAVidEntity@@@Z 1005f3a0 f   Misc.obj
 0001:0005e3f0       ?GetType@idAnimated@@UBEPAVidTypeInfo@@XZ 1005f3f0 f   Misc.obj
 0001:0005e400       ?Event_GetAnimationLength@idAnimated@@AAEXXZ 1005f400 f   Misc.obj
 0001:0005e440       ?GetType@idStaticEntity@@UBEPAVidTypeInfo@@XZ 1005f440 f   Misc.obj
 0001:0005e450       ??0idStaticEntity@@QAE@XZ  1005f450 f   Misc.obj
 0001:0005e4c0       ?Save@idStaticEntity@@QBEXPAVidSaveGame@@@Z 1005f4c0 f   Misc.obj
 0001:0005e540       ?Restore@idStaticEntity@@QAEXPAVidRestoreGame@@@Z 1005f540 f   Misc.obj
 0001:0005e5b0       ?ShowEditingDialog@idStaticEntity@@UAEXXZ 1005f5b0 f   Misc.obj
 0001:0005e5d0       ?Think@idStaticEntity@@UAEXXZ 1005f5d0 f   Misc.obj
 0001:0005e710       ?Fade@idStaticEntity@@QAEXABVidVec4@@M@Z 1005f710 f   Misc.obj
 0001:0005e790       ?WriteToSnapshot@idStaticEntity@@UBEXAAVidBitMsgDelta@@@Z 1005f790 f   Misc.obj
 0001:0005e7e0       ?GetType@idFuncEmitter@@UBEPAVidTypeInfo@@XZ 1005f7e0 f   Misc.obj
 0001:0005e7f0       ?Save@idFuncEmitter@@QBEXPAVidSaveGame@@@Z 1005f7f0 f   Misc.obj
 0001:0005e810       ?Restore@idFuncEmitter@@QAEXPAVidRestoreGame@@@Z 1005f810 f   Misc.obj
 0001:0005e830       ?GetType@idFuncSplat@@UBEPAVidTypeInfo@@XZ 1005f830 f   Misc.obj
 0001:0005e840       ?GetType@idFuncSmoke@@UBEPAVidTypeInfo@@XZ 1005f840 f   Misc.obj
 0001:0005e850       ?Save@idFuncSmoke@@QBEXPAVidSaveGame@@@Z 1005f850 f   Misc.obj
 0001:0005e890       ?Restore@idFuncSmoke@@QAEXPAVidRestoreGame@@@Z 1005f890 f   Misc.obj
 0001:0005e8d0       ?Event_Activate@idFuncSmoke@@QAEXPAVidEntity@@@Z 1005f8d0 f   Misc.obj
 0001:0005e910       ?Think@idFuncSmoke@@UAEXXZ 1005f910 f   Misc.obj
 0001:0005ea20       ?GetType@idTextEntity@@UBEPAVidTypeInfo@@XZ 1005fa20 f   Misc.obj
 0001:0005ea30       ?Restore@idTextEntity@@QAEXPAVidRestoreGame@@@Z 1005fa30 f   Misc.obj
 0001:0005ea60       ?GetType@idVacuumSeparatorEntity@@UBEPAVidTypeInfo@@XZ 1005fa60 f   Misc.obj
 0001:0005ea70       ?Save@idVacuumSeparatorEntity@@QBEXPAVidSaveGame@@@Z 1005fa70 f   Misc.obj
 0001:0005eab0       ?Restore@idVacuumSeparatorEntity@@QAEXPAVidRestoreGame@@@Z 1005fab0 f   Misc.obj
 0001:0005eaf0       ?Event_Activate@idVacuumSeparatorEntity@@QAEXPAVidEntity@@@Z 1005faf0 f   Misc.obj
 0001:0005eb10       ?GetType@idLocationSeparatorEntity@@UBEPAVidTypeInfo@@XZ 1005fb10 f   Misc.obj
 0001:0005eb20       ?GetType@idVacuumEntity@@UBEPAVidTypeInfo@@XZ 1005fb20 f   Misc.obj
 0001:0005eb30       ?GetType@idLocationEntity@@UBEPAVidTypeInfo@@XZ 1005fb30 f   Misc.obj
 0001:0005eb40       ?GetType@idBeam@@UBEPAVidTypeInfo@@XZ 1005fb40 f   Misc.obj
 0001:0005eb50       ?Spawn@idBeam@@QAEXXZ      1005fb50 f   Misc.obj
 0001:0005ebb0       ?SetBeamTarget@idBeam@@QAEXABVidVec3@@@Z 1005fbb0 f   Misc.obj
 0001:0005ec10       ?Event_Activate@idBeam@@AAEXPAVidEntity@@@Z 1005fc10 f   Misc.obj
 0001:0005ec40       ?GetType@idLiquid@@UBEPAVidTypeInfo@@XZ 1005fc40 f   Misc.obj
 0001:0005ec50       ?GetType@idShaking@@UBEPAVidTypeInfo@@XZ 1005fc50 f   Misc.obj
 0001:0005ec60       ?Save@idShaking@@QBEXPAVidSaveGame@@@Z 1005fc60 f   Misc.obj
 0001:0005ec90       ?Restore@idShaking@@QAEXPAVidRestoreGame@@@Z 1005fc90 f   Misc.obj
 0001:0005ecd0       ?GetType@idEarthQuake@@UBEPAVidTypeInfo@@XZ 1005fcd0 f   Misc.obj
 0001:0005ece0       ?Save@idEarthQuake@@QBEXPAVidSaveGame@@@Z 1005fce0 f   Misc.obj
 0001:0005ed70       ?Restore@idEarthQuake@@QAEXPAVidRestoreGame@@@Z 1005fd70 f   Misc.obj
 0001:0005ee10       ?Think@idEarthQuake@@UAEXXZ 1005fe10 f   Misc.obj
 0001:0005eef0       ?GetType@idFuncPortal@@UBEPAVidTypeInfo@@XZ 1005fef0 f   Misc.obj
 0001:0005ef00       ?Save@idFuncPortal@@QBEXPAVidSaveGame@@@Z 1005ff00 f   Misc.obj
 0001:0005ef30       ?Restore@idFuncPortal@@QAEXPAVidRestoreGame@@@Z 1005ff30 f   Misc.obj
 0001:0005ef80       ?Event_Activate@idFuncPortal@@AAEXPAVidEntity@@@Z 1005ff80 f   Misc.obj
 0001:0005efc0       ?GetType@idFuncAASPortal@@UBEPAVidTypeInfo@@XZ 1005ffc0 f   Misc.obj
 0001:0005efe0       ?Restore@idFuncAASPortal@@QAEXPAVidRestoreGame@@@Z 1005ffe0 f   Misc.obj
 0001:0005f020       ?Event_Activate@idFuncAASPortal@@AAEXPAVidEntity@@@Z 10060020 f   Misc.obj
 0001:0005f060       ?GetType@idFuncAASObstacle@@UBEPAVidTypeInfo@@XZ 10060060 f   Misc.obj
 0001:0005f070       ?Save@idActivator@@QBEXPAVidSaveGame@@@Z 10060070 f   Misc.obj
 0001:0005f070       ?Save@idFuncAASObstacle@@QBEXPAVidSaveGame@@@Z 10060070 f   Misc.obj
 0001:0005f070       ?Save@idFuncAASPortal@@QBEXPAVidSaveGame@@@Z 10060070 f   Misc.obj
 0001:0005f090       ?Restore@idFuncAASObstacle@@QAEXPAVidRestoreGame@@@Z 10060090 f   Misc.obj
 0001:0005f0d0       ?Event_Activate@idFuncAASObstacle@@AAEXPAVidEntity@@@Z 100600d0 f   Misc.obj
 0001:0005f110       ?GetType@idFuncRadioChatter@@UBEPAVidTypeInfo@@XZ 10060110 f   Misc.obj
 0001:0005f120       ?Save@idFuncRadioChatter@@QBEXPAVidSaveGame@@@Z 10060120 f   Misc.obj
 0001:0005f140       ?Restore@idFuncRadioChatter@@QAEXPAVidRestoreGame@@@Z 10060140 f   Misc.obj
 0001:0005f160       ?Event_ResetRadioHud@idFuncRadioChatter@@AAEXPAVidEntity@@@Z 10060160 f   Misc.obj
 0001:0005f1b0       ?GetType@idPhantomObjects@@UBEPAVidTypeInfo@@XZ 100601b0 f   Misc.obj
 0001:0005f1c0       ?GetType@idShockwave@@UBEPAVidTypeInfo@@XZ 100601c0 f   Misc.obj
 0001:0005f1d0       ??0idShockwave@@QAE@XZ     100601d0 f   Misc.obj
 0001:0005f230       ?Save@idShockwave@@QBEXPAVidSaveGame@@@Z 10060230 f   Misc.obj
 0001:0005f2e0       ?Restore@idShockwave@@QAEXPAVidRestoreGame@@@Z 100602e0 f   Misc.obj
 0001:0005f380       ?Event_Activate@idShockwave@@AAEXPAVidEntity@@@Z 10060380 f   Misc.obj
 0001:0005f3b0       ?GetType@idFuncMountedObject@@UBEPAVidTypeInfo@@XZ 100603b0 f   Misc.obj
 0001:0005f3c0       ?Think@idFuncMountedObject@@UAEXXZ 100603c0 f   Misc.obj
 0001:0005f3d0       ?Event_Touch@idFuncMountedObject@@AAEXPAVidEntity@@PAUtrace_s@@@Z 100603d0 f   Misc.obj
 0001:0005f3f0       ?Event_Activate@idFuncMountedObject@@AAEXPAVidEntity@@@Z 100603f0 f   Misc.obj
 0001:0005f4c0       ?GetType@idFuncMountedWeapon@@UBEPAVidTypeInfo@@XZ 100604c0 f   Misc.obj
 0001:0005f4d0       ?GetType@idPortalSky@@UBEPAVidTypeInfo@@XZ 100604d0 f   Misc.obj
 0001:0005f4e0       ?Event_PostSpawn@idPortalSky@@QAEXXZ 100604e0 f   Misc.obj
 0001:0005f4f0       ?Event_Activate@idPortalSky@@QAEXPAVidEntity@@@Z 100604f0 f   Misc.obj
 0001:0005f500       ?CreateInstance@idSpawnableEntity@@SAPAVidClass@@XZ 10060500 f   Misc.obj
 0001:0005f5b0       ?CreateInstance@idPlayerStart@@SAPAVidClass@@XZ 100605b0 f   Misc.obj
 0001:0005f660       ?TeleportPlayer@idPlayerStart@@AAEXPAVidPlayer@@@Z 10060660 f   Misc.obj
 0001:0005f9c0       ?CreateInstance@idActivator@@SAPAVidClass@@XZ 100609c0 f   Misc.obj
 0001:0005fa70       ?Spawn@idActivator@@QAEXXZ 10060a70 f   Misc.obj
 0001:0005fb70       ?CreateInstance@idPathCorner@@SAPAVidClass@@XZ 10060b70 f   Misc.obj
 0001:0005fc20       ?DrawDebugInfo@idPathCorner@@SAXXZ 10060c20 f   Misc.obj
 0001:0005fd00       ?RandomPath@idPathCorner@@SAPAV1@PBVidEntity@@0@Z 10060d00 f   Misc.obj
 0001:0005fdc0       ?CreateInstance@idDamagable@@SAPAVidClass@@XZ 10060dc0 f   Misc.obj
 0001:0005fe70       ?Event_RestoreDamagable@idDamagable@@AAEXXZ 10060e70 f   Misc.obj
 0001:0005feb0       ?CreateInstance@idExplodable@@SAPAVidClass@@XZ 10060eb0 f   Misc.obj
 0001:0005ff60       ?Event_Explode@idExplodable@@AAEXPAVidEntity@@@Z 10060f60 f   Misc.obj
 0001:00060020       ??_GidSpring@@UAEPAXI@Z    10061020 f i Misc.obj
 0001:00060020       ??_EidSpring@@UAEPAXI@Z    10061020 f i Misc.obj
 0001:00060090       ?Think@idSpring@@UAEXXZ    10061090 f   Misc.obj
 0001:000603c0       ?CreateInstance@idForceField@@SAPAVidClass@@XZ 100613c0 f   Misc.obj
 0001:00060480       ??_EidForceField@@UAEPAXI@Z 10061480 f i Misc.obj
 0001:00060480       ??_GidForceField@@UAEPAXI@Z 10061480 f i Misc.obj
 0001:000604f0       ?Spawn@idForceField@@QAEXXZ 100614f0 f   Misc.obj
 0001:00060750       ?Event_FindTargets@idForceField@@AAEXXZ 10061750 f   Misc.obj
 0001:00060810       ?Save@idAnimated@@QBEXPAVidSaveGame@@@Z 10061810 f   Misc.obj
 0001:00060880       ?Restore@idAnimated@@QAEXPAVidRestoreGame@@@Z 10061880 f   Misc.obj
 0001:000608f0       ?GetPhysicsToSoundTransform@idAnimated@@UAE_NAAVidVec3@@AAVidMat3@@@Z 100618f0 f   Misc.obj
 0001:00060970       ?StartRagdoll@idAnimated@@QAE_NXZ 10061970 f   Misc.obj
 0001:000609e0       ?PlayNextAnim@idAnimated@@AAEXXZ 100619e0 f   Misc.obj
 0001:00060c50       ?Event_StartRagdoll@idAnimated@@AAEXXZ 10061c50 f   Misc.obj
 0001:00060c60       ?Event_AnimDone@idAnimated@@AAEXH@Z 10061c60 f   Misc.obj
 0001:00060d80       ?Event_Activate@idAnimated@@AAEXPAVidEntity@@@Z 10061d80 f   Misc.obj
 0001:00060e10       ?Event_Start@idAnimated@@AAEXXZ 10061e10 f   Misc.obj
 0001:00060f70       ?Event_LaunchMissilesUpdate@idAnimated@@AAEXHHHH@Z 10061f70 f   Misc.obj
 0001:000613a0       ?Event_LaunchMissiles@idAnimated@@AAEXPBD000HH@Z 100623a0 f   Misc.obj
 0001:00061530       ?Event_SetAnimation@idAnimated@@AAEXPBD@Z 10062530 f   Misc.obj
 0001:00061590       ?CreateInstance@idStaticEntity@@SAPAVidClass@@XZ 10062590 f   Misc.obj
 0001:00061630       ?Spawn@idStaticEntity@@QAEXXZ 10062630 f   Misc.obj
 0001:000618d0       ?Show@idStaticEntity@@UAEXXZ 100628d0 f   Misc.obj
 0001:00061920       ?Event_Activate@idStaticEntity@@AAEXPAVidEntity@@@Z 10062920 f   Misc.obj
 0001:00061a30       ?ReadFromSnapshot@idStaticEntity@@UAEXABVidBitMsgDelta@@@Z 10062a30 f   Misc.obj
 0001:00061ab0       ?CreateInstance@idFuncEmitter@@SAPAVidClass@@XZ 10062ab0 f   Misc.obj
 0001:00061b60       ?Spawn@idFuncEmitter@@QAEXXZ 10062b60 f   Misc.obj
 0001:00061bc0       ?Event_Activate@idFuncEmitter@@QAEXPAVidEntity@@@Z 10062bc0 f   Misc.obj
 0001:00061c50       ?WriteToSnapshot@idFuncEmitter@@UBEXAAVidBitMsgDelta@@@Z 10062c50 f   Misc.obj
 0001:00061cb0       ?ReadFromSnapshot@idFuncEmitter@@UAEXABVidBitMsgDelta@@@Z 10062cb0 f   Misc.obj
 0001:00061d10       ?CreateInstance@idFuncSplat@@SAPAVidClass@@XZ 10062d10 f   Misc.obj
 0001:00061dc0       ?Event_Splat@idFuncSplat@@AAEXXZ 10062dc0 f   Misc.obj
 0001:00061f30       ?Event_Activate@idFuncSplat@@AAEXPAVidEntity@@@Z 10062f30 f   Misc.obj
 0001:00061f90       ?CreateInstance@idFuncSmoke@@SAPAVidClass@@XZ 10062f90 f   Misc.obj
 0001:00062050       ?Spawn@idFuncSmoke@@QAEXXZ 10063050 f   Misc.obj
 0001:00062110       ?Spawn@idTextEntity@@QAEXXZ 10063110 f   Misc.obj
 0001:000621c0       ?Save@idTextEntity@@QBEXPAVidSaveGame@@@Z 100631c0 f   Misc.obj
 0001:000621f0       ?Think@idTextEntity@@UAEXXZ 100631f0 f   Misc.obj
 0001:000623f0       ?CreateInstance@idVacuumSeparatorEntity@@SAPAVidClass@@XZ 100633f0 f   Misc.obj
 0001:000624a0       ?Spawn@idVacuumSeparatorEntity@@QAEXXZ 100634a0 f   Misc.obj
 0001:000625a0       ?CreateInstance@idLocationSeparatorEntity@@SAPAVidClass@@XZ 100635a0 f   Misc.obj
 0001:00062650       ?Spawn@idLocationSeparatorEntity@@QAEXXZ 10063650 f   Misc.obj
 0001:00062740       ?CreateInstance@idVacuumEntity@@SAPAVidClass@@XZ 10063740 f   Misc.obj
 0001:000627f0       ?Spawn@idVacuumEntity@@QAEXXZ 100637f0 f   Misc.obj
 0001:00062840       ?CreateInstance@idLocationEntity@@SAPAVidClass@@XZ 10063840 f   Misc.obj
 0001:000628f0       ?GetLocation@idLocationEntity@@QBEPBDXZ 100638f0 f   Misc.obj
 0001:00062910       ?Save@idBeam@@QBEXPAVidSaveGame@@@Z 10063910 f   Misc.obj
 0001:00062910       ?Save@idDamagable@@QBEXPAVidSaveGame@@@Z 10063910 f   Misc.obj
 0001:00062940       ?Think@idBeam@@UAEXXZ      10063940 f   Misc.obj
 0001:000629d0       ?Show@idBeam@@UAEXXZ       100639d0 f   Misc.obj
 0001:00062a20       ?Event_MatchTarget@idBeam@@AAEXXZ 10063a20 f   Misc.obj
 0001:00062b20       ?WriteToSnapshot@idBeam@@UBEXAAVidBitMsgDelta@@@Z 10063b20 f   Misc.obj
 0001:00062ba0       ?ReadFromSnapshot@idBeam@@UAEXABVidBitMsgDelta@@@Z 10063ba0 f   Misc.obj
 0001:00062c30       ?CreateInstance@idLiquid@@SAPAVidClass@@XZ 10063c30 f   Misc.obj
 0001:00062ce0       ?CreateInstance@idShaking@@SAPAVidClass@@XZ 10063ce0 f   Misc.obj
 0001:00062da0       ?BeginShaking@idShaking@@AAEXXZ 10063da0 f   Misc.obj
 0001:00062e90       ?Event_Activate@idShaking@@AAEXPAVidEntity@@@Z 10063e90 f   Misc.obj
 0001:00062f00       ?CreateInstance@idEarthQuake@@SAPAVidClass@@XZ 10063f00 f   Misc.obj
 0001:00062fd0       ?Spawn@idEarthQuake@@QAEXXZ 10063fd0 f   Misc.obj
 0001:00063140       ?Event_Activate@idEarthQuake@@AAEXPAVidEntity@@@Z 10064140 f   Misc.obj
 0001:000633d0       ?CreateInstance@idFuncPortal@@SAPAVidClass@@XZ 100643d0 f   Misc.obj
 0001:00063480       ?Spawn@idFuncPortal@@QAEXXZ 10064480 f   Misc.obj
 0001:00063570       ?CreateInstance@idFuncAASPortal@@SAPAVidClass@@XZ 10064570 f   Misc.obj
 0001:00063620       ?Spawn@idFuncAASPortal@@QAEXXZ 10064620 f   Misc.obj
 0001:00063680       ?CreateInstance@idFuncAASObstacle@@SAPAVidClass@@XZ 10064680 f   Misc.obj
 0001:00063730       ?Spawn@idFuncAASObstacle@@QAEXXZ 10064730 f   Misc.obj
 0001:00063790       ?CreateInstance@idFuncRadioChatter@@SAPAVidClass@@XZ 10064790 f   Misc.obj
 0001:00063840       ?Spawn@idFuncRadioChatter@@QAEXXZ 10064840 f   Misc.obj
 0001:00063890       ?Event_Activate@idFuncRadioChatter@@AAEXPAVidEntity@@@Z 10064890 f   Misc.obj
 0001:00063960       ?Save@idPhantomObjects@@QBEXPAVidSaveGame@@@Z 10064960 f   Misc.obj
 0001:00063a50       ?Spawn@idPhantomObjects@@QAEXXZ 10064a50 f   Misc.obj
 0001:00063c00       ?CreateInstance@idShockwave@@SAPAVidClass@@XZ 10064c00 f   Misc.obj
 0001:00063ca0       ??_GidShockwave@@UAEPAXI@Z 10064ca0 f i Misc.obj
 0001:00063ca0       ??_EidShockwave@@UAEPAXI@Z 10064ca0 f i Misc.obj
 0001:00063cd0       ?Spawn@idShockwave@@QAEXXZ 10064cd0 f   Misc.obj
 0001:00063dc0       ?Think@idShockwave@@UAEXXZ 10064dc0 f   Misc.obj
 0001:00064760       ?CreateInstance@idFuncMountedObject@@SAPAVidClass@@XZ 10065760 f   Misc.obj
 0001:00064820       ?Spawn@idFuncMountedObject@@QAEXXZ 10065820 f   Misc.obj
 0001:00064980       ?GetAngleRestrictions@idFuncMountedObject@@QAEXAAH00@Z 10065980 f   Misc.obj
 0001:00064b60       ?CreateInstance@idFuncMountedWeapon@@SAPAVidClass@@XZ 10065b60 f   Misc.obj
 0001:00064c50       ??_EidFuncMountedObject@@UAEPAXI@Z 10065c50 f i Misc.obj
 0001:00064c50       ??_GidFuncMountedObject@@UAEPAXI@Z 10065c50 f i Misc.obj
 0001:00064c50       ??_EidFuncMountedWeapon@@UAEPAXI@Z 10065c50 f i Misc.obj
 0001:00064c50       ??_GidFuncMountedWeapon@@UAEPAXI@Z 10065c50 f i Misc.obj
 0001:00064c80       ?Think@idFuncMountedWeapon@@UAEXXZ 10065c80 f   Misc.obj
 0001:00064f10       ?Event_PostSpawn@idFuncMountedWeapon@@AAEXXZ 10065f10 f   Misc.obj
 0001:00064fd0       ?CreateInstance@idPortalSky@@SAPAVidClass@@XZ 10065fd0 f   Misc.obj
 0001:00065080       ??_EidPortalSky@@UAEPAXI@Z 10066080 f i Misc.obj
 0001:00065080       ??_GidPortalSky@@UAEPAXI@Z 10066080 f i Misc.obj
 0001:000650b0       ?Spawn@idPortalSky@@QAEXXZ 100660b0 f   Misc.obj
 0001:000650f0       ?Event_TeleportStage@idPlayerStart@@AAEXPAVidEntity@@@Z 100660f0 f   Misc.obj
 0001:000652b0       ?Event_TeleportPlayer@idPlayerStart@@AAEXPAVidEntity@@@Z 100662b0 f   Misc.obj
 0001:000653a0       ?Spawn@idDamagable@@QAEXXZ 100663a0 f   Misc.obj
 0001:00065520       ?BecomeBroken@idDamagable@@AAEXPAVidEntity@@@Z 10066520 f   Misc.obj
 0001:000657e0       ?Killed@idDamagable@@UAEXPAVidEntity@@0HABVidVec3@@H@Z 100667e0 f   Misc.obj
 0001:00065810       ?Event_BecomeBroken@idDamagable@@AAEXPAVidEntity@@@Z 10066810 f   Misc.obj
 0001:00065820       ?CreateInstance@idSpring@@SAPAVidClass@@XZ 10066820 f   Misc.obj
 0001:000658e0       ?Event_LinkSpring@idSpring@@AAEXXZ 100668e0 f   Misc.obj
 0001:00065b30       ?CreateInstance@idAnimated@@SAPAVidClass@@XZ 10066b30 f   Misc.obj
 0001:00065c10       ??_EidAnimated@@UAEPAXI@Z  10066c10 f i Misc.obj
 0001:00065c10       ??_GidAnimated@@UAEPAXI@Z  10066c10 f i Misc.obj
 0001:00065ca0       ?Spawn@idAnimated@@QAEXXZ  10066ca0 f   Misc.obj
 0001:00066060       ?LoadAF@idAnimated@@UAE_NXZ 10067060 f   Misc.obj
 0001:00066170       ?CreateInstance@idTextEntity@@SAPAVidClass@@XZ 10067170 f   Misc.obj
 0001:00066230       ??_GidTextEntity@@UAEPAXI@Z 10067230 f i Misc.obj
 0001:00066230       ??_EidTextEntity@@UAEPAXI@Z 10067230 f i Misc.obj
 0001:000662a0       ?Spawn@idLocationEntity@@QAEXXZ 100672a0 f   Misc.obj
 0001:00066370       ?CreateInstance@idBeam@@SAPAVidClass@@XZ 10067370 f   Misc.obj
 0001:00066420       ?Spawn@idShaking@@QAEXXZ   10067420 f   Misc.obj
 0001:00066550       ??1idPhantomObjects@@UAE@XZ 10067550 f i Misc.obj
 0001:000665f0       ?Think@idPhantomObjects@@UAEXXZ 100675f0 f   Misc.obj
 0001:00066a60       ?Spawn@idFuncMountedWeapon@@QAEXXZ 10067a60 f   Misc.obj
 0001:00066bc0       ?ClientReceiveEvent@idPlayerStart@@UAE_NHHABVidBitMsg@@@Z 10067bc0 f   Misc.obj
 0001:00066c30       ?CreateInstance@idPhantomObjects@@SAPAVidClass@@XZ 10067c30 f   Misc.obj
 0001:00066d50       ??_GidPhantomObjects@@UAEPAXI@Z 10067d50 f i Misc.obj
 0001:00066d50       ??_EidPhantomObjects@@UAEPAXI@Z 10067d50 f i Misc.obj
 0001:00066d70       ?Restore@idPhantomObjects@@QAEXPAVidRestoreGame@@@Z 10067d70 f   Misc.obj
 0001:00067150       ?Event_Activate@idPhantomObjects@@AAEXPAVidEntity@@@Z 10068150 f   Misc.obj
 0001:00067550       ?GetType@idMoveable@@UBEPAVidTypeInfo@@XZ 10068550 f   Moveable.obj
 0001:00067560       ?EnableDamage@idMoveable@@QAEX_NM@Z 10068560 f   Moveable.obj
 0001:000675c0       ?WriteToSnapshot@idMoveable@@UBEXAAVidBitMsgDelta@@@Z 100685c0 f   Moveable.obj
 0001:000675e0       ?Event_BecomeNonSolid@idMoveable@@IAEXXZ 100685e0 f   Moveable.obj
 0001:00067610       ?SetAttacker@idMoveable@@QAEXPAVidEntity@@@Z 10068610 f   Moveable.obj
 0001:00067620       ?Event_IsAtRest@idMoveable@@IAEXXZ 10068620 f   Moveable.obj
 0001:00067640       ?Event_EnableDamage@idMoveable@@IAEXM@Z 10068640 f   Moveable.obj
 0001:00067680       ?GetType@idBarrel@@UBEPAVidTypeInfo@@XZ 10068680 f   Moveable.obj
 0001:00067690       ?Save@idBarrel@@QBEXPAVidSaveGame@@@Z 10068690 f   Moveable.obj
 0001:00067700       ?Restore@idBarrel@@QAEXPAVidRestoreGame@@@Z 10068700 f   Moveable.obj
 0001:00067770       ?GetType@idExplodingBarrel@@UBEPAVidTypeInfo@@XZ 10068770 f   Moveable.obj
 0001:00067780       ?Save@idExplodingBarrel@@QBEXPAVidSaveGame@@@Z 10068780 f   Moveable.obj
 0001:00067830       ?Restore@idExplodingBarrel@@QAEXPAVidRestoreGame@@@Z 10068830 f   Moveable.obj
 0001:00067920       ?SetStability@idExplodingBarrel@@QAEX_N@Z 10068920 f   Moveable.obj
 0001:00067930       ?StopBurning@idExplodingBarrel@@QAEXXZ 10068930 f   Moveable.obj
 0001:00067990       ?Damage@idExplodingBarrel@@UAEXPAVidEntity@@0ABVidVec3@@PBDMH@Z 10068990 f   Moveable.obj
 0001:00067a40       ?Event_TriggerTargets@idExplodingBarrel@@AAEXXZ 10068a40 f   Moveable.obj
 0001:00067a50       ?Event_Explode@idExplodingBarrel@@AAEXXZ 10068a50 f   Moveable.obj
 0001:00067a90       ?Event_Activate@idExplodingBarrel@@AAEXPAVidEntity@@@Z 10068a90 f   Moveable.obj
 0001:00067ab0       ?WriteToSnapshot@idExplodingBarrel@@UBEXAAVidBitMsgDelta@@@Z 10068ab0 f   Moveable.obj
 0001:00067af0       ??0idMoveable@@QAE@XZ      10068af0 f   Moveable.obj
 0001:00067c10       ??1idMoveable@@UAE@XZ      10068c10 f   Moveable.obj
 0001:00067cd0       ?Show@idMoveable@@UAEXXZ   10068cd0 f   Moveable.obj
 0001:00067d20       ?Collide@idMoveable@@UAE_NABUtrace_s@@ABVidVec3@@@Z 10068d20 f   Moveable.obj
 0001:000682a0       ?Killed@idMoveable@@UAEXPAVidEntity@@0HABVidVec3@@H@Z 100692a0 f   Moveable.obj
 0001:00068340       ?ReadFromSnapshot@idMoveable@@UAEXABVidBitMsgDelta@@@Z 10069340 f   Moveable.obj
 0001:00068370       ??1idBarrel@@UAE@XZ        10069370 f i Moveable.obj
 0001:00068380       ?BarrelThink@idBarrel@@QAEXXZ 10069380 f   Moveable.obj
 0001:000688c0       ?GetPhysicsToVisualTransform@idBarrel@@UAE_NAAVidVec3@@AAVidMat3@@@Z 100698c0 f   Moveable.obj
 0001:00068940       ?Spawn@idExplodingBarrel@@QAEXXZ 10069940 f   Moveable.obj
 0001:00068aa0       ?Think@idExplodingBarrel@@UAEXXZ 10069aa0 f   Moveable.obj
 0001:00068d30       ?AddParticles@idExplodingBarrel@@AAEXPBD_N@Z 10069d30 f   Moveable.obj
 0001:000690c0       ?AddLight@idExplodingBarrel@@AAEXPBD_N@Z 1006a0c0 f   Moveable.obj
 0001:00069240       ?ExplodingEffects@idExplodingBarrel@@AAEXXZ 1006a240 f   Moveable.obj
 0001:00069350       ?Killed@idExplodingBarrel@@UAEXPAVidEntity@@0HABVidVec3@@H@Z 1006a350 f   Moveable.obj
 0001:00069860       ?Event_Respawn@idExplodingBarrel@@AAEXXZ 1006a860 f   Moveable.obj
 0001:00069b30       ?ReadFromSnapshot@idExplodingBarrel@@UAEXABVidBitMsgDelta@@@Z 1006ab30 f   Moveable.obj
 0001:00069b80       ?ClientReceiveEvent@idExplodingBarrel@@UAE_NHHABVidBitMsg@@@Z 1006ab80 f   Moveable.obj
 0001:00069c00       ?CreateInstance@idMoveable@@SAPAVidClass@@XZ 1006ac00 f   Moveable.obj
 0001:00069ca0       ??_EidBarrel@@UAEPAXI@Z    1006aca0 f i Moveable.obj
 0001:00069ca0       ??_GidMoveable@@UAEPAXI@Z  1006aca0 f i Moveable.obj
 0001:00069ca0       ??_EidMoveable@@UAEPAXI@Z  1006aca0 f i Moveable.obj
 0001:00069ca0       ??_GidBarrel@@UAEPAXI@Z    1006aca0 f i Moveable.obj
 0001:00069cc0       ?Spawn@idMoveable@@QAEXXZ  1006acc0 f   Moveable.obj
 0001:0006a4b0       ?Save@idMoveable@@QBEXPAVidSaveGame@@@Z 1006b4b0 f   Moveable.obj
 0001:0006a5e0       ?InitInitialSpline@idMoveable@@IAEXH@Z 1006b5e0 f   Moveable.obj
 0001:0006a960       ?FollowInitialSplinePath@idMoveable@@IAE_NXZ 1006b960 f   Moveable.obj
 0001:0006add0       ?Think@idMoveable@@UAEXXZ  1006bdd0 f   Moveable.obj
 0001:0006ae00       ?Event_Activate@idMoveable@@IAEXPAVidEntity@@@Z 1006be00 f   Moveable.obj
 0001:0006afa0       ?Event_SetOwnerFromSpawnArgs@idMoveable@@IAEXXZ 1006bfa0 f   Moveable.obj
 0001:0006b090       ??0idBarrel@@QAE@XZ        1006c090 f   Moveable.obj
 0001:0006b1b0       ?Think@idBarrel@@UAEXXZ    1006c1b0 f   Moveable.obj
 0001:0006b1e0       ?Spawn@idBarrel@@QAEXXZ    1006c1e0 f   Moveable.obj
 0001:0006b320       ??0idExplodingBarrel@@QAE@XZ 1006c320 f   Moveable.obj
 0001:0006b3e0       ??_EidExplodingBarrel@@UAEPAXI@Z 1006c3e0 f i Moveable.obj
 0001:0006b3e0       ??_GidExplodingBarrel@@UAEPAXI@Z 1006c3e0 f i Moveable.obj
 0001:0006b470       ?StartBurning@idExplodingBarrel@@QAEXXZ 1006c470 f   Moveable.obj
 0001:0006b490       ?Restore@idMoveable@@QAEXPAVidRestoreGame@@@Z 1006c490 f   Moveable.obj
 0001:0006b5b0       ?CreateInstance@idBarrel@@SAPAVidClass@@XZ 1006c5b0 f   Moveable.obj
 0001:0006b650       ?CreateInstance@idExplodingBarrel@@SAPAVidClass@@XZ 1006c650 f   Moveable.obj
 0001:0006b6f0       ?GetType@idMover@@UBEPAVidTypeInfo@@XZ 1006c6f0 f   Mover.obj
 0001:0006b700       ?Hide@idMoveable@@UAEXXZ   1006c700 f   Moveable.obj
 0001:0006b700       ?Hide@idMover@@UAEXXZ      1006c700 f   Mover.obj
 0001:0006b720       ?Killed@idMover@@UAEXPAVidEntity@@0HABVidVec3@@H@Z 1006c720 f   Mover.obj
 0001:0006b730       ?Event_SetCallback@idMover@@AAEXXZ 1006c730 f   Mover.obj
 0001:0006b7a0       ?Event_FindGuiTargets@idMover@@AAEXXZ 1006c7a0 f   Mover.obj
 0001:0006b7c0       ?Event_StopMoving@idMover@@AAEXXZ 1006c7c0 f   Mover.obj
 0001:0006b7f0       ?DoneMoving@idMover@@MAEXXZ 1006c7f0 f   Mover.obj
 0001:0006b850       ?UpdateMoveSound@idMover@@IAEXW4moveStage_t@1@@Z 1006c850 f   Mover.obj
 0001:0006b850       ?UpdateRotationSound@idMover@@IAEXW4moveStage_t@1@@Z 1006c850 f   Mover.obj
 0001:0006b8f0       ?Event_StopRotating@idMover@@AAEXXZ 1006c8f0 f   Mover.obj
 0001:0006b940       ?DoneRotating@idMover@@MAEXXZ 1006c940 f   Mover.obj
 0001:0006b980       ?Event_SetMoveSpeed@idMover@@AAEXM@Z 1006c980 f   Mover.obj
 0001:0006b9c0       ?Event_SetMoveTime@idMover@@AAEXM@Z 1006c9c0 f   Mover.obj
 0001:0006ba10       ?Event_SetAccellerationTime@idMover@@AAEXM@Z 1006ca10 f   Mover.obj
 0001:0006ba60       ?Event_SetDecelerationTime@idMover@@AAEXM@Z 1006ca60 f   Mover.obj
 0001:0006bab0       ?Event_MoveTo@idMover@@AAEXPAVidEntity@@@Z 1006cab0 f   Mover.obj
 0001:0006bb30       ?MoveToPos@idMover@@IAEXABVidVec3@@@Z 1006cb30 f   Mover.obj
 0001:0006bb30       ?Event_MoveToPos@idMover@@AAEXAAVidVec3@@@Z 1006cb30 f   Mover.obj
 0001:0006bb80       ?Event_Bob@idMover@@AAEXMMAAVidVec3@@@Z 1006cb80 f   Mover.obj
 0001:0006bc00       ?Event_EnableSplineAngles@idMover@@AAEXXZ 1006cc00 f   Mover.obj
 0001:0006bc10       ?Event_DisableSplineAngles@idMover@@AAEXXZ 1006cc10 f   Mover.obj
 0001:0006bc20       ?Event_IsMoving@idMover@@AAEXXZ 1006cc20 f   Mover.obj
 0001:0006bc50       ?Event_IsRotating@idMover@@AAEXXZ 1006cc50 f   Mover.obj
 0001:0006bc80       ?WriteToSnapshot@idMover@@UBEXAAVidBitMsgDelta@@@Z 1006cc80 f   Mover.obj
 0001:0006bce0       ?GetType@idSplinePath@@UBEPAVidTypeInfo@@XZ 1006cce0 f   Mover.obj
 0001:0006bcf0       ?GetType@idElevator@@UBEPAVidTypeInfo@@XZ 1006ccf0 f   Mover.obj
 0001:0006bd00       ?GetDoor@idElevator@@AAEPAVidDoor@@PBD@Z 1006cd00 f   Mover.obj
 0001:0006bd80       ?GetType@idMover_Binary@@UBEPAVidTypeInfo@@XZ 1006cd80 f   Mover.obj
 0001:0006bd90       ?Event_SetCallback@idMover_Binary@@IAEXXZ 1006cd90 f   Mover.obj
 0001:0006bdd0       ?SetMoverState@idMover_Binary@@IAEXW4moverState_t@@H@Z 1006cdd0 f   Mover.obj
 0001:0006c080       ?MatchActivateTeam@idMover_Binary@@IAEXW4moverState_t@@H@Z 1006d080 f   Mover.obj
 0001:0006c320       ?Event_MatchActivateTeam@idMover_Binary@@IAEXW4moverState_t@@H@Z 1006d320 f   Mover.obj
 0001:0006c330       ?Event_Disable@idMover_Binary@@IAEXXZ 1006d330 f   Mover.obj
 0001:0006c330       ?Event_Enable@idMover_Binary@@IAEXXZ 1006d330 f   Mover.obj
 0001:0006c360       ?Event_ReturnToPos1@idMover_Binary@@IAEXXZ 1006d360 f   Mover.obj
 0001:0006c5f0       ?PreBind@idDoor@@UAEXXZ    1006d5f0 f   Mover.obj
 0001:0006c5f0       ?PreBind@idPlat@@UAEXXZ    1006d5f0 f   Mover.obj
 0001:0006c5f0       ?PreBind@idMover_Binary@@UAEXXZ 1006d5f0 f   Mover.obj
 0001:0006c650       ?PostBind@idMover_Binary@@UAEXXZ 1006d650 f   Mover.obj
 0001:0006c6b0       ?Event_FindGuiTargets@idMover_Binary@@IAEXXZ 1006d6b0 f   Mover.obj
 0001:0006c6d0       ?InitSpeed@idMover_Binary@@QAEXAAVidVec3@@0MMM@Z 1006d6d0 f   Mover.obj
 0001:0006c8d0       ?InitTime@idMover_Binary@@QAEXAAVidVec3@@0MMM@Z 1006d8d0 f   Mover.obj
 0001:0006ca00       ?WriteToSnapshot@idMover_Binary@@UBEXAAVidBitMsgDelta@@@Z 1006da00 f   Mover.obj
 0001:0006ca40       ?GetType@idDoor@@UBEPAVidTypeInfo@@XZ 1006da40 f   Mover.obj
 0001:0006ca50       ?Think@idDoor@@UAEXXZ      1006da50 f   Mover.obj
 0001:0006ceb0       ?Hide@idDoor@@UAEXXZ       1006deb0 f   Mover.obj
 0001:0006cf90       ?GetLocalTriggerPosition@idDoor@@AAEXPBVidClipModel@@@Z 1006df90 f   Mover.obj
 0001:0006d1c0       ?IsOpen@idDoor@@QAE_NXZ    1006e1c0 f   Mover.obj
 0001:0006d1d0       ?AllowPlayerOnly@idDoor@@QAE_NPAVidEntity@@@Z 1006e1d0 f   Mover.obj
 0001:0006d200       ?Event_StartOpen@idDoor@@AAEXXZ 1006e200 f   Mover.obj
 0001:0006d2c0       ?Event_PartBlocked@idPlat@@AAEXPAVidEntity@@@Z 1006e2c0 f   Mover.obj
 0001:0006d2c0       ?Event_PartBlocked@idDoor@@AAEXPAVidEntity@@@Z 1006e2c0 f   Mover.obj
 0001:0006d300       ?Event_IsOpen@idDoor@@AAEXXZ 1006e300 f   Mover.obj
 0001:0006d330       ?Event_OpenPortal@idDoor@@AAEXXZ 1006e330 f   Mover.obj
 0001:0006d3a0       ?GetType@idPlat@@UBEPAVidTypeInfo@@XZ 1006e3a0 f   Mover.obj
 0001:0006d3b0       ?Save@idPlat@@QBEXPAVidSaveGame@@@Z 1006e3b0 f   Mover.obj
 0001:0006d3f0       ?Restore@idPlat@@QAEXPAVidRestoreGame@@@Z 1006e3f0 f   Mover.obj
 0001:0006d430       ?Think@idPlat@@UAEXXZ      1006e430 f   Mover.obj
 0001:0006d680       ?GetLocalTriggerPosition@idPlat@@AAEXPBVidClipModel@@@Z 1006e680 f   Mover.obj
 0001:0006d8b0       ?GetType@idMover_Periodic@@UBEPAVidTypeInfo@@XZ 1006e8b0 f   Mover.obj
 0001:0006d8c0       ?Save@idMover_Periodic@@QBEXPAVidSaveGame@@@Z 1006e8c0 f   Mover.obj
 0001:0006d8f0       ?Restore@idMover_Periodic@@QAEXPAVidRestoreGame@@@Z 1006e8f0 f   Mover.obj
 0001:0006d930       ?Think@idMover_Periodic@@UAEXXZ 1006e930 f   Mover.obj
 0001:0006d950       ?Event_PartBlocked@idMover_Periodic@@IAEXPAVidEntity@@@Z 1006e950 f   Mover.obj
 0001:0006d990       ?WriteToSnapshot@idMover_Periodic@@UBEXAAVidBitMsgDelta@@@Z 1006e990 f   Mover.obj
 0001:0006d9c0       ?GetType@idRotater@@UBEPAVidTypeInfo@@XZ 1006e9c0 f   Mover.obj
 0001:0006d9d0       ?GetType@idBobber@@UBEPAVidTypeInfo@@XZ 1006e9d0 f   Mover.obj
 0001:0006d9e0       ?GetType@idPendulum@@UBEPAVidTypeInfo@@XZ 1006e9e0 f   Mover.obj
 0001:0006d9f0       ?GetType@idRiser@@UBEPAVidTypeInfo@@XZ 1006e9f0 f   Mover.obj
 0001:0006da00       ?Spawn@idMover@@QAEXXZ     1006ea00 f   Mover.obj
 0001:0006dde0       ?Show@idMover@@UAEXXZ      1006ede0 f   Mover.obj
 0001:0006de40       ?VectorForDir@idMover@@AAEXMAAVidVec3@@@Z 1006ee40 f   Mover.obj
 0001:0006e100       ?SetGuiState@idMover@@IBEXPBD0@Z 1006f100 f   Mover.obj
 0001:0006e200       ?SetGuiStates@idMover@@IAEXPBD@Z 1006f200 f   Mover.obj
 0001:0006e260       ?Event_InitGuiTargets@idMover@@AAEXXZ 1006f260 f   Mover.obj
 0001:0006e270       ?Event_UpdateMove@idMover@@AAEXXZ 1006f270 f   Mover.obj
 0001:0006e3e0       ?BeginMove@idMover@@MAEXPAVidThread@@@Z 1006f3e0 f   Mover.obj
 0001:0006e720       ?Event_UpdateRotation@idMover@@AAEXXZ 1006f720 f   Mover.obj
 0001:0006e940       ?BeginRotation@idMover@@MAEXPAVidThread@@_N@Z 1006f940 f   Mover.obj
 0001:0006ebc0       ?Event_TeamBlocked@idMover@@AAEXPAVidEntity@@0@Z 1006fbc0 f   Mover.obj
 0001:0006ec00       ?Event_PartBlocked@idMover@@IAEXPAVidEntity@@@Z 1006fc00 f   Mover.obj
 0001:0006ec70       ?Event_MoveDir@idMover@@AAEXMM@Z 1006fc70 f   Mover.obj
 0001:0006ed20       ?Event_MoveAccelerateTo@idMover@@AAEXMM@Z 1006fd20 f   Mover.obj
 0001:0006ef80       ?Event_MoveDecelerateTo@idMover@@AAEXMM@Z 1006ff80 f   Mover.obj
 0001:0006f1d0       ?Event_RotateDownTo@idMover@@AAEXHM@Z 100701d0 f   Mover.obj
 0001:0006f250       ?Event_RotateUpTo@idMover@@AAEXHM@Z 10070250 f   Mover.obj
 0001:0006f2d0       ?Event_RotateTo@idMover@@AAEXAAVidAngles@@@Z 100702d0 f   Mover.obj
 0001:0006f310       ?Event_Rotate@idMover@@AAEXAAVidAngles@@@Z 10070310 f   Mover.obj
 0001:0006f410       ?Event_RotateOnce@idMover@@AAEXAAVidAngles@@@Z 10070410 f   Mover.obj
 0001:0006f4a0       ?Event_Sway@idMover@@AAEXMMAAVidAngles@@@Z 100704a0 f   Mover.obj
 0001:0006f5f0       ?Event_OpenPortal@idMover@@IAEXXZ 100705f0 f   Mover.obj
 0001:0006f610       ?Event_ClosePortal@idMover@@IAEXXZ 10070610 f   Mover.obj
 0001:0006f630       ?Event_RemoveInitialSplineAngles@idMover@@AAEXXZ 10070630 f   Mover.obj
 0001:0006f6c0       ?Event_StopSpline@idMover@@AAEXXZ 100706c0 f   Mover.obj
 0001:0006f6f0       ?ReadFromSnapshot@idMover@@UAEXABVidBitMsgDelta@@@Z 100706f0 f   Mover.obj
 0001:0006f780       ?CreateInstance@idSplinePath@@SAPAVidClass@@XZ 10070780 f   Mover.obj
 0001:0006f830       ?Save@idElevator@@QBEXPAVidSaveGame@@@Z 10070830 f   Mover.obj
 0001:0006f910       ??0floorInfo_s@@QAE@XZ     10070910 f i Mover.obj
 0001:0006f930       ??1floorInfo_s@@QAE@XZ     10070930 f i Mover.obj
 0001:0006f940       ?Event_Touch@idElevator@@IAEXPAVidEntity@@PAUtrace_s@@@Z 10070940 f   Mover.obj
 0001:0006fa20       ?GetFloorInfo@idElevator@@QAEPAUfloorInfo_s@@H@Z 10070a20 f   Mover.obj
 0001:0006fa60       ?Event_SetGuiStates@idElevator@@AAEXXZ 10070a60 f   Mover.obj
 0001:0006fa80       ?DisableAllDoors@idElevator@@AAEXXZ 10070a80 f   Mover.obj
 0001:0006faf0       ?EnableProperDoors@idElevator@@AAEXXZ 10070af0 f   Mover.obj
 0001:0006fb80       ?Save@idMover_Binary@@QBEXPAVidSaveGame@@@Z 10070b80 f   Mover.obj
 0001:0006fd90       ?GetMovedir@idMover_Binary@@KAXMAAVidVec3@@@Z 10070d90 f   Mover.obj
 0001:0006fe20       ?Event_OpenPortal@idMover_Binary@@IAEXXZ 10070e20 f   Mover.obj
 0001:0006fe80       ?Event_ClosePortal@idMover_Binary@@IAEXXZ 10070e80 f   Mover.obj
 0001:0006fef0       ?UpdateBuddies@idMover_Binary@@QAEXH@Z 10070ef0 f   Mover.obj
 0001:0006ff50       ?SetGuiState@idMover_Binary@@IBEXPBD0@Z 10070f50 f   Mover.obj
 0001:00070040       ?Event_InitGuiTargets@idMover_Binary@@IAEXXZ 10071040 f   Mover.obj
 0001:00070060       ?ReadFromSnapshot@idMover_Binary@@UAEXABVidBitMsgDelta@@@Z 10071060 f   Mover.obj
 0001:00070100       ?Save@idDoor@@QBEXPAVidSaveGame@@@Z 10071100 f   Mover.obj
 0001:000701f0       ?Restore@idDoor@@QAEXPAVidRestoreGame@@@Z 100711f0 f   Mover.obj
 0001:00070300       ?PostBind@idDoor@@UAEXXZ   10071300 f   Mover.obj
 0001:00070370       ?IsLocked@idDoor@@QAEHXZ   10071370 f   Mover.obj
 0001:000703a0       ?CalcTriggerBounds@idDoor@@AAEXMAAVidBounds@@@Z 100713a0 f   Mover.obj
 0001:00070570       ?Event_SpawnDoorTrigger@idDoor@@AAEXXZ 10071570 f   Mover.obj
 0001:000707a0       ?Event_SpawnSoundTrigger@idDoor@@AAEXXZ 100717a0 f   Mover.obj
 0001:000708b0       ?Event_SpectatorTouch@idDoor@@AAEXPAVidEntity@@PAUtrace_s@@@Z 100718b0 f   Mover.obj
 0001:00070a30       ?Event_Locked@idDoor@@AAEXXZ 10071a30 f   Mover.obj
 0001:00070a70       ?Event_ClosePortal@idDoor@@AAEXXZ 10071a70 f   Mover.obj
 0001:00070b40       ?PostBind@idPlat@@UAEXXZ   10071b40 f   Mover.obj
 0001:00070ba0       ?SpawnPlatTrigger@idPlat@@AAEXAAVidVec3@@@Z 10071ba0 f   Mover.obj
 0001:00070d90       ?CreateInstance@idMover_Periodic@@SAPAVidClass@@XZ 10071d90 f   Mover.obj
 0001:00070e50       ?Spawn@idMover_Periodic@@QAEXXZ 10071e50 f   Mover.obj
 0001:00070eb0       ?ReadFromSnapshot@idMover_Periodic@@UAEXABVidBitMsgDelta@@@Z 10071eb0 f   Mover.obj
 0001:00070ef0       ??0idRotater@@QAE@XZ       10071ef0 f   Mover.obj
 0001:00070f80       ?Spawn@idRotater@@QAEXXZ   10071f80 f   Mover.obj
 0001:00071160       ?Save@idRotater@@QBEXPAVidSaveGame@@@Z 10072160 f   Mover.obj
 0001:00071180       ?Restore@idRotater@@QAEXPAVidRestoreGame@@@Z 10072180 f   Mover.obj
 0001:000711a0       ?Event_Activate@idRotater@@AAEXPAVidEntity@@@Z 100721a0 f   Mover.obj
 0001:000712e0       ?CreateInstance@idBobber@@SAPAVidClass@@XZ 100722e0 f   Mover.obj
 0001:000713b0       ?Spawn@idBobber@@QAEXXZ    100723b0 f   Mover.obj
 0001:00071600       ?CreateInstance@idPendulum@@SAPAVidClass@@XZ 10072600 f   Mover.obj
 0001:000716d0       ?Spawn@idPendulum@@QAEXXZ  100726d0 f   Mover.obj
 0001:000719f0       ?CreateInstance@idRiser@@SAPAVidClass@@XZ 100729f0 f   Mover.obj
 0001:00071ac0       ??_GidRiser@@UAEPAXI@Z     10072ac0 f i Mover.obj
 0001:00071ac0       ??_GidMover_Periodic@@UAEPAXI@Z 10072ac0 f i Mover.obj
 0001:00071ac0       ??_EidRotater@@UAEPAXI@Z   10072ac0 f i Mover.obj
 0001:00071ac0       ??_EidMover_Periodic@@UAEPAXI@Z 10072ac0 f i Mover.obj
 0001:00071ac0       ??_GidShaking@@UAEPAXI@Z   10072ac0 f i Misc.obj
 0001:00071ac0       ??_EidPendulum@@UAEPAXI@Z  10072ac0 f i Mover.obj
 0001:00071ac0       ??_GidBobber@@UAEPAXI@Z    10072ac0 f i Mover.obj
 0001:00071ac0       ??_GidPendulum@@UAEPAXI@Z  10072ac0 f i Mover.obj
 0001:00071ac0       ??_GidRotater@@UAEPAXI@Z   10072ac0 f i Mover.obj
 0001:00071ac0       ??_EidBobber@@UAEPAXI@Z    10072ac0 f i Mover.obj
 0001:00071ac0       ??_EidShaking@@UAEPAXI@Z   10072ac0 f i Misc.obj
 0001:00071ac0       ??_EidRiser@@UAEPAXI@Z     10072ac0 f i Mover.obj
 0001:00071b30       ?Spawn@idRiser@@QAEXXZ     10072b30 f   Mover.obj
 0001:00071cc0       ?Event_Activate@idRiser@@AAEXPAVidEntity@@@Z 10072cc0 f   Mover.obj
 0001:00071db0       ??0idMover@@QAE@XZ         10072db0 f   Mover.obj
 0001:00071f10       ??1idMover@@UAE@XZ         10072f10 f i Mover.obj
 0001:00071f90       ?Save@idMover@@QBEXPAVidSaveGame@@@Z 10072f90 f   Mover.obj
 0001:00072270       ?Restore@idMover@@QAEXPAVidRestoreGame@@@Z 10073270 f   Mover.obj
 0001:00072680       ?Event_PostRestore@idMover@@AAEXHHHHH@Z 10073680 f   Mover.obj
 0001:00072870       ?Event_StartSpline@idMover@@AAEXPAVidEntity@@@Z 10073870 f   Mover.obj
 0001:00072aa0       ?Event_Activate@idMover@@AAEXPAVidEntity@@@Z 10073aa0 f   Mover.obj
 0001:00072ac0       ?SetGuiStates@idMover_Binary@@QAEXPBD@Z 10073ac0 f   Mover.obj
 0001:00072be0       ?SetBlocked@idMover_Binary@@QAEX_N@Z 10073be0 f   Mover.obj
 0001:00072cc0       ?Spawn@idDoor@@QAEXXZ      10073cc0 f   Mover.obj
 0001:00073320       ?Show@idDoor@@UAEXXZ       10074320 f   Mover.obj
 0001:00073450       ?Spawn@idPlat@@QAEXXZ      10074450 f   Mover.obj
 0001:00073630       ?CreateInstance@idRotater@@SAPAVidClass@@XZ 10074630 f   Mover.obj
 0001:000736d0       ?CreateInstance@idMover@@SAPAVidClass@@XZ 100746d0 f   Mover.obj
 0001:00073770       ??_GidMover@@UAEPAXI@Z     10074770 f i Mover.obj
 0001:00073770       ??_EidMover@@UAEPAXI@Z     10074770 f i Mover.obj
 0001:00073800       ??0idMover_Binary@@QAE@XZ  10074800 f   Mover.obj
 0001:000739a0       ??1idMover_Binary@@UAE@XZ  100749a0 f   Mover.obj
 0001:00073ad0       ?Restore@idMover_Binary@@QAEXPAVidRestoreGame@@@Z 10074ad0 f   Mover.obj
 0001:00074110       ?Spawn@idMover_Binary@@QAEXXZ 10075110 f   Mover.obj
 0001:000748a0       ?Event_Reached_BinaryMover@idMover_Binary@@IAEXXZ 100758a0 f   Mover.obj
 0001:00074ac0       ?GotoPosition1@idMover_Binary@@QAEXXZ 10075ac0 f   Mover.obj
 0001:00074e50       ?GotoPosition2@idMover_Binary@@QAEXXZ 10075e50 f   Mover.obj
 0001:00075410       ?Use_BinaryMover@idMover_Binary@@QAEXPAVidEntity@@@Z 10076410 f   Mover.obj
 0001:000757f0       ?Event_Use_BinaryMover@idMover_Binary@@IAEXPAVidEntity@@@Z 100767f0 f   Mover.obj
 0001:00075800       ??0idDoor@@QAE@XZ          10076800 f   Mover.obj
 0001:000759f0       ??1idDoor@@UAE@XZ          100769f0 f   Mover.obj
 0001:00075aa0       ?Use@idDoor@@QAEXPAVidEntity@@0@Z 10076aa0 f   Mover.obj
 0001:00075b20       ?Lock@idDoor@@QAEXH@Z      10076b20 f   Mover.obj
 0001:00075c60       ?Event_Reached_BinaryMover@idDoor@@AAEXXZ 10076c60 f   Mover.obj
 0001:00075dd0       ?Event_TeamBlocked@idDoor@@AAEXPAVidEntity@@0@Z 10076dd0 f   Mover.obj
 0001:00075e60       ?Event_Touch@idDoor@@AAEXPAVidEntity@@PAUtrace_s@@@Z 10076e60 f   Mover.obj
 0001:00075f40       ?Event_Activate@idDoor@@AAEXPAVidEntity@@@Z 10076f40 f   Mover.obj
 0001:00076070       ?Event_Open@idDoor@@AAEXXZ 10077070 f   Mover.obj
 0001:00076080       ?Event_Close@idDoor@@AAEXXZ 10077080 f   Mover.obj
 0001:00076090       ?Event_Lock@idDoor@@AAEXH@Z 10077090 f   Mover.obj
 0001:000760a0       ??0idPlat@@QAE@XZ          100770a0 f   Mover.obj
 0001:00076140       ?Event_Touch@idPlat@@AAEXPAVidEntity@@PAUtrace_s@@@Z 10077140 f   Mover.obj
 0001:000761a0       ?Event_TeamBlocked@idPlat@@AAEXPAVidEntity@@0@Z 100771a0 f   Mover.obj
 0001:000761e0       ??1?$idList@UfloorInfo_s@@@@QAE@XZ 100771e0 f i Mover.obj
 0001:00076220       ??0idElevator@@QAE@XZ      10077220 f   Mover.obj
 0001:000762f0       ??1idElevator@@UAE@XZ      100772f0 f i Mover.obj
 0001:000763b0       ?Restore@idElevator@@QAEXPAVidRestoreGame@@@Z 100773b0 f   Mover.obj
 0001:00076840       ?Spawn@idElevator@@QAEXXZ  10077840 f   Mover.obj
 0001:00076e40       ?OpenFloorDoor@idElevator@@AAEXH@Z 10077e40 f   Mover.obj
 0001:00076ea0       ?OpenInnerDoor@idElevator@@AAEXXZ 10077ea0 f   Mover.obj
 0001:00076ee0       ?Event_PostFloorArrival@idElevator@@AAEXXZ 10077ee0 f   Mover.obj
 0001:00076f90       ?DoneMoving@idElevator@@MAEXXZ 10077f90 f   Mover.obj
 0001:00077110       ?CloseAllDoors@idElevator@@AAEXXZ 10078110 f   Mover.obj
 0001:00077180       ?CreateInstance@idMover_Binary@@SAPAVidClass@@XZ 10078180 f   Mover.obj
 0001:00077220       ??_EidMover_Binary@@UAEPAXI@Z 10078220 f i Mover.obj
 0001:00077220       ??_GidMover_Binary@@UAEPAXI@Z 10078220 f i Mover.obj
 0001:00077240       ?CreateInstance@idDoor@@SAPAVidClass@@XZ 10078240 f   Mover.obj
 0001:000772e0       ??_GidDoor@@UAEPAXI@Z      100782e0 f i Mover.obj
 0001:000772e0       ??_EidDoor@@UAEPAXI@Z      100782e0 f i Mover.obj
 0001:00077300       ?CreateInstance@idPlat@@SAPAVidClass@@XZ 10078300 f   Mover.obj
 0001:000773a0       ??_EidPlat@@UAEPAXI@Z      100783a0 f i Mover.obj
 0001:000773a0       ??_GidPlat@@UAEPAXI@Z      100783a0 f i Mover.obj
 0001:00077420       ?CreateInstance@idElevator@@SAPAVidClass@@XZ 10078420 f   Mover.obj
 0001:000774c0       ??_EidElevator@@UAEPAXI@Z  100784c0 f i Mover.obj
 0001:000774c0       ??_GidElevator@@UAEPAXI@Z  100784c0 f i Mover.obj
 0001:000774e0       ?HandleSingleGuiCommand@idElevator@@UAE_NPAVidEntity@@PAVidLexer@@@Z 100784e0 f   Mover.obj
 0001:00077690       ?Event_GotoFloor@idElevator@@QAEXH@Z 10078690 f   Mover.obj
 0001:00077760       ?BeginMove@idElevator@@MAEXPAVidThread@@@Z 10078760 f   Mover.obj
 0001:00077870       ?Think@idElevator@@EAEXXZ  10078870 f   Mover.obj
 0001:000779f0       ?Event_Activate@idElevator@@AAEXPAVidEntity@@@Z 100789f0 f   Mover.obj
 0001:00077a60       ?Event_TeamBlocked@idElevator@@AAEXPAVidEntity@@0@Z 10078a60 f   Mover.obj
 0001:00077b00       ?ServerClientConnect@idMultiplayerGame@@QAEXH@Z 10078b00 f   MultiplayerGame.obj
 0001:00077b30       ?GetFlagPoints@idMultiplayerGame@@QAEHH@Z 10078b30 f   MultiplayerGame.obj
 0001:00077b40       ?WinningTeam@idMultiplayerGame@@AAEHXZ 10078b40 f   MultiplayerGame.obj
 0001:00077b60       ?PlayerScoreCTF@idMultiplayerGame@@QAEXHH@Z 10078b60 f   MultiplayerGame.obj
 0001:00077b80       ?GetFlagCarrier@idMultiplayerGame@@QAEHH@Z 10078b80 f   MultiplayerGame.obj
 0001:00077c10       ?TeamScore@idMultiplayerGame@@AAEXHHH@Z 10078c10 f   MultiplayerGame.obj
 0001:00077c90       ?PlayerStats@idMultiplayerGame@@QAEXHPADH@Z 10078c90 f   MultiplayerGame.obj
 0001:00077d10       ?FillTourneySlots@idMultiplayerGame@@AAEXXZ 10078d10 f   MultiplayerGame.obj
 0001:00077e10       ?DisableMenu@idMultiplayerGame@@AAEXXZ 10078e10 f   MultiplayerGame.obj
 0001:00077e90       ?DropWeapon@idMultiplayerGame@@QAEXH@Z 10078e90 f   MultiplayerGame.obj
 0001:00077ed0       ?ServerStartVote@idMultiplayerGame@@QAEXHW4vote_flags_t@1@PBD@Z 10078ed0 f   MultiplayerGame.obj
 0001:00077f70       ?WantKilled@idMultiplayerGame@@QAEXH@Z 10078f70 f   MultiplayerGame.obj
 0001:00077fb0       ?ToggleReady@idMultiplayerGame@@QAEXXZ 10078fb0 f   MultiplayerGame.obj
 0001:00078000       ?ToggleTeam@idMultiplayerGame@@QAEXXZ 10079000 f   MultiplayerGame.obj
 0001:00078050       ?CanPlay@idMultiplayerGame@@QAE_NPAVidPlayer@@@Z 10079050 f   MultiplayerGame.obj
 0001:00078080       ?IsGametypeTeamBased@idMultiplayerGame@@QAE_NXZ 10079080 f   MultiplayerGame.obj
 0001:000780b0       ?IsGametypeFlagBased@idMultiplayerGame@@QAE_NXZ 100790b0 f   MultiplayerGame.obj
 0001:000780d0       ?FindTeamFlags@idMultiplayerGame@@AAEXXZ 100790d0 f   MultiplayerGame.obj
 0001:00078140       ?IsFlagMsgOn@idMultiplayerGame@@QAE_NXZ 10079140 f   MultiplayerGame.obj
 0001:00078170       ??0idStr@@QAE@XZ           10079170 f i Actor.obj
 0001:00078170       ??0mpChatLine_s@@QAE@XZ    10079170 f i MultiplayerGame.obj
 0001:00078190       ?Clear@idMultiplayerGame@@AAEXXZ 10079190 f   MultiplayerGame.obj
 0001:00078330       ?ClearHUDStatus@idMultiplayerGame@@QAEXXZ 10079330 f   MultiplayerGame.obj
 0001:000783c0       ?UpdatePlayerRanks@idMultiplayerGame@@AAEXXZ 100793c0 f   MultiplayerGame.obj
 0001:00078580       ?UpdateRankColor@idMultiplayerGame@@AAEXPAVidUserInterface@@PBDHABVidVec3@@@Z 10079580 f   MultiplayerGame.obj
 0001:000785d0       ?UpdateScoreboard@idMultiplayerGame@@AAEXPAVidUserInterface@@PAVidPlayer@@@Z 100795d0 f   MultiplayerGame.obj
 0001:00079040       ?UpdateCTFScoreboard@idMultiplayerGame@@AAEXPAVidUserInterface@@PAVidPlayer@@@Z 1007a040 f   MultiplayerGame.obj
 0001:00079770       ?GameTime@idMultiplayerGame@@AAEPBDXZ 1007a770 f   MultiplayerGame.obj
 0001:000798a0       ?NumActualClients@idMultiplayerGame@@QAEH_NPAH@Z 1007a8a0 f   MultiplayerGame.obj
 0001:00079950       ?EnoughClientsToPlay@idMultiplayerGame@@AAE_NXZ 1007a950 f   MultiplayerGame.obj
 0001:000799c0       ?AllPlayersReady@idMultiplayerGame@@AAE_NXZ 1007a9c0 f   MultiplayerGame.obj
 0001:00079af0       ?TimeLimitHit@idMultiplayerGame@@AAE_NXZ 1007aaf0 f   MultiplayerGame.obj
 0001:00079b40       ?PointLimitHit@idMultiplayerGame@@AAE_NXZ 1007ab40 f   MultiplayerGame.obj
 0001:00079ba0       ?FragLeader@idMultiplayerGame@@AAEPAVidPlayer@@XZ 1007aba0 f   MultiplayerGame.obj
 0001:00079d90       ?UpdateTourneyLine@idMultiplayerGame@@AAEXXZ 1007ad90 f   MultiplayerGame.obj
 0001:00079e90       ?CycleTourneyPlayers@idMultiplayerGame@@AAEXXZ 1007ae90 f   MultiplayerGame.obj
 0001:00079f80       ?ExecuteVote@idMultiplayerGame@@QAEXXZ 1007af80 f   MultiplayerGame.obj
 0001:0007a150       ?SetMapShot@idMultiplayerGame@@AAEXXZ 1007b150 f   MultiplayerGame.obj
 0001:0007a1e0       ?UpdateHud@idMultiplayerGame@@AAEXPAVidPlayer@@PAVidUserInterface@@@Z 1007b1e0 f   MultiplayerGame.obj
 0001:0007a4f0       ?DrawScoreBoard@idMultiplayerGame@@AAEXPAVidPlayer@@@Z 1007b4f0 f   MultiplayerGame.obj
 0001:0007a5b0       ?DrawChat@idMultiplayerGame@@AAEXXZ 1007b5b0 f   MultiplayerGame.obj
 0001:0007a780       ?WriteToSnapshot@idMultiplayerGame@@QBEXAAVidBitMsgDelta@@@Z 1007b780 f   MultiplayerGame.obj
 0001:0007a8c0       ?ReadFromSnapshot@idMultiplayerGame@@QAEXABVidBitMsgDelta@@@Z 1007b8c0 f   MultiplayerGame.obj
 0001:0007aa30       ?PlayGlobalSound@idMultiplayerGame@@QAEXHW4snd_evt_t@@PBD@Z 1007ba30 f   MultiplayerGame.obj
 0001:0007ab40       ?PlayTeamSound@idMultiplayerGame@@QAEXHW4snd_evt_t@@PBD@Z 1007bb40 f   MultiplayerGame.obj
 0001:0007abb0       ?SuddenRespawn@idMultiplayerGame@@AAEXXZ 1007bbb0 f   MultiplayerGame.obj
 0001:0007ac30       ?DropWeapon_f@idMultiplayerGame@@SAXABVidCmdArgs@@@Z 1007bc30 f   MultiplayerGame.obj
 0001:0007aca0       ?MessageMode@idMultiplayerGame@@AAEXABVidCmdArgs@@@Z 1007bca0 f   MultiplayerGame.obj
 0001:0007ad60       ?ClientCallVote@idMultiplayerGame@@QAEXW4vote_flags_t@1@PBD@Z 1007bd60 f   MultiplayerGame.obj
 0001:0007ade0       ?EnterGame@idMultiplayerGame@@QAEXH@Z 1007bde0 f   MultiplayerGame.obj
 0001:0007ae80       ?VoiceChat@idMultiplayerGame@@AAEXABVidCmdArgs@@_N@Z 1007be80 f   MultiplayerGame.obj
 0001:0007b000       ?ServerWriteInitialReliableMessages@idMultiplayerGame@@QAEXH@Z 1007c000 f   MultiplayerGame.obj
 0001:0007b1b0       ?ClientReadStartState@idMultiplayerGame@@QAEXABVidBitMsg@@@Z 1007c1b0 f   MultiplayerGame.obj
 0001:0007b270       ?ClientReadWarmupTime@idMultiplayerGame@@QAEXABVidBitMsg@@@Z 1007c270 f   MultiplayerGame.obj
 0001:0007b290       ?GetTeamFlag@idMultiplayerGame@@QAEPAVidItemTeam@@H@Z 1007c290 f   MultiplayerGame.obj
 0001:0007b2d0       ?GetFlagStatus@idMultiplayerGame@@QAE?AW4flagStatus_t@@H@Z 1007c2d0 f   MultiplayerGame.obj
 0001:0007b350       ?GetBestGametype@idMultiplayerGame@@QAE?AVidStr@@PBD0@Z 1007c350 f   MultiplayerGame.obj
 0001:0007b5b0       ??0idMultiplayerGame@@QAE@XZ 1007c5b0 f   MultiplayerGame.obj
 0001:0007b6c0       ?Shutdown@idMultiplayerGame@@QAEXXZ 1007c6c0 f   MultiplayerGame.obj
 0001:0007b6d0       ?SetMenuSkin@idMultiplayerGame@@QAEXXZ 1007c6d0 f   MultiplayerGame.obj
 0001:0007ba20       ?ClearGuis@idMultiplayerGame@@QAEXXZ 1007ca20 f   MultiplayerGame.obj
 0001:0007bc50       ?FragLimitHit@idMultiplayerGame@@AAEPAVidPlayer@@XZ 1007cc50 f   MultiplayerGame.obj
 0001:0007bd80       ?UpdateWinsLosses@idMultiplayerGame@@AAEXPAVidPlayer@@@Z 1007cd80 f   MultiplayerGame.obj
 0001:0007c220       ?UpdateMainGui@idMultiplayerGame@@QAEXXZ 1007d220 f   MultiplayerGame.obj
 0001:0007c550       ?StartMenu@idMultiplayerGame@@QAEPAVidUserInterface@@XZ 1007d550 f   MultiplayerGame.obj
 0001:0007cb10       ?Draw@idMultiplayerGame@@QAE_NH@Z 1007db10 f   MultiplayerGame.obj
 0001:0007d090       ?AddChatLine@idMultiplayerGame@@QAAXPBDZZ 1007e090 f   MultiplayerGame.obj
 0001:0007d1c0       ?PrintMessageEvent@idMultiplayerGame@@QAEXHW4msg_evt_t@1@HH@Z 1007e1c0 f   MultiplayerGame.obj
 0001:0007d9b0       ?ForceReady@idMultiplayerGame@@AAEXXZ 1007e9b0 f   MultiplayerGame.obj
 0001:0007da20       ?ForceReady_f@idMultiplayerGame@@SAXABVidCmdArgs@@@Z 1007ea20 f   MultiplayerGame.obj
 0001:0007da60       ?MessageMode_f@idMultiplayerGame@@SAXABVidCmdArgs@@@Z 1007ea60 f   MultiplayerGame.obj
 0001:0007da70       ?ClientStartVote@idMultiplayerGame@@QAEXHPBD@Z 1007ea70 f   MultiplayerGame.obj
 0001:0007dba0       ?ClientUpdateVote@idMultiplayerGame@@QAEXW4vote_result_t@1@HH@Z 1007eba0 f   MultiplayerGame.obj
 0001:0007dd40       ?CastVote@idMultiplayerGame@@QAEXH_N@Z 1007ed40 f   MultiplayerGame.obj
 0001:0007def0       ?ServerCallVote@idMultiplayerGame@@QAEXHABVidBitMsg@@@Z 1007eef0 f   MultiplayerGame.obj
 0001:0007e7f0       ?ProcessChatMessage@idMultiplayerGame@@QAEXH_NPBD11@Z 1007f7f0 f   MultiplayerGame.obj
 0001:0007eae0       ?Precache@idMultiplayerGame@@QAEXXZ 1007fae0 f   MultiplayerGame.obj
 0001:0007eda0       ?ToggleSpectate@idMultiplayerGame@@QAEXXZ 1007fda0 f   MultiplayerGame.obj
 0001:0007ee50       ?ThrottleUserInfo@idMultiplayerGame@@QAEXXZ 1007fe50 f   MultiplayerGame.obj
 0001:0007efc0       ?VoiceChat_f@idMultiplayerGame@@SAXABVidCmdArgs@@@Z 1007ffc0 f   MultiplayerGame.obj
 0001:0007efe0       ?VoiceChatTeam_f@idMultiplayerGame@@SAXABVidCmdArgs@@@Z 1007ffe0 f   MultiplayerGame.obj
 0001:0007f000       ?ProcessVoiceChat@idMultiplayerGame@@QAEXH_NH@Z 10080000 f   MultiplayerGame.obj
 0001:0007f340       ?ReloadScoreboard@idMultiplayerGame@@QAEXXZ 10080340 f   MultiplayerGame.obj
 0001:0007f390       ?Reset@idMultiplayerGame@@QAEXXZ 10080390 f   MultiplayerGame.obj
 0001:0007f510       ?TeamScoreCTF@idMultiplayerGame@@QAEXHH@Z 10080510 f   MultiplayerGame.obj
 0001:0007f550       ?PlayerDeath@idMultiplayerGame@@QAEXPAVidPlayer@@0_N@Z 10080550 f   MultiplayerGame.obj
 0001:0007f6c0       ?NewState@idMultiplayerGame@@AAEXW4gameState_t@1@PAVidPlayer@@@Z 100806c0 f   MultiplayerGame.obj
 0001:0007fbe0       ?CheckVote@idMultiplayerGame@@AAEXXZ 10080be0 f   MultiplayerGame.obj
 0001:0007fd70       ?HandleGuiCommands@idMultiplayerGame@@QAEPBDPBD@Z 10080d70 f   MultiplayerGame.obj
 0001:00080b70       ?CheckAbortGame@idMultiplayerGame@@AAEXXZ 10081b70 f   MultiplayerGame.obj
 0001:00080c80       ?MapRestart@idMultiplayerGame@@QAEXXZ 10081c80 f   MultiplayerGame.obj
 0001:00080d90       ?SwitchToTeam@idMultiplayerGame@@QAEXHHH@Z 10081d90 f   MultiplayerGame.obj
 0001:00080f00       ?SpawnPlayer@idMultiplayerGame@@QAEXH@Z 10081f00 f   MultiplayerGame.obj
 0001:00080fb0       ?CheckRespawns@idMultiplayerGame@@AAEXPAVidPlayer@@@Z 10081fb0 f   MultiplayerGame.obj
 0001:00081230       ?DisconnectClient@idMultiplayerGame@@QAEXH@Z 10082230 f   MultiplayerGame.obj
 0001:00081260       ?Run@idMultiplayerGame@@QAEXXZ 10082260 f   MultiplayerGame.obj
 0001:000818f0       ?GetType@idPlayer@@UBEPAVidTypeInfo@@XZ 100828f0 f   Player.obj
 0001:00081900       ?HasAmmo@idInventory@@QAEHHH@Z 10082900 f   Player.obj
 0001:00081930       ?UseAmmo@idInventory@@QAE_NHH@Z 10082930 f   Player.obj
 0001:00081980       ?UpdateArmor@idInventory@@QAEXXZ 10082980 f   Player.obj
 0001:000819f0       ??1idPhysics_Monster@@UAE@XZ 100829f0 f i AI.obj
 0001:000819f0       ??1idPhysics_Player@@UAE@XZ 100829f0 f i Player.obj
 0001:00081a00       ?GetUserInfo@idPlayer@@QAEPAVidDict@@XZ 10082a00 f   Player.obj
 0001:00081a10       ?BalanceTDM@idPlayer@@QAE_NXZ 10082a10 f   Player.obj
 0001:00081b10       ?PowerUpActive@idPlayer@@QBE_NH@Z 10082b10 f   Player.obj
 0001:00081b30       ?WeaponLoweringCallback@idPlayer@@QAEXXZ 10082b30 f   Player.obj
 0001:00081b50       ?WeaponRisingCallback@idPlayer@@QAEXXZ 10082b50 f   Player.obj
 0001:00081b70       ?SpectateCycle@idPlayer@@AAEXXZ 10082b70 f   Player.obj
 0001:00081c00       ?Collide@idPlayer@@UAE_NABUtrace_s@@ABVidVec3@@@Z 10082c00 f   Player.obj
 0001:00081cb0       ?ClearFocus@idPlayer@@AAEXXZ 10082cb0 f   Player.obj
 0001:00081ce0       ?UpdatePowerupHud@idPlayer@@QAEXXZ 10082ce0 f   Player.obj
 0001:00081db0       ?StartFxOnBone@idPlayer@@QAEXPBD0@Z 10082db0 f   Player.obj
 0001:00082060       ?Event_ToggleBloom@idPlayer@@AAEXH@Z 10083060 f   Player.obj
 0001:00082080       ?Event_SetBloomParms@idPlayer@@AAEXMM@Z 10083080 f   Player.obj
 0001:000820a0       ?RouteGuiMouse@idPlayer@@QAEXPAVidUserInterface@@@Z 100830a0 f   Player.obj
 0001:00082150       ?GetAIAimTargets@idPlayer@@UAEXABVidVec3@@AAV2@1@Z 10083150 f   Player.obj
 0001:00082250       ?GetEyePosition@idPlayer@@QBE?AVidVec3@@XZ 10083250 f   Player.obj
 0001:00082320       ?GetRenderView@idPlayer@@UAEPAUrenderView_s@@XZ 10083320 f   Player.obj
 0001:00082330       ?AddProjectilesFired@idPlayer@@QAEXH@Z 10083330 f   Player.obj
 0001:00082340       ?AddProjectileHits@idPlayer@@QAEXH@Z 10083340 f   Player.obj
 0001:00082350       ?SetInfluenceFov@idPlayer@@QAEXM@Z 10083350 f   Player.obj
 0001:00082360       ?OnLadder@idPlayer@@UBE_NXZ 10083360 f   Player.obj
 0001:00082370       ?Event_GetButtons@idPlayer@@AAEXXZ 10083370 f   Player.obj
 0001:00082380       ?Event_GetMove@idPlayer@@AAEXXZ 10083380 f   Player.obj
 0001:000823d0       ?Event_GetViewAngles@idPlayer@@AAEXXZ 100833d0 f   Player.obj
 0001:00082400       ?Event_StopFxFov@idPlayer@@AAEXXZ 10083400 f   Player.obj
 0001:00082410       ?Event_IsPowerupActive@idPlayer@@AAEXH@Z 10083410 f   Player.obj
 0001:00082440       ?Event_StartWarp@idPlayer@@AAEXXZ 10083440 f   Player.obj
 0001:000824b0       ?Event_InPDA@idPlayer@@AAEXXZ 100834b0 f   Player.obj
 0001:000824c0       ?TeleportDeath@idPlayer@@QAEXH@Z 100834c0 f   Player.obj
 0001:000824d0       ?GetPhysicsToSoundTransform@idPlayer@@UAE_NAAVidVec3@@AAVidMat3@@@Z 100834d0 f   Player.obj
 0001:000825b0       ?StartAudioLog@idPlayer@@QAEXXZ 100835b0 f   Player.obj
 0001:000825d0       ?Event_StopAudioLog@idPlayer@@QAEXXZ 100835d0 f   Player.obj
 0001:000825d0       ?StopAudioLog@idPlayer@@QAEXXZ 100835d0 f   Player.obj
 0001:000825f0       ?ShowTip@idPlayer@@QAEXPBD0_N@Z 100835f0 f   Player.obj
 0001:00082670       ?Event_HideTip@idPlayer@@AAEXXZ 10083670 f   Player.obj
 0001:00082670       ?HideTip@idPlayer@@QAEXXZ  10083670 f   Player.obj
 0001:00082690       ?HideObjective@idPlayer@@QAEXXZ 10083690 f   Player.obj
 0001:000826b0       ?SetSpectateOrigin@idPlayer@@AAEXXZ 100836b0 f   Player.obj
 0001:00082710       ?CanShowWeaponViewmodel@idPlayer@@QBE_NXZ 10083710 f   Player.obj
 0001:00082720       ?UpdatePlayerIcons@idPlayer@@UAEXXZ 10083720 f   Player.obj
 0001:00082760       ?HidePlayerIcons@idPlayer@@UAEXXZ 10083760 f   Player.obj
 0001:00082770       ?DropFlag@idPlayer@@QAEXXZ 10083770 f   Player.obj
 0001:000827e0       ?ReturnFlag@idPlayer@@QAEXXZ 100837e0 f   Player.obj
 0001:00082850       ?FreeModelDef@idPlayer@@UAEXXZ 10083850 f   Player.obj
 0001:00082880       ?GivePowerUp@idInventory@@QAEXPAVidPlayer@@HH@Z 10083880 f   Player.obj
 0001:00082940       ?GetPersistantData@idInventory@@QAEXAAVidDict@@@Z 10083940 f   Player.obj
 0001:00082de0       ??0idLevelTriggerInfo@@QAE@XZ 10083de0 f i Player.obj
 0001:00082de0       ??0idItemInfo@@QAE@XZ      10083de0 f i Player.obj
 0001:00082e10       ?Save@idInventory@@QBEXPAVidSaveGame@@@Z 10083e10 f   Player.obj
 0001:00083250       ??1idItemInfo@@QAE@XZ      10084250 f i Player.obj
 0001:00083250       ??1idLevelTriggerInfo@@QAE@XZ 10084250 f i Player.obj
 0001:000832a0       ??0idObjectiveInfo@@QAE@XZ 100842a0 f i Player.obj
 0001:000832e0       ??1idModelExport@@QAE@XZ   100842e0 f i SysCmds.obj
 0001:000832e0       ??1idObjectiveInfo@@QAE@XZ 100842e0 f i Player.obj
 0001:00083340       ?MaxAmmoForAmmoClass@idInventory@@QBEHPAVidPlayer@@PBD@Z 10084340 f   Player.obj
 0001:00083390       ?AmmoIndexForWeaponClass@idInventory@@QAEHPBDPAH@Z 10084390 f   Player.obj
 0001:00083430       ?Drop@idInventory@@QAEXABVidDict@@PBDH@Z 10084430 f   Player.obj
 0001:00083550       ?RechargeAmmo@idInventory@@QAEXPAVidPlayer@@@Z 10084550 f   Player.obj
 0001:00083600       ?CanGive@idInventory@@QAE_NPAVidPlayer@@ABVidDict@@PBD2PAH@Z 10084600 f   Player.obj
 0001:000836c0       ?LinkScriptVariables@idPlayer@@QAEXXZ 100846c0 f   Player.obj
 0001:00083b20       ?SetupWeaponEntity@idPlayer@@QAEXXZ 10084b20 f   Player.obj
 0001:00083c20       ?Save@idPlayer@@QBEXPAVidSaveGame@@@Z 10084c20 f   Player.obj
 0001:000846e0       ?SavePersistantInfo@idPlayer@@QAEXXZ 100856e0 f   Player.obj
 0001:00084750       ?UpdateHudAmmo@idPlayer@@QAEXPAVidUserInterface@@@Z 10085750 f   Player.obj
 0001:00084b30       ?UpdateHudWeapon@idPlayer@@QAEX_N@Z 10085b30 f   Player.obj
 0001:00084c50       ?ExitCinematic@idPlayer@@QAEXXZ 10085c50 f   Player.obj
 0001:00084cc0       ?UpdateConditions@idPlayer@@QAEXXZ 10085cc0 f   Player.obj
 0001:00084ff0       ?WeaponFireFeedback@idPlayer@@QAEXPBVidDict@@@Z 10085ff0 f   Player.obj
 0001:00085020       ?StopFiring@idPlayer@@AAEXXZ 10086020 f   Player.obj
 0001:000850a0       ?CacheWeapons@idPlayer@@QAEXXZ 100860a0 f   Player.obj
 0001:000851b0       ?GiveHealthPool@idPlayer@@QAEXM@Z 100861b0 f   Player.obj
 0001:00085230       ?PowerUpModifier@idPlayer@@QAEMH@Z 10086230 f   Player.obj
 0001:000852d0       ?ClearPowerup@idPlayer@@AAEXH@Z 100862d0 f   Player.obj
 0001:00085490       ?UpdatePowerUps@idPlayer@@AAEXXZ 10086490 f   Player.obj
 0001:00085970       ?ClearPowerUps@idPlayer@@QAEXXZ 10086970 f   Player.obj
 0001:00085a10       ?UpdateObjectiveInfo@idPlayer@@AAEXXZ 10086a10 f   Player.obj
 0001:00085b60       ?FindInventoryItem@idPlayer@@QAEPAVidDict@@PBD@Z 10086b60 f   Player.obj
 0001:00085be0       ?SlotForWeapon@idPlayer@@QAEHPBD@Z 10086be0 f   Player.obj
 0001:00085c40       ?Reload@idPlayer@@QAEXXZ   10086c40 f   Player.obj
 0001:00085cd0       ?UpdateLocation@idPlayer@@AAEXXZ 10086cd0 f   Player.obj
 0001:00085d50       ?UpdateFocus@idPlayer@@AAEXXZ 10086d50 f   Player.obj
 0001:00086970       ?CrashLand@idPlayer@@AAEXABVidVec3@@0@Z 10087970 f   Player.obj
 0001:00086f10       ?BobCycle@idPlayer@@AAEXABVidVec3@@@Z 10087f10 f   Player.obj
 0001:00087630       ?UpdateDeltaViewAngles@idPlayer@@QAEXABVidAngles@@@Z 10088630 f   Player.obj
 0001:000876a0       ?SetViewAngles@idPlayer@@QAEXABVidAngles@@@Z 100886a0 f   Player.obj
 0001:000876d0       ?UpdateViewAngles@idPlayer@@AAEXXZ 100886d0 f   Player.obj
 0001:00087d20       ?AdjustHeartRate@idPlayer@@QAEXHMM_N@Z 10088d20 f   Player.obj
 0001:00087dd0       ?GetBaseHeartRate@idPlayer@@QAEHXZ 10088dd0 f   Player.obj
 0001:00087e80       ?SetCurrentHeartRate@idPlayer@@QAEXXZ 10088e80 f   Player.obj
 0001:000881b0       ?UpdateAir@idPlayer@@QAEXXZ 100891b0 f   Player.obj
 0001:000883e0       ?GetPDA@idPlayer@@QBEPBVidDeclPDA@@XZ 100893e0 f   Player.obj
 0001:00088410       ?SetClipModel@idPlayer@@QAEXXZ 10089410 f   Player.obj
 0001:000886c0       ?UseVehicle@idPlayer@@AAEXXZ 100896c0 f   Player.obj
 0001:00088820       ?AdjustSpeed@idPlayer@@AAEXXZ 10089820 f   Player.obj
 0001:00088ad0       ?AdjustBodyAngles@idPlayer@@AAEXXZ 10089ad0 f   Player.obj
 0001:000891d0       ?SetAASLocation@idPlayer@@AAEXXZ 1008a1d0 f   Player.obj
 0001:000892e0       ?GetAASLocation@idPlayer@@UBEXPAVidAAS@@AAVidVec3@@AAH@Z 1008a2e0 f   Player.obj
 0001:00089370       ?Move@idPlayer@@AAEXXZ     1008a370 f   Player.obj
 0001:000899e0       ?UpdateDeathSkin@idPlayer@@AAEX_N@Z 1008a9e0 f   Player.obj
 0001:00089ac0       ?GetCurrentWeapon@idPlayer@@QAE?AVidStr@@XZ 1008aac0 f   Player.obj
 0001:00089bb0       ?CanGive@idPlayer@@QAE_NPBD0@Z 1008abb0 f   Player.obj
 0001:00089c90       ?StopHelltime@idPlayer@@QAEX_N@Z 1008ac90 f   Player.obj
 0001:00089df0       ?PlayHelltimeStopSound@idPlayer@@QAEXXZ 1008adf0 f   Player.obj
 0001:00089e40       ?LookAtKiller@idPlayer@@AAEXPAVidEntity@@0@Z 1008ae40 f   Player.obj
 0001:00089f30       ?CalcDamagePoints@idPlayer@@QAEXPAVidEntity@@0PBVidDict@@MHPAH2@Z 1008af30 f   Player.obj
 0001:0008a260       ?Damage@idPlayer@@UAEXPAVidEntity@@0ABVidVec3@@PBDMH@Z 1008b260 f   Player.obj
 0001:0008ac30       ?Teleport@idPlayer@@UAEXABVidVec3@@ABVidAngles@@PAVidEntity@@@Z 1008bc30 f   Player.obj
 0001:0008ae00       ?SetPrivateCameraView@idPlayer@@QAEXPAVidCamera@@@Z 1008be00 f   Player.obj
 0001:0008ae40       ?DefaultFov@idPlayer@@QBEMXZ 1008be40 f   Player.obj
 0001:0008ae90       ?CalcFov@idPlayer@@QAEM_N@Z 1008be90 f   Player.obj
 0001:0008b0b0       ?GunTurningOffset@idPlayer@@AAE?AVidAngles@@XZ 1008c0b0 f   Player.obj
 0001:0008b330       ?GunAcceleratingOffset@idPlayer@@AAE?AVidVec3@@XZ 1008c330 f   Player.obj
 0001:0008b4a0       ?CalculateViewWeaponPos@idPlayer@@QAEXAAVidVec3@@AAVidMat3@@@Z 1008c4a0 f   Player.obj
 0001:0008b950       ?OffsetThirdPersonView@idPlayer@@QAEXMMM_N@Z 1008c950 f   Player.obj
 0001:0008c0b0       ?GetViewPos@idPlayer@@UBEXAAVidVec3@@AAVidMat3@@@Z 1008d0b0 f   Player.obj
 0001:0008c470       ?CalculateFirstPersonView@idPlayer@@QAEXXZ 1008d470 f   Player.obj
 0001:0008ca40       ?CalculateRenderView@idPlayer@@QAEXXZ 1008da40 f   Player.obj
 0001:0008ce40       ?SetSoulCubeProjectile@idPlayer@@QAEXPAVidProjectile@@@Z 1008de40 f   Player.obj
 0001:0008cea0       ?SetLastHitTime@idPlayer@@QAEXH@Z 1008dea0 f   Player.obj
 0001:0008d0c0       ?SetInfluenceLevel@idPlayer@@QAEXH@Z 1008e0c0 f   Player.obj
 0001:0008d220       ?SetInfluenceView@idPlayer@@QAEXPBD0MPAVidEntity@@@Z 1008e220 f   Player.obj
 0001:0008d310       ?Event_EnableWeapon@idPlayer@@AAEXXZ 1008e310 f   Player.obj
 0001:0008d3a0       ?Event_DisableWeapon@idPlayer@@AAEXXZ 1008e3a0 f   Player.obj
 0001:0008d430       ?Event_GetIdealWeapon@idPlayer@@AAEXXZ 1008e430 f   Player.obj
 0001:0008d490       ?Event_StopHelltime@idPlayer@@AAEXH@Z 1008e490 f   Player.obj
 0001:0008d4c0       ?WeaponAvailable@idPlayer@@AAE_NPBD@Z 1008e4c0 f   Player.obj
 0001:0008d530       ?Event_GetCurrentWeapon@idPlayer@@AAEXXZ 1008e530 f   Player.obj
 0001:0008d590       ?Event_GetPreviousWeapon@idPlayer@@AAEXXZ 1008e590 f   Player.obj
 0001:0008d640       ?Event_SelectWeapon@idPlayer@@AAEXPBD@Z 1008e640 f   Player.obj
 0001:0008d780       ?Event_GetWeaponEntity@idPlayer@@AAEXXZ 1008e780 f   Player.obj
 0001:0008d7c0       ?Event_ExitTeleporter@idPlayer@@AAEXXZ 1008e7c0 f   Player.obj
 0001:0008da40       ?GetPhysicsToVisualTransform@idPlayer@@UAE_NAAVidVec3@@AAVidMat3@@@Z 1008ea40 f   Player.obj
 0001:0008df20       ?WriteToSnapshot@idPlayer@@UBEXAAVidBitMsgDelta@@@Z 1008ef20 f   Player.obj
 0001:0008e0f0       ?WritePlayerStateToSnapshot@idPlayer@@QBEXAAVidBitMsgDelta@@@Z 1008f0f0 f   Player.obj
 0001:0008e1a0       ?ReadPlayerStateFromSnapshot@idPlayer@@QAEXABVidBitMsgDelta@@@Z 1008f1a0 f   Player.obj
 0001:0008e260       ?Hide@idPlayer@@UAEXXZ     1008f260 f   Player.obj
 0001:0008e2a0       ?Show@idPlayer@@UAEXXZ     1008f2a0 f   Player.obj
 0001:0008e2e0       ?RemoveWeapon@idPlayer@@QAEXPBD@Z 1008f2e0 f   Player.obj
 0001:0008e340       ?Event_LevelTrigger@idPlayer@@AAEXXZ 1008f340 f   Player.obj
 0001:0008e470       ?NeedsIcon@idPlayer@@QAE_NXZ 1008f470 f   Player.obj
 0001:0008e4d0       ??4idItemInfo@@QAEAAU0@ABU0@@Z 1008f4d0 f i Player.obj
 0001:0008e4d0       ??4idLevelTriggerInfo@@QAEAAU0@ABU0@@Z 1008f4d0 f i Player.obj
 0001:0008e550       ??4idObjectiveInfo@@QAEAAU0@ABU0@@Z 1008f550 f i Player.obj
 0001:0008e600       ??4WeaponToggle_t@@QAEAAU0@ABU0@@Z 1008f600 f i Player.obj
 0001:0008e690       ?HasAmmo@idInventory@@QAEHPBD_NPAVidPlayer@@@Z 1008f690 f   Player.obj
 0001:0008e6f0       ?HasEmptyClipCannotRefill@idInventory@@QAE_NPBDPAVidPlayer@@@Z 1008f6f0 f   Player.obj
 0001:0008e7f0       ?InitRechargeAmmo@idInventory@@QAEXPAVidPlayer@@@Z 1008f7f0 f   Player.obj
 0001:0008e950       ??1WeaponToggle_t@@QAE@XZ  1008f950 f i Player.obj
 0001:0008e980       ?SelectInitialSpawnPoint@idPlayer@@QAEXAAVidVec3@@AAVidAngles@@@Z 1008f980 f   Player.obj
 0001:0008eaf0       ?UpdateSkinSetup@idPlayer@@QAEX_N@Z 1008faf0 f   Player.obj
 0001:0008ee40       ?UserInfoChanged@idPlayer@@QAE_N_N@Z 1008fe40 f   Player.obj
 0001:0008f140       ?UpdateHudStats@idPlayer@@QAEXPAVidUserInterface@@@Z 10090140 f   Player.obj
 0001:0008f3a0       ?DrawHUD@idPlayer@@QAEXPAVidUserInterface@@@Z 100903a0 f   Player.obj
 0001:0008f5d0       ?EnterCinematic@idPlayer@@QAEXXZ 100905d0 f   Player.obj
 0001:0008f7f0       ?GiveSecurity@idPlayer@@QAEXPBD@Z 100907f0 f   Player.obj
 0001:0008f870       ?NextBestWeapon@idPlayer@@QAEXXZ 10090870 f   Player.obj
 0001:0008f9c0       ?NextWeapon@idPlayer@@QAEXXZ 100909c0 f   Player.obj
 0001:0008fb30       ?PrevWeapon@idPlayer@@QAEXXZ 10090b30 f   Player.obj
 0001:0008fca0       ?SelectWeapon@idPlayer@@QAEXH_N@Z 10090ca0 f   Player.obj
 0001:000900f0       ?DropWeapon@idPlayer@@QAEX_N@Z 100910f0 f   Player.obj
 0001:00090650       ?SpectateFreeFly@idPlayer@@AAEX_N@Z 10091650 f   Player.obj
 0001:00090940       ?UpdateSpectating@idPlayer@@AAEXXZ 10091940 f   Player.obj
 0001:000909a0       ?AddGuiPDAData@idPlayer@@AAEHW4declType_t@@PBDPBVidDeclPDA@@PAVidUserInterface@@@Z 100919a0 f   Player.obj
 0001:00090d80       ?UpdatePDAInfo@idPlayer@@AAEX_N@Z 10091d80 f   Player.obj
 0001:00091680       ?TogglePDA@idPlayer@@QAEXXZ 10092680 f   Player.obj
 0001:00091b50       ?PerformImpulse@idPlayer@@QAEXH@Z 10092b50 f   Player.obj
 0001:000921d0       ?HandleESC@idPlayer@@QAE_NXZ 100931d0 f   Player.obj
 0001:00092210       ?EvaluateControls@idPlayer@@AAEXXZ 10093210 f   Player.obj
 0001:000922d0       ?Killed@idPlayer@@UAEXPAVidEntity@@0HABVidVec3@@H@Z 100932d0 f   Player.obj
 0001:000925e0       ?DamageFeedback@idPlayer@@UAEXPAVidEntity@@0AAH@Z 100935e0 f   Player.obj
 0001:00092700       ?Event_WeaponAvailable@idPlayer@@AAEXPBD@Z 10093700 f   Player.obj
 0001:00092720       ?Event_OpenPDA@idPlayer@@AAEXXZ 10093720 f   Player.obj
 0001:00092730       ?ServerReceiveEvent@idPlayer@@UAE_NHHABVidBitMsg@@@Z 10093730 f   Player.obj
 0001:00092780       ?DrawPlayerIcons@idPlayer@@UAEXXZ 10093780 f   Player.obj
 0001:000927c0       ??0WeaponToggle_t@@QAE@ABU0@@Z 100937c0 f i Player.obj
 0001:00092840       ??0hashnode_s@?$idHashTable@UWeaponToggle_t@@@@QAE@PBDUWeaponToggle_t@@PAU01@@Z 10093840 f i Player.obj
 0001:00092910       ?FireWeapon@idPlayer@@AAEXXZ 10093910 f   Player.obj
 0001:00092b40       ?GiveInventoryItem@idPlayer@@QAE_NPBD@Z 10093b40 f   Player.obj
 0001:00092cf0       ?CompleteObjective@idPlayer@@QAEXPBD@Z 10093cf0 f   Player.obj
 0001:00092dc0       ?GiveEmail@idPlayer@@QAEXPBD@Z 10093dc0 f   Player.obj
 0001:000931e0       ?GivePDA@idPlayer@@QAEXPBDPAVidDict@@@Z 100941e0 f   Player.obj
 0001:00093f80       ?GiveItem@idPlayer@@QAEXPBD@Z 10094f80 f   Player.obj
 0001:00094140       ?Weapon_Combat@idPlayer@@AAEXXZ 10095140 f   Player.obj
 0001:00094690       ?Weapon_NPC@idPlayer@@AAEXXZ 10095690 f   Player.obj
 0001:00094700       ?Weapon_GUI@idPlayer@@AAEXXZ 10095700 f   Player.obj
 0001:00094850       ?UpdateWeapon@idPlayer@@AAEXXZ 10095850 f   Player.obj
 0001:00094aa0       ?HandleSingleGuiCommand@idPlayer@@UAE_NPAVidEntity@@PAVidLexer@@@Z 10095aa0 f   Player.obj
 0001:00094f40       ?InitAASLocation@idPlayer@@AAEXXZ 10095f40 f   Player.obj
 0001:00095220       ?UpdateHud@idPlayer@@QAEXXZ 10096220 f   Player.obj
 0001:000955e0       ?Event_GiveInventoryItem@idPlayer@@AAEXPBD@Z 100965e0 f   Player.obj
 0001:000955f0       ?ClientPredictionThink@idPlayer@@UAEXXZ 100965f0 f   Player.obj
 0001:00095cf0       ??1?$idList@UidLevelTriggerInfo@@@@QAE@XZ 10096cf0 f i Player.obj
 0001:00095cf0       ??1?$idList@UidItemInfo@@@@QAE@XZ 10096cf0 f i Player.obj
 0001:00095d30       ??1?$idList@UidObjectiveInfo@@@@QAE@XZ 10096d30 f i Player.obj
 0001:00095d70       ?Clear@idInventory@@QAEXXZ 10096d70 f   Player.obj
 0001:00096070       ?Restore@idInventory@@QAEXPAVidRestoreGame@@@Z 10097070 f   Player.obj
 0001:00097e60       ?AddPickupName@idInventory@@QAEXPBD0PAVidPlayer@@@Z 10098e60 f   Player.obj
 0001:00098190       ?Restore@idPlayer@@QAEXPAVidRestoreGame@@@Z 10099190 f   Player.obj
 0001:00099150       ?GivePowerUp@idPlayer@@QAE_NHH@Z 1009a150 f   Player.obj
 0001:00099800       ?GiveInventoryItem@idPlayer@@QAE_NPAVidDict@@@Z 1009a800 f   Player.obj
 0001:00099e00       ?GiveObjective@idPlayer@@QAEXPBD00@Z 1009ae00 f   Player.obj
 0001:0009a150       ?GiveVideo@idPlayer@@QAEXPBDPAVidDict@@@Z 1009b150 f   Player.obj
 0001:0009a870       ?RemoveInventoryItem@idPlayer@@QAEXPAVidDict@@@Z 1009b870 f   Player.obj
 0001:0009a9f0       ?Event_SetPowerupTime@idPlayer@@AAEXHH@Z 1009b9f0 f   Player.obj
 0001:0009aa10       ?SetLevelTrigger@idPlayer@@QAEXPBD0@Z 1009ba10 f   Player.obj
 0001:0009acf0       ??0idInventory@@QAE@XZ     1009bcf0 f i Player.obj
 0001:0009ae00       ??1idInventory@@QAE@XZ     1009be00 f i Player.obj
 0001:0009b020       ?Give@idInventory@@QAE_NPAVidPlayer@@ABVidDict@@PBD2PAH_N@Z 1009c020 f   Player.obj
 0001:0009bb40       ?Give@idPlayer@@QAE_NPBD0@Z 1009cb40 f   Player.obj
 0001:0009bf20       ?GiveItem@idPlayer@@QAE_NPAVidItem@@@Z 1009cf20 f   Player.obj
 0001:0009c1e0       ?RemoveInventoryItem@idPlayer@@QAEXPBD@Z 1009d1e0 f   Player.obj
 0001:0009c1e0       ?Event_RemoveInventoryItem@idPlayer@@AAEXPBD@Z 1009d1e0 f   Player.obj
 0001:0009c230       ?StealWeapon@idPlayer@@QAEXPAV1@@Z 1009d230 f   Player.obj
 0001:0009c410       ?Think@idPlayer@@UAEXXZ    1009d410 f   Player.obj
 0001:0009cf80       ??1?$idHashTable@UWeaponToggle_t@@@@QAE@XZ 1009df80 f i Player.obj
 0001:0009d040       ?RestoreInventory@idInventory@@QAEXPAVidPlayer@@ABVidDict@@@Z 1009e040 f   Player.obj
 0001:0009e1e0       ??0idPlayer@@QAE@XZ        1009f1e0 f   Player.obj
 0001:0009ea90       ??1idPlayer@@UAE@XZ        1009fa90 f   Player.obj
 0001:0009ecc0       ?RestorePersistantInfo@idPlayer@@QAEXXZ 1009fcc0 f   Player.obj
 0001:0009ed80       ?CreateInstance@idPlayer@@SAPAVidClass@@XZ 1009fd80 f   Player.obj
 0001:0009ee20       ??_GidPlayer@@UAEPAXI@Z    1009fe20 f i Player.obj
 0001:0009ee20       ??_EidPlayer@@UAEPAXI@Z    1009fe20 f i Player.obj
 0001:0009ee40       ?Init@idPlayer@@QAEXXZ     1009fe40 f   Player.obj
 0001:0009f640       ?SpawnToPoint@idPlayer@@QAEXABVidVec3@@ABVidAngles@@@Z 100a0640 f   Player.obj
 0001:0009f8c0       ?Spectate@idPlayer@@QAEX_N@Z 100a08c0 f   Player.obj
 0001:0009f9e0       ?ReadFromSnapshot@idPlayer@@UAEXABVidBitMsgDelta@@@Z 100a09e0 f   Player.obj
 0001:000a0080       ?ClientReceiveEvent@idPlayer@@UAE_NHHABVidBitMsg@@@Z 100a1080 f   Player.obj
 0001:000a01e0       ?PrepareForRestart@idPlayer@@QAEXXZ 100a11e0 f   Player.obj
 0001:000a0240       ?Spawn@idPlayer@@QAEXXZ    100a1240 f   Player.obj
 0001:000a0e20       ?Restart@idPlayer@@UAEXXZ  100a1e20 f   Player.obj
 0001:000a0e80       ?ServerSpectate@idPlayer@@QAEX_N@Z 100a1e80 f   Player.obj
 0001:000a0f20       ?Kill@idPlayer@@QAEX_N0@Z  100a1f20 f   Player.obj
 0001:000a1030       ?FreeIcon@idPlayerIcon@@QAEXXZ 100a2030 f   PlayerIcon.obj
 0001:000a1030       ??1idPlayerIcon@@QAE@XZ    100a2030 f   PlayerIcon.obj
 0001:000a1060       ?CreateIcon@idPlayerIcon@@QAE_NPAVidPlayer@@W4playerIconType_t@@PBDABVidVec3@@ABVidMat3@@@Z 100a2060 f   PlayerIcon.obj
 0001:000a11d0       ?UpdateIcon@idPlayerIcon@@QAEXPAVidPlayer@@ABVidVec3@@ABVidMat3@@@Z 100a21d0 f   PlayerIcon.obj
 0001:000a1240       ??0idPlayerIcon@@QAE@XZ    100a2240 f   PlayerIcon.obj
 0001:000a1260       ?CreateIcon@idPlayerIcon@@QAE_NPAVidPlayer@@W4playerIconType_t@@ABVidVec3@@ABVidMat3@@@Z 100a2260 f   PlayerIcon.obj
 0001:000a12b0       ?Draw@idPlayerIcon@@QAEXPAVidPlayer@@ABVidVec3@@@Z 100a22b0 f   PlayerIcon.obj
 0001:000a1490       ?Draw@idPlayerIcon@@QAEXPAVidPlayer@@W4jointHandle_t@@@Z 100a2490 f   PlayerIcon.obj
 0001:000a1530       ?SetPlayerEntity@idPlayerView@@QAEXPAVidPlayer@@@Z 100a2530 f   PlayerView.obj
 0001:000a1540       ?ClearEffects@idPlayerView@@QAEXXZ 100a2540 f   PlayerView.obj
 0001:000a15f0       ?GetScreenBlob@idPlayerView@@AAEPAUscreenBlob_t@@XZ 100a25f0 f   PlayerView.obj
 0001:000a1670       ?SetTriggerState@FxFader@@QAE_N_N@Z 100a2670 f   PlayerView.obj
 0001:000a1740       ?Save@FxFader@@UAEXPAVidSaveGame@@@Z 100a2740 f   PlayerView.obj
 0001:000a1780       ?Restore@FxFader@@UAEXPAVidRestoreGame@@@Z 100a2780 f   PlayerView.obj
 0001:000a17c0       ?Save@FullscreenFX@@UAEXPAVidSaveGame@@@Z 100a27c0 f   PlayerView.obj
 0001:000a17d0       ?Restore@FullscreenFX@@UAEXPAVidRestoreGame@@@Z 100a27d0 f   PlayerView.obj
 0001:000a17e0       ?Initialize@FullscreenFX_Helltime@@UAEXXZ 100a27e0 f   PlayerView.obj
 0001:000a1950       ?Restore@FullscreenFX_Helltime@@UAEXPAVidRestoreGame@@@Z 100a2950 f   PlayerView.obj
 0001:000a1970       ?Initialize@FullscreenFX_Multiplayer@@UAEXXZ 100a2970 f   PlayerView.obj
 0001:000a19f0       ?Restore@FullscreenFX_Multiplayer@@UAEXPAVidRestoreGame@@@Z 100a29f0 f   PlayerView.obj
 0001:000a1a10       ?Initialize@FullscreenFX_Warp@@UAEXXZ 100a2a10 f   PlayerView.obj
 0001:000a1a40       ?Active@FullscreenFX_Warp@@UAE_NXZ 100a2a40 f   PlayerView.obj
 0001:000a1a50       ?Save@FullscreenFX_Warp@@UAEXPAVidSaveGame@@@Z 100a2a50 f   PlayerView.obj
 0001:000a1a80       ?Restore@FullscreenFX_Warp@@UAEXPAVidRestoreGame@@@Z 100a2a80 f   PlayerView.obj
 0001:000a1ab0       ?Initialize@FullscreenFX_EnviroSuit@@UAEXXZ 100a2ab0 f   PlayerView.obj
 0001:000a1ad0       ?Active@FullscreenFX_EnviroSuit@@UAE_NXZ 100a2ad0 f   PlayerView.obj
 0001:000a1af0       ?HighQuality@FullscreenFX_EnviroSuit@@UAEXXZ 100a2af0 f   PlayerView.obj
 0001:000a1b60       ?Initialize@FullscreenFX_DoubleVision@@UAEXXZ 100a2b60 f   PlayerView.obj
 0001:000a1b80       ?Active@FullscreenFX_DoubleVision@@UAE_NXZ 100a2b80 f   PlayerView.obj
 0001:000a1ba0       ?Active@FullscreenFX_InfluenceVision@@UAE_NXZ 100a2ba0 f   PlayerView.obj
 0001:000a1bd0       ?HighQuality@FullscreenFX_InfluenceVision@@UAEXXZ 100a2bd0 f   PlayerView.obj
 0001:000a1df0       ?Initialize@FullscreenFX_Bloom@@UAEXXZ 100a2df0 f   PlayerView.obj
 0001:000a1e50       ?Active@FullscreenFX_Bloom@@UAE_NXZ 100a2e50 f   PlayerView.obj
 0001:000a1e70       ?Save@FullscreenFX_Bloom@@UAEXPAVidSaveGame@@@Z 100a2e70 f   PlayerView.obj
 0001:000a1eb0       ?Restore@FullscreenFX_Bloom@@UAEXPAVidRestoreGame@@@Z 100a2eb0 f   PlayerView.obj
 0001:000a1ee0       ?Blendback@FullscreenFXManager@@QAEXM@Z 100a2ee0 f   PlayerView.obj
 0001:000a1f70       ?DamageImpulse@idPlayerView@@QAEXVidVec3@@PBVidDict@@@Z 100a2f70 f   PlayerView.obj
 0001:000a2350       ?WeaponFireFeedback@idPlayerView@@QAEXPBVidDict@@@Z 100a3350 f   PlayerView.obj
 0001:000a23f0       ?CalculateShake@idPlayerView@@QAEXXZ 100a33f0 f   PlayerView.obj
 0001:000a24f0       ?AngleOffset@idPlayerView@@QBE?AVidAngles@@XZ 100a34f0 f   PlayerView.obj
 0001:000a2640       ?Fade@idPlayerView@@QAEXVidVec4@@H@Z 100a3640 f   PlayerView.obj
 0001:000a2850       ?ScreenFade@idPlayerView@@AAEXXZ 100a3850 f   PlayerView.obj
 0001:000a2bb0       ?DetermineLevel@FullscreenFX_Helltime@@AAEHXZ 100a3bb0 f   PlayerView.obj
 0001:000a2c10       ?Active@FullscreenFX_Helltime@@UAE_NXZ 100a3c10 f   PlayerView.obj
 0001:000a2c50       ?AccumPass@FullscreenFX_Helltime@@UAEXPBUrenderView_s@@@Z 100a3c50 f   PlayerView.obj
 0001:000a2d70       ?HighQuality@FullscreenFX_Helltime@@UAEXXZ 100a3d70 f   PlayerView.obj
 0001:000a2e50       ?Active@FullscreenFX_Multiplayer@@UAE_NXZ 100a3e50 f   PlayerView.obj
 0001:000a2ec0       ?AccumPass@FullscreenFX_Multiplayer@@UAEXPBUrenderView_s@@@Z 100a3ec0 f   PlayerView.obj
 0001:000a3000       ?HighQuality@FullscreenFX_Multiplayer@@UAEXXZ 100a4000 f   PlayerView.obj
 0001:000a3100       ?HighQuality@FullscreenFX_DoubleVision@@UAEXXZ 100a4100 f   PlayerView.obj
 0001:000a3340       ?HighQuality@FullscreenFX_Bloom@@UAEXXZ 100a4340 f   PlayerView.obj
 0001:000a3550       ??0FullscreenFX_EnviroSuit@@QAE@XZ 100a4550 f i PlayerView.obj
 0001:000a3590       ??0FullscreenFX_DoubleVision@@QAE@XZ 100a4590 f i PlayerView.obj
 0001:000a35d0       ??0FullscreenFX_Multiplayer@@QAE@XZ 100a45d0 f i PlayerView.obj
 0001:000a3610       ??0FullscreenFX_InfluenceVision@@QAE@XZ 100a4610 f i PlayerView.obj
 0001:000a3650       ??0FullscreenFX_Bloom@@QAE@XZ 100a4650 f i PlayerView.obj
 0001:000a3690       ?Process@FullscreenFXManager@@QAEXPBUrenderView_s@@@Z 100a4690 f   PlayerView.obj
 0001:000a38e0       ?SetName@FullscreenFX@@QAEXVidStr@@@Z 100a48e0 f i PlayerView.obj
 0001:000a3960       ?GetName@FullscreenFX@@QAE?AVidStr@@XZ 100a4960 f i PlayerView.obj
 0001:000a39c0       ?Save@idPlayerView@@QBEXPAVidSaveGame@@@Z 100a49c0 f   PlayerView.obj
 0001:000a3be0       ?Restore@idPlayerView@@QAEXPAVidRestoreGame@@@Z 100a4be0 f   PlayerView.obj
 0001:000a3de0       ?SingleView@idPlayerView@@AAEXPAVidUserInterface@@PBUrenderView_s@@@Z 100a4de0 f   PlayerView.obj
 0001:000a46d0       ?Flash@idPlayerView@@QAEXVidVec4@@H@Z 100a56d0 f   PlayerView.obj
 0001:000a4750       ?RenderPlayerView@idPlayerView@@QAEXPAVidUserInterface@@@Z 100a5750 f   PlayerView.obj
 0001:000a4810       ?DrawWarp@FullscreenFX_Warp@@AAEXVWarpPolygon_t@@M@Z 100a5810 f   PlayerView.obj
 0001:000a4c60       ?HighQuality@FullscreenFX_Warp@@UAEXXZ 100a5c60 f   PlayerView.obj
 0001:000a4e30       ?FindFX@FullscreenFXManager@@QAEPAVFullscreenFX@@VidStr@@@Z 100a5e30 f   PlayerView.obj
 0001:000a4f00       ?CreateFX@FullscreenFXManager@@AAEXVidStr@@0H@Z 100a5f00 f   PlayerView.obj
 0001:000a5290       ??_EFullscreenFX@@UAEPAXI@Z 100a6290 f i PlayerView.obj
 0001:000a5290       ??_GFullscreenFX_InfluenceVision@@UAEPAXI@Z 100a6290 f i PlayerView.obj
 0001:000a5290       ??_EFullscreenFX_Bloom@@UAEPAXI@Z 100a6290 f i PlayerView.obj
 0001:000a5290       ??_GFullscreenFX_Helltime@@UAEPAXI@Z 100a6290 f i PlayerView.obj
 0001:000a5290       ??_GFullscreenFX_Multiplayer@@UAEPAXI@Z 100a6290 f i PlayerView.obj
 0001:000a5290       ??_EFullscreenFX_Helltime@@UAEPAXI@Z 100a6290 f i PlayerView.obj
 0001:000a5290       ??_GFullscreenFX_Warp@@UAEPAXI@Z 100a6290 f i PlayerView.obj
 0001:000a5290       ??_EFullscreenFX_InfluenceVision@@UAEPAXI@Z 100a6290 f i PlayerView.obj
 0001:000a5290       ??_EFullscreenFX_Multiplayer@@UAEPAXI@Z 100a6290 f i PlayerView.obj
 0001:000a5290       ??_GFullscreenFX_EnviroSuit@@UAEPAXI@Z 100a6290 f i PlayerView.obj
 0001:000a5290       ??_EFullscreenFX_EnviroSuit@@UAEPAXI@Z 100a6290 f i PlayerView.obj
 0001:000a5290       ??_GFullscreenFX_DoubleVision@@UAEPAXI@Z 100a6290 f i PlayerView.obj
 0001:000a5290       ??_GFullscreenFX_Bloom@@UAEPAXI@Z 100a6290 f i PlayerView.obj
 0001:000a5290       ??_EFullscreenFX_Warp@@UAEPAXI@Z 100a6290 f i PlayerView.obj
 0001:000a5290       ??_EFullscreenFX_DoubleVision@@UAEPAXI@Z 100a6290 f i PlayerView.obj
 0001:000a5290       ??_GFullscreenFX@@UAEPAXI@Z 100a6290 f i PlayerView.obj
 0001:000a52c0       ?Initialize@FullscreenFXManager@@QAEXPAVidPlayerView@@@Z 100a62c0 f   PlayerView.obj
 0001:000a5850       ??0idPlayerView@@QAE@XZ    100a6850 f   PlayerView.obj
 0001:000a5a70       ?AddWarp@idPlayerView@@QAEHVidVec3@@MMMM@Z 100a6a70 f   PlayerView.obj
 0001:000a5af0       ?FreeWarp@idPlayerView@@QAEXH@Z 100a6af0 f   PlayerView.obj
 0001:000a5b70       ??_EFullscreenFXManager@@UAEPAXI@Z 100a6b70 f i PlayerView.obj
 0001:000a5b70       ??_GFullscreenFXManager@@UAEPAXI@Z 100a6b70 f i PlayerView.obj
 0001:000a5bc0       ?GetType@idProjectile@@UBEPAVidTypeInfo@@XZ 100a6bc0 f   Projectile.obj
 0001:000a5bd0       ?Spawn@idProjectile@@QAEXXZ 100a6bd0 f   Projectile.obj
 0001:000a5ca0       ?FreeLightDef@idProjectile@@UAEXXZ 100a6ca0 f   Projectile.obj
 0001:000a5cd0       ?Event_GetProjectileState@idProjectile@@AAEXXZ 100a6cd0 f   Projectile.obj
 0001:000a5ce0       ?GetVelocity@idProjectile@@SA?AVidVec3@@PBVidDict@@@Z 100a6ce0 f   Projectile.obj
 0001:000a5d00       ?GetProjectileState@idProjectile@@QAEHXZ 100a6d00 f   Projectile.obj
 0001:000a5d10       ?Event_LaunchProjectile@idProjectile@@QAEXABVidVec3@@00@Z 100a6d10 f   Projectile.obj
 0001:000a5d40       ?Event_SetGravity@idProjectile@@QAEXM@Z 100a6d40 f   Projectile.obj
 0001:000a5e30       ?ClientPredictionThink@idProjectile@@UAEXXZ 100a6e30 f   Projectile.obj
 0001:000a5e50       ?GetType@idGuidedProjectile@@UBEPAVidTypeInfo@@XZ 100a6e50 f   Projectile.obj
 0001:000a5e60       ?GetType@idSoulCubeMissile@@UBEPAVidTypeInfo@@XZ 100a6e60 f   Projectile.obj
 0001:000a5e70       ?Spawn@idSoulCubeMissile@@QAEXXZ 100a6e70 f   Projectile.obj
 0001:000a5ec0       ?Save@idSoulCubeMissile@@QBEXPAVidSaveGame@@@Z 100a6ec0 f   Projectile.obj
 0001:000a5f70       ?Restore@idSoulCubeMissile@@QAEXPAVidRestoreGame@@@Z 100a6f70 f   Projectile.obj
 0001:000a6020       ?GetType@idBFGProjectile@@UBEPAVidTypeInfo@@XZ 100a7020 f   Projectile.obj
 0001:000a6030       ?GetType@idDebris@@UBEPAVidTypeInfo@@XZ 100a7030 f   Projectile.obj
 0001:000a6040       ?Think@idDebris@@UAEXXZ    100a7040 f   Projectile.obj
 0001:000a6120       ?Collide@idDebris@@UAE_NABUtrace_s@@ABVidVec3@@@Z 100a7120 f   Projectile.obj
 0001:000a6150       ?Save@idProjectile@@QBEXPAVidSaveGame@@@Z 100a7150 f   Projectile.obj
 0001:000a6270       ?Restore@idProjectile@@QAEXPAVidRestoreGame@@@Z 100a7270 f   Projectile.obj
 0001:000a6450       ??1idProjectile@@UAE@XZ    100a7450 f   Projectile.obj
 0001:000a64f0       ?Launch@idProjectile@@UAEXABVidVec3@@00MMM@Z 100a74f0 f   Projectile.obj
 0001:000a6fd0       ?Think@idProjectile@@UAEXXZ 100a7fd0 f   Projectile.obj
 0001:000a75b0       ?DefaultDamageEffect@idProjectile@@SAXPAVidEntity@@ABVidDict@@ABUtrace_s@@ABVidVec3@@@Z 100a85b0 f   Projectile.obj
 0001:000a7710       ?AddDefaultDamageEffect@idProjectile@@AAEXABUtrace_s@@ABVidVec3@@@Z 100a8710 f   Projectile.obj
 0001:000a78e0       ?Fizzle@idProjectile@@QAEXXZ 100a88e0 f   Projectile.obj
 0001:000a7a00       ?Event_RadiusDamage@idProjectile@@AAEXPAVidEntity@@@Z 100a8a00 f   Projectile.obj
 0001:000a7a80       ?GetGravity@idProjectile@@SA?AVidVec3@@PBVidDict@@@Z 100a8a80 f   Projectile.obj
 0001:000a7ad0       ?Event_Fizzle@idProjectile@@AAEXXZ 100a8ad0 f   Projectile.obj
 0001:000a7ae0       ?ClientPredictionCollide@idProjectile@@SA_NPAVidEntity@@ABVidDict@@ABUtrace_s@@ABVidVec3@@_N@Z 100a8ae0 f   Projectile.obj
 0001:000a7c50       ?WriteToSnapshot@idProjectile@@UBEXAAVidBitMsgDelta@@@Z 100a8c50 f   Projectile.obj
 0001:000a7e20       ?Save@idGuidedProjectile@@QBEXPAVidSaveGame@@@Z 100a8e20 f   Projectile.obj
 0001:000a7ef0       ?Restore@idGuidedProjectile@@QAEXPAVidRestoreGame@@@Z 100a8ef0 f   Projectile.obj
 0001:000a7fb0       ?GetSeekPos@idGuidedProjectile@@MAEXAAVidVec3@@@Z 100a8fb0 f   Projectile.obj
 0001:000a80f0       ?Think@idGuidedProjectile@@UAEXXZ 100a90f0 f   Projectile.obj
 0001:000a8720       ?Event_SetEnemy@idGuidedProjectile@@QAEXPAVidEntity@@@Z 100a9720 f   Projectile.obj
 0001:000a8750       ?KillTarget@idSoulCubeMissile@@IAEXABVidVec3@@@Z 100a9750 f   Projectile.obj
 0001:000a89d0       ?Think@idSoulCubeMissile@@UAEXXZ 100a99d0 f   Projectile.obj
 0001:000a8dc0       ?GetSeekPos@idSoulCubeMissile@@MAEXAAVidVec3@@@Z 100a9dc0 f   Projectile.obj
 0001:000a8ef0       ?Spawn@idBFGProjectile@@QAEXXZ 100a9ef0 f   Projectile.obj
 0001:000a9000       ?Save@idBFGProjectile@@QBEXPAVidSaveGame@@@Z 100aa000 f   Projectile.obj
 0001:000a90b0       ?FreeBeams@idBFGProjectile@@AAEXXZ 100aa0b0 f   Projectile.obj
 0001:000a9120       ?Think@idBFGProjectile@@UAEXXZ 100aa120 f   Projectile.obj
 0001:000a9910       ?Event_RemoveBeams@idBFGProjectile@@AAEXXZ 100aa910 f   Projectile.obj
 0001:000a9920       ?Spawn@idDebris@@QAEXXZ    100aa920 f   Projectile.obj
 0001:000a9940       ?Create@idDebris@@QAEXPAVidEntity@@ABVidVec3@@ABVidMat3@@@Z 100aa940 f   Projectile.obj
 0001:000a99e0       ??_GidDebris@@UAEPAXI@Z    100aa9e0 f i Projectile.obj
 0001:000a99e0       ??_EidDebris@@UAEPAXI@Z    100aa9e0 f i Projectile.obj
 0001:000a9a50       ?Save@idDebris@@QBEXPAVidSaveGame@@@Z 100aaa50 f   Projectile.obj
 0001:000a9ab0       ?Restore@idDebris@@QAEXPAVidRestoreGame@@@Z 100aaab0 f   Projectile.obj
 0001:000a9b10       ?Fizzle@idDebris@@QAEXXZ   100aab10 f   Projectile.obj
 0001:000a9c80       ?Explode@idDebris@@QAEXXZ  100aac80 f   Projectile.obj
 0001:000a9e00       ?Event_Explode@idDebris@@AAEXXZ 100aae00 f   Projectile.obj
 0001:000a9e10       ?Event_Fizzle@idDebris@@AAEXXZ 100aae10 f   Projectile.obj
 0001:000a9e20       ??0idProjectile@@QAE@XZ    100aae20 f   Projectile.obj
 0001:000a9f40       ??_EidProjectile@@UAEPAXI@Z 100aaf40 f i Projectile.obj
 0001:000a9f40       ??_GidProjectile@@UAEPAXI@Z 100aaf40 f i Projectile.obj
 0001:000a9f60       ?Collide@idProjectile@@UAE_NABUtrace_s@@ABVidVec3@@@Z 100aaf60 f   Projectile.obj
 0001:000aa720       ?Event_Explode@idProjectile@@AAEXXZ 100ab720 f   Projectile.obj
 0001:000aa820       ?Event_Touch@idProjectile@@AAEXPAVidEntity@@PAUtrace_s@@@Z 100ab820 f   Projectile.obj
 0001:000aa980       ?CatchProjectile@idProjectile@@QAEXPAVidEntity@@PBD@Z 100ab980 f   Projectile.obj
 0001:000aab60       ?ClientReceiveEvent@idProjectile@@UAE_NHHABVidBitMsg@@@Z 100abb60 f   Projectile.obj
 0001:000aacb0       ??0idGuidedProjectile@@QAE@XZ 100abcb0 f   Projectile.obj
 0001:000aad70       ??_EidSoulCubeMissile@@UAEPAXI@Z 100abd70 f i Projectile.obj
 0001:000aad70       ??_GidSoulCubeMissile@@UAEPAXI@Z 100abd70 f i Projectile.obj
 0001:000aad70       ??_GidGuidedProjectile@@UAEPAXI@Z 100abd70 f i Projectile.obj
 0001:000aad70       ??_EidGuidedProjectile@@UAEPAXI@Z 100abd70 f i Projectile.obj
 0001:000aada0       ?Launch@idGuidedProjectile@@UAEXABVidVec3@@00MMM@Z 100abda0 f   Projectile.obj
 0001:000ab2a0       ?Launch@idSoulCubeMissile@@UAEXABVidVec3@@00MMM@Z 100ac2a0 f   Projectile.obj
 0001:000ab680       ??0idBFGProjectile@@QAE@XZ 100ac680 f   Projectile.obj
 0001:000ab720       ??1idBFGProjectile@@UAE@XZ 100ac720 f   Projectile.obj
 0001:000ab7d0       ?CreateInstance@idDebris@@SAPAVidClass@@XZ 100ac7d0 f   Projectile.obj
 0001:000ab8a0       ?Launch@idDebris@@QAEXXZ   100ac8a0 f   Projectile.obj
 0001:000ac1e0       ?Killed@idDebris@@UAEXPAVidEntity@@0HABVidVec3@@H@Z 100ad1e0 f   Projectile.obj
 0001:000ac230       ?CreateInstance@idProjectile@@SAPAVidClass@@XZ 100ad230 f   Projectile.obj
 0001:000ac2d0       ?Create@idProjectile@@QAEXPAVidEntity@@ABVidVec3@@1@Z 100ad2d0 f   Projectile.obj
 0001:000ac760       ?Killed@idProjectile@@UAEXPAVidEntity@@0HABVidVec3@@H@Z 100ad760 f   Projectile.obj
 0001:000ac8b0       ?Explode@idProjectile@@UAEXABUtrace_s@@PAVidEntity@@@Z 100ad8b0 f   Projectile.obj
 0001:000ad6f0       ?Event_CreateProjectile@idProjectile@@QAEXPAVidEntity@@ABVidVec3@@1@Z 100ae6f0 f   Projectile.obj
 0001:000ad700       ?ReadFromSnapshot@idProjectile@@UAEXABVidBitMsgDelta@@@Z 100ae700 f   Projectile.obj
 0001:000adc20       ?CreateInstance@idGuidedProjectile@@SAPAVidClass@@XZ 100aec20 f   Projectile.obj
 0001:000adcc0       ?CreateInstance@idSoulCubeMissile@@SAPAVidClass@@XZ 100aecc0 f   Projectile.obj
 0001:000add70       ?CreateInstance@idBFGProjectile@@SAPAVidClass@@XZ 100aed70 f   Projectile.obj
 0001:000ade10       ??_GidBFGProjectile@@UAEPAXI@Z 100aee10 f i Projectile.obj
 0001:000ade10       ??_EidBFGProjectile@@UAEPAXI@Z 100aee10 f i Projectile.obj
 0001:000ade40       ?Explode@idBFGProjectile@@UAEXABUtrace_s@@PAVidEntity@@@Z 100aee40 f   Projectile.obj
 0001:000ae290       ?Restore@idBFGProjectile@@QAEXPAVidRestoreGame@@@Z 100af290 f   Projectile.obj
 0001:000ae4f0       ?Launch@idBFGProjectile@@UAEXABVidVec3@@00MMM@Z 100af4f0 f   Projectile.obj
 0001:000af490       ??0idPVS@@QAE@XZ           100b0490 f   Pvs.obj
 0001:000af500       ?DestroyPVSData@idPVS@@AAEXXZ 100b0500 f   Pvs.obj
 0001:000af5a0       ?FloodFrontPortalPVS_r@idPVS@@ABEXPAUpvsPortal_s@@H@Z 100b05a0 f   Pvs.obj
 0001:000af650       ?FloodPassagePVS_r@idPVS@@ABEPAUpvsStack_s@@PAUpvsPortal_s@@PBU3@PAU2@@Z 100b0650 f   Pvs.obj
 0001:000af7f0       ?DestroyPassages@idPVS@@ABEXXZ 100b07f0 f   Pvs.obj
 0001:000af870       ?AreaPVSFromPortalPVS@idPVS@@ABEHXZ 100b0870 f   Pvs.obj
 0001:000afa10       ?Shutdown@idPVS@@QAEXXZ    100b0a10 f   Pvs.obj
 0001:000afa90       ?GetConnectedAreas@idPVS@@ABEXHPA_N@Z 100b0a90 f   Pvs.obj
 0001:000afb50       ?GetPVSArea@idPVS@@QBEHABVidVec3@@@Z 100b0b50 f   Pvs.obj
 0001:000afb60       ?GetPVSAreas@idPVS@@QBEHABVidBounds@@PAHH@Z 100b0b60 f   Pvs.obj
 0001:000afb70       ?AllocCurrentPVS@idPVS@@ABE?AUpvsHandle_s@@I@Z 100b0b70 f   Pvs.obj
 0001:000afbd0       ?FreeCurrentPVS@idPVS@@QBEXUpvsHandle_s@@@Z 100b0bd0 f   Pvs.obj
 0001:000afc10       ?InCurrentPVS@idPVS@@QBE_NUpvsHandle_s@@PBHH@Z 100b0c10 f   Pvs.obj
 0001:000afca0       ?CheckAreasForPortalSky@idPVS@@QAE_NUpvsHandle_s@@ABVidVec3@@@Z 100b0ca0 f   Pvs.obj
 0001:000afd40       ??1idPVS@@QAE@XZ           100b0d40 f   Pvs.obj
 0001:000afd50       ?FrontPortalPVS@idPVS@@ABEXXZ 100b0d50 f   Pvs.obj
 0001:000b01c0       ?SetupCurrentPVS@idPVS@@QBE?AUpvsHandle_s@@HW4pvsType_t@@@Z 100b11c0 f   Pvs.obj
 0001:000b02d0       ?SetupCurrentPVS@idPVS@@QBE?AUpvsHandle_s@@PBHHW4pvsType_t@@@Z 100b12d0 f   Pvs.obj
 0001:000b04b0       ?MergeCurrentPVS@idPVS@@QBE?AUpvsHandle_s@@U2@0@Z 100b14b0 f   Pvs.obj
 0001:000b0570       ?CreatePVSData@idPVS@@AAEXXZ 100b1570 f   Pvs.obj
 0001:000b0840       ?AddPassageBoundaries@idPVS@@ABEXABVidWinding@@0_NPAVidPlane@@AAHH@Z 100b1840 f   Pvs.obj
 0001:000b0ef0       ?CreatePassages@idPVS@@ABEXXZ 100b1ef0 f   Pvs.obj
 0001:000b1300       ?DrawPVS@idPVS@@QBEXABVidVec3@@W4pvsType_t@@@Z 100b2300 f   Pvs.obj
 0001:000b1580       ?PassagePVS@idPVS@@ABEXXZ  100b2580 f   Pvs.obj
 0001:000b1620       ?Init@idPVS@@QAEXXZ        100b2620 f   Pvs.obj
 0001:000b18b0       ?GetType@idSecurityCamera@@UBEPAVidTypeInfo@@XZ 100b28b0 f   SecurityCamera.obj
 0001:000b18c0       ?Save@idSecurityCamera@@QBEXPAVidSaveGame@@@Z 100b28c0 f   SecurityCamera.obj
 0001:000b19e0       ?Restore@idSecurityCamera@@QAEXPAVidRestoreGame@@@Z 100b29e0 f   SecurityCamera.obj
 0001:000b1ae0       ?Present@idSecurityCamera@@UAEXXZ 100b2ae0 f   SecurityCamera.obj
 0001:000b1b60       ?GetAxis@idSecurityCamera@@ABE?BVidVec3@@XZ 100b2b60 f   SecurityCamera.obj
 0001:000b1bf0       ?StartSweep@idSecurityCamera@@AAEXXZ 100b2bf0 f   SecurityCamera.obj
 0001:000b1c90       ?Event_ContinueSweep@idSecurityCamera@@AAEXXZ 100b2c90 f   SecurityCamera.obj
 0001:000b1d70       ?Event_Alert@idSecurityCamera@@AAEXXZ 100b2d70 f   SecurityCamera.obj
 0001:000b1e00       ?Event_ReverseSweep@idSecurityCamera@@AAEXXZ 100b2e00 f   SecurityCamera.obj
 0001:000b1e50       ?Event_Pause@idSecurityCamera@@AAEXXZ 100b2e50 f   SecurityCamera.obj
 0001:000b1ec0       ?Killed@idSecurityCamera@@UAEXPAVidEntity@@0HABVidVec3@@H@Z 100b2ec0 f   SecurityCamera.obj
 0001:000b2040       ?Pain@idSecurityCamera@@UAE_NPAVidEntity@@0HABVidVec3@@H@Z 100b3040 f   SecurityCamera.obj
 0001:000b2080       ??_EidSecurityCamera@@UAEPAXI@Z 100b3080 f i SecurityCamera.obj
 0001:000b2080       ??_GidSecurityCamera@@UAEPAXI@Z 100b3080 f i SecurityCamera.obj
 0001:000b20f0       ?Spawn@idSecurityCamera@@QAEXXZ 100b30f0 f   SecurityCamera.obj
 0001:000b2500       ?DrawFov@idSecurityCamera@@AAEXXZ 100b3500 f   SecurityCamera.obj
 0001:000b3040       ?GetRenderView@idSecurityCamera@@UAEPAUrenderView_s@@XZ 100b4040 f   SecurityCamera.obj
 0001:000b3120       ?CreateInstance@idSecurityCamera@@SAPAVidClass@@XZ 100b4120 f   SecurityCamera.obj
 0001:000b3270       ?Event_AddLight@idSecurityCamera@@AAEXXZ 100b4270 f   SecurityCamera.obj
 0001:000b39e0       ?CanSeePlayer@idSecurityCamera@@AAE_NXZ 100b49e0 f   SecurityCamera.obj
 0001:000b3cf0       ?Think@idSecurityCamera@@UAEXXZ 100b4cf0 f   SecurityCamera.obj
 0001:000b3f00       ?Shutdown@idSmokeParticles@@QAEXXZ 100b4f00 f   SmokeParticles.obj
 0001:000b3f50       ?FreeSmokes@idSmokeParticles@@QAEXXZ 100b4f50 f   SmokeParticles.obj
 0001:000b4060       ??0idSmokeParticles@@QAE@XZ 100b5060 f   SmokeParticles.obj
 0001:000b40f0       ?EmitSmoke@idSmokeParticles@@QAE_NPBVidDeclParticle@@HMABVidVec3@@ABVidMat3@@H@Z 100b50f0 f   SmokeParticles.obj
 0001:000b49f0       ?UpdateRenderEntity@idSmokeParticles@@AAE_NPAUrenderEntity_s@@PBUrenderView_s@@@Z 100b59f0 f   SmokeParticles.obj
 0001:000b4d40       ?ModelCallback@idSmokeParticles@@CA_NPAUrenderEntity_s@@PBUrenderView_s@@@Z 100b5d40 f   SmokeParticles.obj
 0001:000b4d60       ?Init@idSmokeParticles@@QAEXXZ 100b5d60 f   SmokeParticles.obj
 0001:000b4fe0       ?GetType@idSound@@UBEPAVidTypeInfo@@XZ 100b5fe0 f   Sound.obj
 0001:000b4ff0       ?Save@idSound@@QBEXPAVidSaveGame@@@Z 100b5ff0 f   Sound.obj
 0001:000b5080       ?Restore@idSound@@QAEXPAVidRestoreGame@@@Z 100b6080 f   Sound.obj
 0001:000b5100       ?Event_Off@idSound@@AAEXXZ 100b6100 f   Sound.obj
 0001:000b5140       ?ShowEditingDialog@idSound@@UAEXXZ 100b6140 f   Sound.obj
 0001:000b5160       ??0idSound@@QAE@XZ         100b6160 f   Sound.obj
 0001:000b51c0       ?Spawn@idSound@@QAEXXZ     100b61c0 f   Sound.obj
 0001:000b53b0       ?Event_Trigger@idSound@@AAEXPAVidEntity@@@Z 100b63b0 f   Sound.obj
 0001:000b5500       ?Event_Timer@idSound@@AAEXXZ 100b6500 f   Sound.obj
 0001:000b55a0       ?Think@idSound@@UAEXXZ     100b65a0 f   Sound.obj
 0001:000b55c0       ?UpdateChangeableSpawnArgs@idSound@@UAEXPBVidDict@@@Z 100b65c0 f   Sound.obj
 0001:000b5890       ?SetSound@idSound@@QAEXPBDH@Z 100b6890 f   Sound.obj
 0001:000b5930       ?Event_On@idSound@@AAEXXZ  100b6930 f   Sound.obj
 0001:000b59e0       ?CreateInstance@idSound@@SAPAVidClass@@XZ 100b69e0 f   Sound.obj
 0001:000b5a80       ??0SavedGui_s@@QAE@XZ      100b6a80 f i Target.obj
 0001:000b5a90       ?GetType@idTarget@@UBEPAVidTypeInfo@@XZ 100b6a90 f   Target.obj
 0001:000b5aa0       ?GetType@idTarget_Remove@@UBEPAVidTypeInfo@@XZ 100b6aa0 f   Target.obj
 0001:000b5ab0       ?GetType@idTarget_Show@@UBEPAVidTypeInfo@@XZ 100b6ab0 f   Target.obj
 0001:000b5ac0       ?GetType@idTarget_Damage@@UBEPAVidTypeInfo@@XZ 100b6ac0 f   Target.obj
 0001:000b5ad0       ?GetType@idTarget_SessionCommand@@UBEPAVidTypeInfo@@XZ 100b6ad0 f   Target.obj
 0001:000b5ae0       ?GetType@idTarget_EndLevel@@UBEPAVidTypeInfo@@XZ 100b6ae0 f   Target.obj
 0001:000b5af0       ?GetType@idTarget_WaitForButton@@UBEPAVidTypeInfo@@XZ 100b6af0 f   Target.obj
 0001:000b5b00       ?Event_Activate@idTarget_WaitForButton@@AAEXPAVidEntity@@@Z 100b6b00 f   Target.obj
 0001:000b5b30       ?Think@idTarget_WaitForButton@@UAEXXZ 100b6b30 f   Target.obj
 0001:000b5b90       ?GetType@idTarget_SetGlobalShaderTime@@UBEPAVidTypeInfo@@XZ 100b6b90 f   Target.obj
 0001:000b5ba0       ?GetType@idTarget_SetShaderParm@@UBEPAVidTypeInfo@@XZ 100b6ba0 f   Target.obj
 0001:000b5bb0       ?GetType@idTarget_SetShaderTime@@UBEPAVidTypeInfo@@XZ 100b6bb0 f   Target.obj
 0001:000b5bc0       ?GetType@idTarget_FadeEntity@@UBEPAVidTypeInfo@@XZ 100b6bc0 f   Target.obj
 0001:000b5bd0       ?Save@idTarget_FadeEntity@@QBEXPAVidSaveGame@@@Z 100b6bd0 f   Target.obj
 0001:000b5c10       ?Restore@idTarget_FadeEntity@@QAEXPAVidRestoreGame@@@Z 100b6c10 f   Target.obj
 0001:000b5c50       ?GetType@idTarget_LightFadeIn@@UBEPAVidTypeInfo@@XZ 100b6c50 f   Target.obj
 0001:000b5c60       ?GetType@idTarget_LightFadeOut@@UBEPAVidTypeInfo@@XZ 100b6c60 f   Target.obj
 0001:000b5c70       ?GetType@idTarget_Give@@UBEPAVidTypeInfo@@XZ 100b6c70 f   Target.obj
 0001:000b5c80       ?GetType@idTarget_GiveEmail@@UBEPAVidTypeInfo@@XZ 100b6c80 f   Target.obj
 0001:000b5c90       ?GetType@idTarget_SetModel@@UBEPAVidTypeInfo@@XZ 100b6c90 f   Target.obj
 0001:000b5ca0       ?GetType@idTarget_SetInfluence@@UBEPAVidTypeInfo@@XZ 100b6ca0 f   Target.obj
 0001:000b5cb0       ?Event_ClearFlash@idTarget_SetInfluence@@AAEXM@Z 100b6cb0 f   Target.obj
 0001:000b5d00       ?GetType@idTarget_SetKeyVal@@UBEPAVidTypeInfo@@XZ 100b6d00 f   Target.obj
 0001:000b5d10       ?GetType@idTarget_SetFov@@UBEPAVidTypeInfo@@XZ 100b6d10 f   Target.obj
 0001:000b5d20       ?GetType@idTarget_SetPrimaryObjective@@UBEPAVidTypeInfo@@XZ 100b6d20 f   Target.obj
 0001:000b5d30       ?GetType@idTarget_LockDoor@@UBEPAVidTypeInfo@@XZ 100b6d30 f   Target.obj
 0001:000b5d40       ?GetType@idTarget_CallObjectFunction@@UBEPAVidTypeInfo@@XZ 100b6d40 f   Target.obj
 0001:000b5d50       ?GetType@idTarget_EnableLevelWeapons@@UBEPAVidTypeInfo@@XZ 100b6d50 f   Target.obj
 0001:000b5d60       ?GetType@idTarget_Tip@@UBEPAVidTypeInfo@@XZ 100b6d60 f   Target.obj
 0001:000b5d70       ?Restore@idTarget_Tip@@QAEXPAVidRestoreGame@@@Z 100b6d70 f   Target.obj
 0001:000b5d70       ?Restore@idObjectiveComplete@@QAEXPAVidRestoreGame@@@Z 100b6d70 f   Item.obj
 0001:000b5d90       ?Event_GetPlayerPos@idTarget_Tip@@AAEXXZ 100b6d90 f   Target.obj
 0001:000b5de0       ?Event_TipOff@idTarget_Tip@@AAEXXZ 100b6de0 f   Target.obj
 0001:000b5f00       ?GetType@idTarget_GiveSecurity@@UBEPAVidTypeInfo@@XZ 100b6f00 f   Target.obj
 0001:000b5f10       ?GetType@idTarget_RemoveWeapons@@UBEPAVidTypeInfo@@XZ 100b6f10 f   Target.obj
 0001:000b5f20       ?GetType@idTarget_LevelTrigger@@UBEPAVidTypeInfo@@XZ 100b6f20 f   Target.obj
 0001:000b5f30       ?GetType@idTarget_EnableStamina@@UBEPAVidTypeInfo@@XZ 100b6f30 f   Target.obj
 0001:000b5f40       ?GetType@idTarget_FadeSoundClass@@UBEPAVidTypeInfo@@XZ 100b6f40 f   Target.obj
 0001:000b5f50       ?CreateInstance@idTarget@@SAPAVidClass@@XZ 100b6f50 f   Target.obj
 0001:000b6000       ?CreateInstance@idTarget_Remove@@SAPAVidClass@@XZ 100b7000 f   Target.obj
 0001:000b60b0       ?Event_Activate@idTarget_Remove@@AAEXPAVidEntity@@@Z 100b70b0 f   Target.obj
 0001:000b6120       ?CreateInstance@idTarget_Show@@SAPAVidClass@@XZ 100b7120 f   Target.obj
 0001:000b61d0       ?Event_Activate@idTarget_Show@@AAEXPAVidEntity@@@Z 100b71d0 f   Target.obj
 0001:000b6230       ?CreateInstance@idTarget_Damage@@SAPAVidClass@@XZ 100b7230 f   Target.obj
 0001:000b62e0       ?Event_Activate@idTarget_Damage@@AAEXPAVidEntity@@@Z 100b72e0 f   Target.obj
 0001:000b6370       ?CreateInstance@idTarget_SessionCommand@@SAPAVidClass@@XZ 100b7370 f   Target.obj
 0001:000b6420       ?Event_Activate@idTarget_SessionCommand@@AAEXPAVidEntity@@@Z 100b7420 f   Target.obj
 0001:000b6460       ?CreateInstance@idTarget_EndLevel@@SAPAVidClass@@XZ 100b7460 f   Target.obj
 0001:000b6510       ?CreateInstance@idTarget_WaitForButton@@SAPAVidClass@@XZ 100b7510 f   Target.obj
 0001:000b65c0       ?CreateInstance@idTarget_SetGlobalShaderTime@@SAPAVidClass@@XZ 100b75c0 f   Target.obj
 0001:000b6670       ?Event_Activate@idTarget_SetGlobalShaderTime@@AAEXPAVidEntity@@@Z 100b7670 f   Target.obj
 0001:000b66c0       ?CreateInstance@idTarget_SetShaderParm@@SAPAVidClass@@XZ 100b76c0 f   Target.obj
 0001:000b6770       ?Event_Activate@idTarget_SetShaderParm@@AAEXPAVidEntity@@@Z 100b7770 f   Target.obj
 0001:000b6920       ?CreateInstance@idTarget_SetShaderTime@@SAPAVidClass@@XZ 100b7920 f   Target.obj
 0001:000b69d0       ?Event_Activate@idTarget_SetShaderTime@@AAEXPAVidEntity@@@Z 100b79d0 f   Target.obj
 0001:000b6a70       ?Event_Activate@idTarget_FadeEntity@@AAEXPAVidEntity@@@Z 100b7a70 f   Target.obj
 0001:000b6b50       ?Think@idTarget_FadeEntity@@UAEXXZ 100b7b50 f   Target.obj
 0001:000b6c50       ?CreateInstance@idTarget_LightFadeIn@@SAPAVidClass@@XZ 100b7c50 f   Target.obj
 0001:000b6d00       ?Event_Activate@idTarget_LightFadeIn@@AAEXPAVidEntity@@@Z 100b7d00 f   Target.obj
 0001:000b6de0       ?CreateInstance@idTarget_LightFadeOut@@SAPAVidClass@@XZ 100b7de0 f   Target.obj
 0001:000b6e90       ?Event_Activate@idTarget_LightFadeOut@@AAEXPAVidEntity@@@Z 100b7e90 f   Target.obj
 0001:000b6f70       ?CreateInstance@idTarget_Give@@SAPAVidClass@@XZ 100b7f70 f   Target.obj
 0001:000b7020       ?Spawn@idTarget_Give@@QAEXXZ 100b8020 f   Target.obj
 0001:000b7060       ?CreateInstance@idTarget_GiveEmail@@SAPAVidClass@@XZ 100b8060 f   Target.obj
 0001:000b7110       ?Event_Activate@idTarget_GiveEmail@@AAEXPAVidEntity@@@Z 100b8110 f   Target.obj
 0001:000b71c0       ?CreateInstance@idTarget_SetModel@@SAPAVidClass@@XZ 100b81c0 f   Target.obj
 0001:000b7270       ?Spawn@idTarget_SetModel@@QAEXXZ 100b8270 f   Target.obj
 0001:000b72d0       ?Event_Activate@idTarget_SetModel@@AAEXPAVidEntity@@@Z 100b82d0 f   Target.obj
 0001:000b7350       ?Save@idTarget_SetInfluence@@QBEXPAVidSaveGame@@@Z 100b8350 f   Target.obj
 0001:000b7570       ?Spawn@idTarget_SetInfluence@@QAEXXZ 100b8570 f   Target.obj
 0001:000b7670       ?Event_Flash@idTarget_SetInfluence@@AAEXMH@Z 100b8670 f   Target.obj
 0001:000b7760       ?Event_Activate@idTarget_SetInfluence@@AAEXPAVidEntity@@@Z 100b8760 f   Target.obj
 0001:000b8090       ?Think@idTarget_SetInfluence@@EAEXXZ 100b9090 f   Target.obj
 0001:000b81d0       ?Event_RestoreInfluence@idTarget_SetInfluence@@AAEXXZ 100b91d0 f   Target.obj
 0001:000b85e0       ?CreateInstance@idTarget_SetKeyVal@@SAPAVidClass@@XZ 100b95e0 f   Target.obj
 0001:000b8690       ?Save@idTarget_SetFov@@QBEXPAVidSaveGame@@@Z 100b9690 f   Target.obj
 0001:000b86f0       ?Restore@idTarget_SetFov@@QAEXPAVidRestoreGame@@@Z 100b96f0 f   Target.obj
 0001:000b8810       ?Event_Activate@idTarget_SetFov@@AAEXPAVidEntity@@@Z 100b9810 f   Target.obj
 0001:000b8920       ?Think@idTarget_SetFov@@UAEXXZ 100b9920 f   Target.obj
 0001:000b8a50       ?CreateInstance@idTarget_SetPrimaryObjective@@SAPAVidClass@@XZ 100b9a50 f   Target.obj
 0001:000b8b00       ?Event_Activate@idTarget_SetPrimaryObjective@@AAEXPAVidEntity@@@Z 100b9b00 f   Target.obj
 0001:000b8b70       ?CreateInstance@idTarget_LockDoor@@SAPAVidClass@@XZ 100b9b70 f   Target.obj
 0001:000b8c20       ?Event_Activate@idTarget_LockDoor@@AAEXPAVidEntity@@@Z 100b9c20 f   Target.obj
 0001:000b8cd0       ?CreateInstance@idTarget_CallObjectFunction@@SAPAVidClass@@XZ 100b9cd0 f   Target.obj
 0001:000b8d80       ?Event_Activate@idTarget_CallObjectFunction@@AAEXPAVidEntity@@@Z 100b9d80 f   Target.obj
 0001:000b8f20       ?CreateInstance@idTarget_EnableLevelWeapons@@SAPAVidClass@@XZ 100b9f20 f   Target.obj
 0001:000b8fd0       ?Event_Activate@idTarget_EnableLevelWeapons@@AAEXPAVidEntity@@@Z 100b9fd0 f   Target.obj
 0001:000b9110       ?CreateInstance@idTarget_Tip@@SAPAVidClass@@XZ 100ba110 f   Target.obj
 0001:000b91d0       ?Event_Activate@idTarget_Tip@@AAEXPAVidEntity@@@Z 100ba1d0 f   Target.obj
 0001:000b9290       ?CreateInstance@idTarget_GiveSecurity@@SAPAVidClass@@XZ 100ba290 f   Target.obj
 0001:000b9340       ?Event_Activate@idTarget_GiveSecurity@@AAEXPAVidEntity@@@Z 100ba340 f   Target.obj
 0001:000b9390       ?CreateInstance@idTarget_RemoveWeapons@@SAPAVidClass@@XZ 100ba390 f   Target.obj
 0001:000b9440       ?Event_Activate@idTarget_RemoveWeapons@@AAEXPAVidEntity@@@Z 100ba440 f   Target.obj
 0001:000b94c0       ?CreateInstance@idTarget_LevelTrigger@@SAPAVidClass@@XZ 100ba4c0 f   Target.obj
 0001:000b9570       ?Event_Activate@idTarget_LevelTrigger@@AAEXPAVidEntity@@@Z 100ba570 f   Target.obj
 0001:000b95f0       ?CreateInstance@idTarget_EnableStamina@@SAPAVidClass@@XZ 100ba5f0 f   Target.obj
 0001:000b96a0       ?Event_Activate@idTarget_EnableStamina@@AAEXPAVidEntity@@@Z 100ba6a0 f   Target.obj
 0001:000b9750       ?CreateInstance@idTarget_FadeSoundClass@@SAPAVidClass@@XZ 100ba750 f   Target.obj
 0001:000b9800       ?Event_Activate@idTarget_FadeSoundClass@@AAEXPAVidEntity@@@Z 100ba800 f   Target.obj
 0001:000b9960       ?Event_RestoreVolume@idTarget_FadeSoundClass@@AAEXXZ 100ba960 f   Target.obj
 0001:000b9a10       ?Event_Activate@idTarget_EndLevel@@AAEXPAVidEntity@@@Z 100baa10 f   Target.obj
 0001:000b9c00       ?CreateInstance@idTarget_FadeEntity@@SAPAVidClass@@XZ 100bac00 f   Target.obj
 0001:000b9cd0       ??0idTarget_SetInfluence@@QAE@XZ 100bacd0 f   Target.obj
 0001:000b9e20       ??1idTarget_SetInfluence@@UAE@XZ 100bae20 f i Target.obj
 0001:000b9f60       ?Restore@idTarget_SetInfluence@@QAEXPAVidRestoreGame@@@Z 100baf60 f   Target.obj
 0001:000ba970       ?Event_GatherEntities@idTarget_SetInfluence@@AAEXXZ 100bb970 f   Target.obj
 0001:000bb630       ?Event_Activate@idTarget_SetKeyVal@@AAEXPAVidEntity@@@Z 100bc630 f   Target.obj
 0001:000bb8f0       ?CreateInstance@idTarget_SetFov@@SAPAVidClass@@XZ 100bc8f0 f   Target.obj
 0001:000bb9c0       ?Event_Activate@idTarget_Give@@AAEXPAVidEntity@@@Z 100bc9c0 f   Target.obj
 0001:000bbc70       ?CreateInstance@idTarget_SetInfluence@@SAPAVidClass@@XZ 100bcc70 f   Target.obj
 0001:000bbd10       ??_EidTarget_SetInfluence@@UAEPAXI@Z 100bcd10 f i Target.obj
 0001:000bbd10       ??_GidTarget_SetInfluence@@UAEPAXI@Z 100bcd10 f i Target.obj
 0001:000bbd30       ?GetType@idTrigger@@UBEPAVidTypeInfo@@XZ 100bcd30 f   Trigger.obj
 0001:000bbd40       ?Enable@idTrigger@@UAEXXZ  100bcd40 f   Trigger.obj
 0001:000bbd70       ?Disable@idTrigger@@UAEXXZ 100bcd70 f   Trigger.obj
 0001:000bbda0       ?CallScript@idTrigger@@IBEXXZ 100bcda0 f   Trigger.obj
 0001:000bbe20       ?Save@idTrigger@@QBEXPAVidSaveGame@@@Z 100bce20 f   Trigger.obj
 0001:000bbe50       ?Event_Enable@idTrigger@@IAEXXZ 100bce50 f   Trigger.obj
 0001:000bbe60       ?Event_Stop@idCameraAnim@@AAEXXZ 100bce60 f   Camera.obj
 0001:000bbe60       ?Event_Disable@idTrigger@@IAEXXZ 100bce60 f   Trigger.obj
 0001:000bbe70       ?GetType@idTrigger_Multi@@UBEPAVidTypeInfo@@XZ 100bce70 f   Trigger.obj
 0001:000bbe80       ?Restore@idTrigger_Multi@@QAEXPAVidRestoreGame@@@Z 100bce80 f   Trigger.obj
 0001:000bbf30       ?TriggerAction@idTrigger_Multi@@IAEXPAVidEntity@@@Z 100bcf30 f   Trigger.obj
 0001:000bc070       ?Event_TriggerAction@idTrigger_Multi@@IAEXPAVidEntity@@@Z 100bd070 f   Trigger.obj
 0001:000bc080       ?GetType@idTrigger_EntityName@@UBEPAVidTypeInfo@@XZ 100bd080 f   Trigger.obj
 0001:000bc090       ?Restore@idTrigger_EntityName@@QAEXPAVidRestoreGame@@@Z 100bd090 f   Trigger.obj
 0001:000bc100       ?TriggerAction@idTrigger_EntityName@@AAEXPAVidEntity@@@Z 100bd100 f   Trigger.obj
 0001:000bc230       ?Event_TriggerAction@idTrigger_EntityName@@AAEXPAVidEntity@@@Z 100bd230 f   Trigger.obj
 0001:000bc240       ?GetType@idTrigger_Timer@@UBEPAVidTypeInfo@@XZ 100bd240 f   Trigger.obj
 0001:000bc250       ?Restore@idTrigger_Timer@@QAEXPAVidRestoreGame@@@Z 100bd250 f   Trigger.obj
 0001:000bc2c0       ?Enable@idTrigger_Timer@@UAEXXZ 100bd2c0 f   Trigger.obj
 0001:000bc2f0       ?Disable@idTrigger_Timer@@UAEXXZ 100bd2f0 f   Trigger.obj
 0001:000bc310       ?Event_Timer@idTrigger_Timer@@AAEXXZ 100bd310 f   Trigger.obj
 0001:000bc390       ?GetType@idTrigger_Count@@UBEPAVidTypeInfo@@XZ 100bd390 f   Trigger.obj
 0001:000bc3a0       ?Save@idTrigger_Count@@QBEXPAVidSaveGame@@@Z 100bd3a0 f   Trigger.obj
 0001:000bc3e0       ?Restore@idTrigger_Count@@QAEXPAVidRestoreGame@@@Z 100bd3e0 f   Trigger.obj
 0001:000bc420       ?Spawn@idTrigger_Count@@QAEXXZ 100bd420 f   Trigger.obj
 0001:000bc470       ?Event_TriggerAction@idTrigger_Count@@AAEXPAVidEntity@@@Z 100bd470 f   Trigger.obj
 0001:000bc510       ?GetType@idTrigger_Hurt@@UBEPAVidTypeInfo@@XZ 100bd510 f   Trigger.obj
 0001:000bc520       ?Save@idTrigger_Hurt@@QBEXPAVidSaveGame@@@Z 100bd520 f   Trigger.obj
 0001:000bc560       ?Restore@idTrigger_Hurt@@QAEXPAVidRestoreGame@@@Z 100bd560 f   Trigger.obj
 0001:000bc5a0       ?Spawn@idTrigger_Hurt@@QAEXXZ 100bd5a0 f   Trigger.obj
 0001:000bc5f0       ?Event_Toggle@idTrigger_Hurt@@AAEXPAVidEntity@@@Z 100bd5f0 f   Trigger.obj
 0001:000bc610       ?GetType@idTrigger_Fade@@UBEPAVidTypeInfo@@XZ 100bd610 f   Trigger.obj
 0001:000bc620       ?GetType@idTrigger_Touch@@UBEPAVidTypeInfo@@XZ 100bd620 f   Trigger.obj
 0001:000bc630       ?Save@idTrigger_Touch@@QAEXPAVidSaveGame@@@Z 100bd630 f   Trigger.obj
 0001:000bc650       ?Restore@idTrigger_Touch@@QAEXPAVidRestoreGame@@@Z 100bd650 f   Trigger.obj
 0001:000bc670       ?Enable@idTrigger_Touch@@UAEXXZ 100bd670 f   Trigger.obj
 0001:000bc680       ?Disable@idTrigger_Touch@@UAEXXZ 100bd680 f   Trigger.obj
 0001:000bc690       ?GetType@idTrigger_Flag@@UBEPAVidTypeInfo@@XZ 100bd690 f   Trigger.obj
 0001:000bc6a0       ?CreateInstance@idTrigger@@SAPAVidClass@@XZ 100bd6a0 f   Trigger.obj
 0001:000bc750       ?DrawDebugInfo@idTrigger@@SAXXZ 100bd750 f   Trigger.obj
 0001:000bd000       ?Restore@idTrigger@@QAEXPAVidRestoreGame@@@Z 100be000 f   Trigger.obj
 0001:000bd0d0       ??_GidTarget_LockDoor@@UAEPAXI@Z 100be0d0 f i Target.obj
 0001:000bd0d0       ??_GidLocationSeparatorEntity@@UAEPAXI@Z 100be0d0 f i Misc.obj
 0001:000bd0d0       ??_GidCombatNode@@UAEPAXI@Z 100be0d0 f i AI.obj
 0001:000bd0d0       ??_EidTarget_LightFadeOut@@UAEPAXI@Z 100be0d0 f i Target.obj
 0001:000bd0d0       ??_EidTarget_LevelTrigger@@UAEPAXI@Z 100be0d0 f i Target.obj
 0001:000bd0d0       ??_EidEarthQuake@@UAEPAXI@Z 100be0d0 f i Misc.obj
 0001:000bd0d0       ??_GidBeam@@UAEPAXI@Z      100be0d0 f i Misc.obj
 0001:000bd0d0       ??_GidFuncPortal@@UAEPAXI@Z 100be0d0 f i Misc.obj
 0001:000bd0d0       ??_EidSound@@UAEPAXI@Z     100be0d0 f i Sound.obj
 0001:000bd0d0       ??_EidTrigger_Touch@@UAEPAXI@Z 100be0d0 f i Trigger.obj
 0001:000bd0d0       ??_EidLocationSeparatorEntity@@UAEPAXI@Z 100be0d0 f i Misc.obj
 0001:000bd0d0       ??_EidTarget_EndLevel@@UAEPAXI@Z 100be0d0 f i Target.obj
 0001:000bd0d0       ??_EidVacuumEntity@@UAEPAXI@Z 100be0d0 f i Misc.obj
 0001:000bd0d0       ??_GidTarget_Remove@@UAEPAXI@Z 100be0d0 f i Target.obj
 0001:000bd0d0       ??_GidTarget_SetFov@@UAEPAXI@Z 100be0d0 f i Target.obj
 0001:000bd0d0       ??_GidTarget_EndLevel@@UAEPAXI@Z 100be0d0 f i Target.obj
 0001:000bd0d0       ??_EidTrigger@@UAEPAXI@Z   100be0d0 f i Trigger.obj
 0001:000bd0d0       ??_EidTarget_WaitForButton@@UAEPAXI@Z 100be0d0 f i Target.obj
 0001:000bd0d0       ??_GidEntity@@UAEPAXI@Z    100be0d0 f i Entity.obj
 0001:000bd0d0       ??_GidActivator@@UAEPAXI@Z 100be0d0 f i Misc.obj
 0001:000bd0d0       ??_GidStaticEntity@@UAEPAXI@Z 100be0d0 f i Misc.obj
 0001:000bd0d0       ??_EidTrigger_Count@@UAEPAXI@Z 100be0d0 f i Trigger.obj
 0001:000bd0d0       ??_GidVacuumSeparatorEntity@@UAEPAXI@Z 100be0d0 f i Misc.obj
 0001:000bd0d0       ??_EidTarget_LightFadeIn@@UAEPAXI@Z 100be0d0 f i Target.obj
 0001:000bd0d0       ??_EidTrigger_Hurt@@UAEPAXI@Z 100be0d0 f i Trigger.obj
 0001:000bd0d0       ??_EidTarget_GiveSecurity@@UAEPAXI@Z 100be0d0 f i Target.obj
 0001:000bd0d0       ??_EidVacuumSeparatorEntity@@UAEPAXI@Z 100be0d0 f i Misc.obj
 0001:000bd0d0       ??_EidTarget@@UAEPAXI@Z    100be0d0 f i Target.obj
 0001:000bd0d0       ??_EidFuncPortal@@UAEPAXI@Z 100be0d0 f i Misc.obj
 0001:000bd0d0       ??_GidTarget_EnableStamina@@UAEPAXI@Z 100be0d0 f i Target.obj
 0001:000bd0d0       ??_EidPlayerStart@@UAEPAXI@Z 100be0d0 f i Misc.obj
 0001:000bd0d0       ??_GidTarget_SetModel@@UAEPAXI@Z 100be0d0 f i Target.obj
 0001:000bd0d0       ??_EidFuncAASPortal@@UAEPAXI@Z 100be0d0 f i Misc.obj
 0001:000bd0d0       ??_EidCameraView@@UAEPAXI@Z 100be0d0 f i Camera.obj
 0001:000bd0d0       ??_GidTrigger_Hurt@@UAEPAXI@Z 100be0d0 f i Trigger.obj
 0001:000bd0d0       ??_GidSpawnableEntity@@UAEPAXI@Z 100be0d0 f i Misc.obj
 0001:000bd0d0       ??_GidTarget_GiveSecurity@@UAEPAXI@Z 100be0d0 f i Target.obj
 0001:000bd0d0       ??_GidTarget_LevelTrigger@@UAEPAXI@Z 100be0d0 f i Target.obj
 0001:000bd0d0       ??_EidPathCorner@@UAEPAXI@Z 100be0d0 f i Misc.obj
 0001:000bd0d0       ??_GidTarget_Tip@@UAEPAXI@Z 100be0d0 f i Target.obj
 0001:000bd0d0       ??_EidTarget_SetKeyVal@@UAEPAXI@Z 100be0d0 f i Target.obj
 0001:000bd0d0       ??_EidTarget_Tip@@UAEPAXI@Z 100be0d0 f i Target.obj
 0001:000bd0d0       ??_GidTrigger_Touch@@UAEPAXI@Z 100be0d0 f i Trigger.obj
 0001:000bd0d0       ??_EidTarget_Show@@UAEPAXI@Z 100be0d0 f i Target.obj
 0001:000bd0d0       ??_EidItemRemover@@UAEPAXI@Z 100be0d0 f i Item.obj
 0001:000bd0d0       ??_GidTarget_SetKeyVal@@UAEPAXI@Z 100be0d0 f i Target.obj
 0001:000bd0d0       ??_GidCameraView@@UAEPAXI@Z 100be0d0 f i Camera.obj
 0001:000bd0d0       ??_GidTrigger_Count@@UAEPAXI@Z 100be0d0 f i Trigger.obj
 0001:000bd0d0       ??_EidTarget_Give@@UAEPAXI@Z 100be0d0 f i Target.obj
 0001:000bd0d0       ??_GidDamagable@@UAEPAXI@Z 100be0d0 f i Misc.obj
 0001:000bd0d0       ??_GidTarget_LightFadeIn@@UAEPAXI@Z 100be0d0 f i Target.obj
 0001:000bd0d0       ??_GidTarget_WaitForButton@@UAEPAXI@Z 100be0d0 f i Target.obj
 0001:000bd0d0       ??_GidVacuumEntity@@UAEPAXI@Z 100be0d0 f i Misc.obj
 0001:000bd0d0       ??_EidTarget_RemoveWeapons@@UAEPAXI@Z 100be0d0 f i Target.obj
 0001:000bd0d0       ??_GidTarget_GiveEmail@@UAEPAXI@Z 100be0d0 f i Target.obj
 0001:000bd0d0       ??_EidBeam@@UAEPAXI@Z      100be0d0 f i Misc.obj
 0001:000bd0d0       ??_EidEntity@@UAEPAXI@Z    100be0d0 f i Entity.obj
 0001:000bd0d0       ??_GidTarget_Give@@UAEPAXI@Z 100be0d0 f i Target.obj
 0001:000bd0d0       ??_EidTarget_SetPrimaryObjective@@UAEPAXI@Z 100be0d0 f i Target.obj
 0001:000bd0d0       ??_GidFuncAASObstacle@@UAEPAXI@Z 100be0d0 f i Misc.obj
 0001:000bd0d0       ??_GidTarget_Show@@UAEPAXI@Z 100be0d0 f i Target.obj
 0001:000bd0d0       ??_EidTarget_SetModel@@UAEPAXI@Z 100be0d0 f i Target.obj
 0001:000bd0d0       ??_EidTarget_SetShaderParm@@UAEPAXI@Z 100be0d0 f i Target.obj
 0001:000bd0d0       ??_EidDamagable@@UAEPAXI@Z 100be0d0 f i Misc.obj
 0001:000bd0d0       ??_EidFuncRadioChatter@@UAEPAXI@Z 100be0d0 f i Misc.obj
 0001:000bd0d0       ??_EidTarget_SetGlobalShaderTime@@UAEPAXI@Z 100be0d0 f i Target.obj
 0001:000bd0d0       ??_GidTarget_LightFadeOut@@UAEPAXI@Z 100be0d0 f i Target.obj
 0001:000bd0d0       ??_GidExplodable@@UAEPAXI@Z 100be0d0 f i Misc.obj
 0001:000bd0d0       ??_GidFuncSmoke@@UAEPAXI@Z 100be0d0 f i Misc.obj
 0001:000bd0d0       ??_EidSpawnableEntity@@UAEPAXI@Z 100be0d0 f i Misc.obj
 0001:000bd0d0       ??_GidItemRemover@@UAEPAXI@Z 100be0d0 f i Item.obj
 0001:000bd0d0       ??_EidTarget_Damage@@UAEPAXI@Z 100be0d0 f i Target.obj
 0001:000bd0d0       ??_EidTarget_EnableLevelWeapons@@UAEPAXI@Z 100be0d0 f i Target.obj
 0001:000bd0d0       ??_GidFuncEmitter@@UAEPAXI@Z 100be0d0 f i Misc.obj
 0001:000bd0d0       ??_GidTarget_FadeSoundClass@@UAEPAXI@Z 100be0d0 f i Target.obj
 0001:000bd0d0       ??_EidFuncSmoke@@UAEPAXI@Z 100be0d0 f i Misc.obj
 0001:000bd0d0       ??_EidLiquid@@UAEPAXI@Z    100be0d0 f i Misc.obj
 0001:000bd0d0       ??_EidCombatNode@@UAEPAXI@Z 100be0d0 f i AI.obj
 0001:000bd0d0       ??_EidSplinePath@@UAEPAXI@Z 100be0d0 f i Mover.obj
 0001:000bd0d0       ??_EidTarget_SetShaderTime@@UAEPAXI@Z 100be0d0 f i Target.obj
 0001:000bd0d0       ??_EidTrigger_Fade@@UAEPAXI@Z 100be0d0 f i Trigger.obj
 0001:000bd0d0       ??_EidTarget_LockDoor@@UAEPAXI@Z 100be0d0 f i Target.obj
 0001:000bd0d0       ??_GidPathCorner@@UAEPAXI@Z 100be0d0 f i Misc.obj
 0001:000bd0d0       ??_GidTarget_SetGlobalShaderTime@@UAEPAXI@Z 100be0d0 f i Target.obj
 0001:000bd0d0       ??_GidTarget_RemoveWeapons@@UAEPAXI@Z 100be0d0 f i Target.obj
 0001:000bd0d0       ??_GidTarget_Damage@@UAEPAXI@Z 100be0d0 f i Target.obj
 0001:000bd0d0       ??_GidEarthQuake@@UAEPAXI@Z 100be0d0 f i Misc.obj
 0001:000bd0d0       ??_EidExplodable@@UAEPAXI@Z 100be0d0 f i Misc.obj
 0001:000bd0d0       ??_EidTarget_FadeEntity@@UAEPAXI@Z 100be0d0 f i Target.obj
 0001:000bd0d0       ??_GidTrigger@@UAEPAXI@Z   100be0d0 f i Trigger.obj
 0001:000bd0d0       ??_EidFuncEmitter@@UAEPAXI@Z 100be0d0 f i Misc.obj
 0001:000bd0d0       ??_GidSound@@UAEPAXI@Z     100be0d0 f i Sound.obj
 0001:000bd0d0       ??_EidTarget_SetFov@@UAEPAXI@Z 100be0d0 f i Target.obj
 0001:000bd0d0       ??_EidActivator@@UAEPAXI@Z 100be0d0 f i Misc.obj
 0001:000bd0d0       ??_EidTarget_Remove@@UAEPAXI@Z 100be0d0 f i Target.obj
 0001:000bd0d0       ??_GidObjectiveComplete@@UAEPAXI@Z 100be0d0 f i Item.obj
 0001:000bd0d0       ??_GidTarget_CallObjectFunction@@UAEPAXI@Z 100be0d0 f i Target.obj
 0001:000bd0d0       ??_EidTarget_EnableStamina@@UAEPAXI@Z 100be0d0 f i Target.obj
 0001:000bd0d0       ??_GidTarget_FadeEntity@@UAEPAXI@Z 100be0d0 f i Target.obj
 0001:000bd0d0       ??_EidLocationEntity@@UAEPAXI@Z 100be0d0 f i Misc.obj
 0001:000bd0d0       ??_GidTrigger_Fade@@UAEPAXI@Z 100be0d0 f i Trigger.obj
 0001:000bd0d0       ??_GidFuncSplat@@UAEPAXI@Z 100be0d0 f i Misc.obj
 0001:000bd0d0       ??_EidFuncAASObstacle@@UAEPAXI@Z 100be0d0 f i Misc.obj
 0001:000bd0d0       ??_GidTarget_SetShaderTime@@UAEPAXI@Z 100be0d0 f i Target.obj
 0001:000bd0d0       ??_GidLocationEntity@@UAEPAXI@Z 100be0d0 f i Misc.obj
 0001:000bd0d0       ??_EidTarget_SessionCommand@@UAEPAXI@Z 100be0d0 f i Target.obj
 0001:000bd0d0       ??_GidSplinePath@@UAEPAXI@Z 100be0d0 f i Mover.obj
 0001:000bd0d0       ??_GidFuncAASPortal@@UAEPAXI@Z 100be0d0 f i Misc.obj
 0001:000bd0d0       ??_EidStaticEntity@@UAEPAXI@Z 100be0d0 f i Misc.obj
 0001:000bd0d0       ??_GidTarget_SetPrimaryObjective@@UAEPAXI@Z 100be0d0 f i Target.obj
 0001:000bd0d0       ??_GidTarget_EnableLevelWeapons@@UAEPAXI@Z 100be0d0 f i Target.obj
 0001:000bd0d0       ??_EidTarget_CallObjectFunction@@UAEPAXI@Z 100be0d0 f i Target.obj
 0001:000bd0d0       ??_GidTarget_SessionCommand@@UAEPAXI@Z 100be0d0 f i Target.obj
 0001:000bd0d0       ??_GidFuncRadioChatter@@UAEPAXI@Z 100be0d0 f i Misc.obj
 0001:000bd0d0       ??_EidTarget_GiveEmail@@UAEPAXI@Z 100be0d0 f i Target.obj
 0001:000bd0d0       ??_EidTarget_FadeSoundClass@@UAEPAXI@Z 100be0d0 f i Target.obj
 0001:000bd0d0       ??_GidPlayerStart@@UAEPAXI@Z 100be0d0 f i Misc.obj
 0001:000bd0d0       ??_GidTarget@@UAEPAXI@Z    100be0d0 f i Target.obj
 0001:000bd0d0       ??_EidObjectiveComplete@@UAEPAXI@Z 100be0d0 f i Item.obj
 0001:000bd0d0       ??_GidLiquid@@UAEPAXI@Z    100be0d0 f i Misc.obj
 0001:000bd0d0       ??_GidTarget_SetShaderParm@@UAEPAXI@Z 100be0d0 f i Target.obj
 0001:000bd0d0       ??_EidFuncSplat@@UAEPAXI@Z 100be0d0 f i Misc.obj
 0001:000bd0f0       ?Spawn@idTrigger@@QAEXXZ   100be0f0 f   Trigger.obj
 0001:000bd230       ??0idTrigger_Multi@@QAE@XZ 100be230 f   Trigger.obj
 0001:000bd2a0       ?Save@idTrigger_Multi@@QBEXPAVidSaveGame@@@Z 100be2a0 f   Trigger.obj
 0001:000bd360       ?CheckFacing@idTrigger_Multi@@IAE_NPAVidEntity@@@Z 100be360 f   Trigger.obj
 0001:000bd4b0       ?Event_Trigger@idTrigger_Multi@@IAEXPAVidEntity@@@Z 100be4b0 f   Trigger.obj
 0001:000bd5d0       ?Event_Touch@idTrigger_Multi@@IAEXPAVidEntity@@PAUtrace_s@@@Z 100be5d0 f   Trigger.obj
 0001:000bd760       ??0idTrigger_EntityName@@QAE@XZ 100be760 f   Trigger.obj
 0001:000bd7c0       ?Save@idTrigger_EntityName@@QBEXPAVidSaveGame@@@Z 100be7c0 f   Trigger.obj
 0001:000bd840       ?Spawn@idTrigger_EntityName@@QAEXXZ 100be840 f   Trigger.obj
 0001:000bda70       ?Event_Trigger@idTrigger_EntityName@@AAEXPAVidEntity@@@Z 100bea70 f   Trigger.obj
 0001:000bdb80       ?Event_Touch@idTrigger_EntityName@@AAEXPAVidEntity@@PAUtrace_s@@@Z 100beb80 f   Trigger.obj
 0001:000bdc90       ??0idTrigger_Timer@@QAE@XZ 100bec90 f   Trigger.obj
 0001:000bdd00       ?Save@idTrigger_Timer@@QBEXPAVidSaveGame@@@Z 100bed00 f   Trigger.obj
 0001:000bdd70       ?Spawn@idTrigger_Timer@@QAEXXZ 100bed70 f   Trigger.obj
 0001:000bdeb0       ?Event_Use@idTrigger_Timer@@AAEXPAVidEntity@@@Z 100beeb0 f   Trigger.obj
 0001:000bdf40       ?CreateInstance@idTrigger_Count@@SAPAVidClass@@XZ 100bef40 f   Trigger.obj
 0001:000be000       ?Event_Trigger@idTrigger_Count@@AAEXPAVidEntity@@@Z 100bf000 f   Trigger.obj
 0001:000be090       ?CreateInstance@idTrigger_Hurt@@SAPAVidClass@@XZ 100bf090 f   Trigger.obj
 0001:000be150       ?Event_Touch@idTrigger_Hurt@@AAEXPAVidEntity@@PAUtrace_s@@@Z 100bf150 f   Trigger.obj
 0001:000be3a0       ?CreateInstance@idTrigger_Fade@@SAPAVidClass@@XZ 100bf3a0 f   Trigger.obj
 0001:000be450       ?Event_Trigger@idTrigger_Fade@@AAEXPAVidEntity@@@Z 100bf450 f   Trigger.obj
 0001:000be520       ?CreateInstance@idTrigger_Touch@@SAPAVidClass@@XZ 100bf520 f   Trigger.obj
 0001:000be5d0       ?Spawn@idTrigger_Touch@@QAEXXZ 100bf5d0 f   Trigger.obj
 0001:000be6a0       ?TouchEntities@idTrigger_Touch@@QAEXXZ 100bf6a0 f   Trigger.obj
 0001:000be7f0       ?Think@idTrigger_Touch@@UAEXXZ 100bf7f0 f   Trigger.obj
 0001:000be810       ?Event_Touch@idTrigger_Flag@@AAEXPAVidEntity@@PAUtrace_s@@@Z 100bf810 f   Trigger.obj
 0001:000be9e0       ?CreateInstance@idTrigger_Multi@@SAPAVidClass@@XZ 100bf9e0 f   Trigger.obj
 0001:000bea80       ?Spawn@idTrigger_Multi@@QAEXXZ 100bfa80 f   Trigger.obj
 0001:000bedb0       ?CreateInstance@idTrigger_EntityName@@SAPAVidClass@@XZ 100bfdb0 f   Trigger.obj
 0001:000bee50       ??_GidTrigger_EntityName@@UAEPAXI@Z 100bfe50 f i Trigger.obj
 0001:000bee50       ??_EidTrigger_EntityName@@UAEPAXI@Z 100bfe50 f i Trigger.obj
 0001:000beec0       ?CreateInstance@idTrigger_Timer@@SAPAVidClass@@XZ 100bfec0 f   Trigger.obj
 0001:000bef60       ??_GidTrigger_Timer@@UAEPAXI@Z 100bff60 f i Trigger.obj
 0001:000bef60       ??_EidTrigger_Timer@@UAEPAXI@Z 100bff60 f i Trigger.obj
 0001:000befe0       ?CreateInstance@idTrigger_Flag@@SAPAVidClass@@XZ 100bffe0 f   Trigger.obj
 0001:000bf0a0       ??_EidTrigger_Flag@@UAEPAXI@Z 100c00a0 f i Trigger.obj
 0001:000bf0a0       ??_GidTrigger_Flag@@UAEPAXI@Z 100c00a0 f i Trigger.obj
 0001:000bf0a0       ??_GidTrigger_Multi@@UAEPAXI@Z 100c00a0 f i Trigger.obj
 0001:000bf0a0       ??_EidTrigger_Multi@@UAEPAXI@Z 100c00a0 f i Trigger.obj
 0001:000bf110       ?Spawn@idTrigger_Flag@@QAEXXZ 100c0110 f   Trigger.obj
 0001:000bf2a0       ?GetType@idWeapon@@UBEPAVidTypeInfo@@XZ 100c02a0 f   Weapon.obj
 0001:000bf2b0       ?UpdateSkin@idWeapon@@QAE_NXZ 100c02b0 f   Weapon.obj
 0001:000bf320       ?SetModel@idWeapon@@UAEXPBD@Z 100c0320 f   Weapon.obj
 0001:000bf3c0       ?SetPushVelocity@idWeapon@@QAEXABVidVec3@@@Z 100c03c0 f   Weapon.obj
 0001:000bf3f0       ?LowerWeapon@idWeapon@@QAEXXZ 100c03f0 f   Weapon.obj
 0001:000bf440       ?RaiseWeapon@idWeapon@@QAEXXZ 100c0440 f   Weapon.obj
 0001:000bf4a0       ?IsReady@idWeapon@@QBE_NXZ 100c04a0 f   Weapon.obj
 0001:000bf4e0       ?IsReloading@idWeapon@@QBE_NXZ 100c04e0 f   Weapon.obj
 0001:000bf4f0       ?IsHolstered@idWeapon@@QBE_NXZ 100c04f0 f   Weapon.obj
 0001:000bf500       ?ConstructScriptObject@idWeapon@@UAEPAVidThread@@XZ 100c0500 f   Weapon.obj
 0001:000bf570       ?DeconstructScriptObject@idWeapon@@UAEXXZ 100c0570 f   Weapon.obj
 0001:000bf5e0       ?GetZoomFov@idWeapon@@QAEHXZ 100c05e0 f   Weapon.obj
 0001:000bf5f0       ?GetWeaponAngleOffsets@idWeapon@@QAEXPAHPAM1@Z 100c05f0 f   Weapon.obj
 0001:000bf620       ?GetWeaponTimeOffsets@idWeapon@@QAEXPAM0@Z 100c0620 f   Weapon.obj
 0001:000bf640       ?AmmoAvailable@idWeapon@@QBEHXZ 100c0640 f   Weapon.obj
 0001:000bf670       ?AmmoInClip@idWeapon@@QBEHXZ 100c0670 f   Weapon.obj
 0001:000bf680       ?ResetAmmoClip@idWeapon@@QAEXXZ 100c0680 f   Weapon.obj
 0001:000bf690       ?GetAmmoType@idWeapon@@QBEHXZ 100c0690 f   Weapon.obj
 0001:000bf6a0       ?ClipSize@idWeapon@@QBEHXZ 100c06a0 f   Weapon.obj
 0001:000bf6b0       ?LowAmmo@idWeapon@@QBEHXZ  100c06b0 f   Weapon.obj
 0001:000bf6c0       ?GetGrabberState@idWeapon@@QBEHXZ 100c06c0 f   Weapon.obj
 0001:000bf6d0       ?AmmoCount@idWeapon@@QBEHXZ 100c06d0 f   Weapon.obj
 0001:000bf700       ?Event_GetOwner@idWeapon@@AAEXXZ 100c0700 f   Weapon.obj
 0001:000bf710       ?Event_WeaponReloading@idWeapon@@AAEXXZ 100c0710 f   Weapon.obj
 0001:000bf720       ?Event_UseAmmo@idWeapon@@AAEXH@Z 100c0720 f   Weapon.obj
 0001:000bf7a0       ?Event_AddToClip@idWeapon@@AAEXH@Z 100c07a0 f   Weapon.obj
 0001:000bf830       ?Event_AmmoInClip@idWeapon@@AAEXXZ 100c0830 f   Weapon.obj
 0001:000bf850       ?Event_AmmoAvailable@idWeapon@@AAEXXZ 100c0850 f   Weapon.obj
 0001:000bf8a0       ?Event_TotalAmmoCount@idWeapon@@AAEXXZ 100c08a0 f   Weapon.obj
 0001:000bf8d0       ?Event_ClipSize@idWeapon@@AAEXXZ 100c08d0 f   Weapon.obj
 0001:000bf8f0       ?Event_NetReload@idWeapon@@AAEXXZ 100c08f0 f   Weapon.obj
 0001:000bf910       ?Event_NetEndReload@idWeapon@@AAEXXZ 100c0910 f   Weapon.obj
 0001:000bf930       ?Event_AnimDone@idWeapon@@AAEXHH@Z 100c0930 f   Weapon.obj
 0001:000bf980       ?Event_SetBlendFrames@idWeapon@@AAEXHH@Z 100c0980 f   Weapon.obj
 0001:000bf990       ?Event_GetBlendFrames@idWeapon@@AAEXH@Z 100c0990 f   Weapon.obj
 0001:000bf9a0       ?Event_Next@idWeapon@@AAEXXZ 100c09a0 f   Weapon.obj
 0001:000bf9b0       ?Event_GetLightParm@idWeapon@@AAEXH@Z 100c09b0 f   Weapon.obj
 0001:000bf9f0       ?Event_SetLightParm@idWeapon@@AAEXHM@Z 100c09f0 f   Weapon.obj
 0001:000bfa40       ?Event_SetLightParms@idWeapon@@AAEXMMMM@Z 100c0a40 f   Weapon.obj
 0001:000bfa90       ?Event_Grabber@idWeapon@@AAEXH@Z 100c0a90 f   Weapon.obj
 0001:000bfab0       ?Event_GrabberHasTarget@idWeapon@@AAEXXZ 100c0ab0 f   Weapon.obj
 0001:000bfac0       ?Event_GrabberSetGrabDistance@idWeapon@@AAEXM@Z 100c0ac0 f   Weapon.obj
 0001:000bfae0       ?Event_CreateProjectile@idWeapon@@AAEXXZ 100c0ae0 f   Weapon.obj
 0001:000bfb70       ?Event_StartWeaponSmoke@idWeapon@@AAEXXZ 100c0b70 f   Weapon.obj
 0001:000bfb80       ?Event_StopWeaponSmoke@idWeapon@@AAEXXZ 100c0b80 f   Weapon.obj
 0001:000bfb90       ?Event_AllowDrop@idWeapon@@AAEXH@Z 100c0b90 f   Weapon.obj
 0001:000bfbb0       ?Event_IsInvisible@idWeapon@@AAEXXZ 100c0bb0 f   Weapon.obj
 0001:000bfbf0       ?ClientPredictionThink@idWeapon@@UAEXXZ 100c0bf0 f   Weapon.obj
 0001:000bfc00       ?Spawn@idWeapon@@QAEXXZ    100c0c00 f   Weapon.obj
 0001:000bfd00       ?SetOwner@idWeapon@@QAEXPAVidPlayer@@@Z 100c0d00 f   Weapon.obj
 0001:000bfd90       ?Save@idWeapon@@QBEXPAVidSaveGame@@@Z 100c0d90 f   Weapon.obj
 0001:000c0470       ?InitWorldModel@idWeapon@@AAEXPBVidDeclEntityDef@@@Z 100c1470 f   Weapon.obj
 0001:000c0660       ?Icon@idWeapon@@QBEPBDXZ   100c1660 f   Weapon.obj
 0001:000c0670       ?UpdateGUI@idWeapon@@QAEXXZ 100c1670 f   Weapon.obj
 0001:000c08b0       ?GetGlobalJointTransform@idWeapon@@QAE_N_NW4jointHandle_t@@AAVidVec3@@AAVidMat3@@@Z 100c18b0 f   Weapon.obj
 0001:000c0e00       ?Raise@idWeapon@@QAEXXZ    100c1e00 f   Weapon.obj
 0001:000c0e20       ?PutAway@idWeapon@@QAEXXZ  100c1e20 f   Weapon.obj
 0001:000c0e50       ?Reload@idWeapon@@QAEXXZ   100c1e50 f   Weapon.obj
 0001:000c0e70       ?HideWeapon@idWeapon@@QAEXXZ 100c1e70 f   Weapon.obj
 0001:000c0ed0       ?HideWorldModel@idWeapon@@QAEXXZ 100c1ed0 f   Weapon.obj
 0001:000c0f10       ?ShowWorldModel@idWeapon@@QAEXXZ 100c1f10 f   Weapon.obj
 0001:000c0f50       ?BeginAttack@idWeapon@@QAEXXZ 100c1f50 f   Weapon.obj
 0001:000c0fb0       ?EndAttack@idWeapon@@QAEXXZ 100c1fb0 f   Weapon.obj
 0001:000c0ff0       ?ShowCrosshair@idWeapon@@QBE_NXZ 100c1ff0 f   Weapon.obj
 0001:000c1240       ?CanDrop@idWeapon@@QBE_NXZ 100c2240 f   Weapon.obj
 0001:000c1290       ?DropItem@idWeapon@@QAEPAVidEntity@@ABVidVec3@@HH_N@Z 100c2290 f   Weapon.obj
 0001:000c13a0       ?SetState@idWeapon@@QAEXPBDH@Z 100c23a0 f   Weapon.obj
 0001:000c1450       ?UpdateNozzleFx@idWeapon@@AAEXXZ 100c2450 f   Weapon.obj
 0001:000c15f0       ?BloodSplat@idWeapon@@QAE_NM@Z 100c25f0 f   Weapon.obj
 0001:000c1c70       ?MuzzleRise@idWeapon@@AAEXAAVidVec3@@AAVidMat3@@@Z 100c2c70 f   Weapon.obj
 0001:000c1ef0       ?UpdateScript@idWeapon@@QAEXXZ 100c2ef0 f   Weapon.obj
 0001:000c1f90       ?AlertMonsters@idWeapon@@AAEXXZ 100c2f90 f   Weapon.obj
 0001:000c2660       ?EnterCinematic@idWeapon@@QAEXXZ 100c3660 f   Weapon.obj
 0001:000c2770       ?ExitCinematic@idWeapon@@QAEXXZ 100c3770 f   Weapon.obj
 0001:000c27b0       ?NetCatchup@idWeapon@@QAEXXZ 100c37b0 f   Weapon.obj
 0001:000c27e0       ?GetAmmoNumForName@idWeapon@@SAHPBD@Z 100c37e0 f   Weapon.obj
 0001:000c2960       ?WriteToSnapshot@idWeapon@@UBEXAAVidBitMsgDelta@@@Z 100c3960 f   Weapon.obj
 0001:000c29c0       ?ReadFromSnapshot@idWeapon@@UAEXABVidBitMsgDelta@@@Z 100c39c0 f   Weapon.obj
 0001:000c2ad0       ?ClientReceiveEvent@idWeapon@@UAE_NHHABVidBitMsg@@@Z 100c3ad0 f   Weapon.obj
 0001:000c2c10       ?Event_WeaponState@idWeapon@@AAEXPBDH@Z 100c3c10 f   Weapon.obj
 0001:000c2c90       ?Event_WeaponReady@idWeapon@@AAEXXZ 100c3c90 f   Weapon.obj
 0001:000c2cd0       ?Event_WeaponOutOfAmmo@idWeapon@@AAEXXZ 100c3cd0 f   Weapon.obj
 0001:000c2d00       ?Event_WeaponHolstered@idWeapon@@AAEXXZ 100c3d00 f   Weapon.obj
 0001:000c2d30       ?Event_WeaponRising@idWeapon@@AAEXXZ 100c3d30 f   Weapon.obj
 0001:000c2d60       ?Event_WeaponLowering@idWeapon@@AAEXXZ 100c3d60 f   Weapon.obj
 0001:000c2d90       ?Event_AutoReload@idWeapon@@AAEXXZ 100c3d90 f   Weapon.obj
 0001:000c2e00       ?Event_PlayAnim@idWeapon@@AAEXHPBD@Z 100c3e00 f   Weapon.obj
 0001:000c2fc0       ?Event_PlayCycle@idWeapon@@AAEXHPBD@Z 100c3fc0 f   Weapon.obj
 0001:000c3180       ?Event_SetSkin@idWeapon@@AAEXPBD@Z 100c4180 f   Weapon.obj
 0001:000c3270       ?Event_Melee@idWeapon@@AAEXXZ 100c4270 f   Weapon.obj
 0001:000c3ab0       ?Event_GetWorldModel@idWeapon@@AAEXXZ 100c4ab0 f   Weapon.obj
 0001:000c3af0       ??4WeaponLight_t@@QAEAAU0@ABU0@@Z 100c4af0 f i Weapon.obj
 0001:000c3cb0       ??0hashnode_s@?$idHashTable@UWeaponParticle_t@@@@QAE@PBDUWeaponParticle_t@@PAU01@@Z 100c4cb0 f i Weapon.obj
 0001:000c3d30       ??0hashnode_s@?$idHashTable@UWeaponLight_t@@@@QAE@PBDUWeaponLight_t@@PAU01@@Z 100c4d30 f i Weapon.obj
 0001:000c3db0       ?CacheWeapon@idWeapon@@SAXPBD@Z 100c4db0 f   Weapon.obj
 0001:000c3ed0       ?UpdateFlashPosition@idWeapon@@AAEXXZ 100c4ed0 f   Weapon.obj
 0001:000c4050       ?MuzzleFlashLight@idWeapon@@AAEXXZ 100c5050 f   Weapon.obj
 0001:000c4160       ?OwnerDied@idWeapon@@QAEXXZ 100c5160 f   Weapon.obj
 0001:000c4200       ?WeaponStolen@idWeapon@@QAEXXZ 100c5200 f   Weapon.obj
 0001:000c42a0       ?PresentWeapon@idWeapon@@QAEX_N@Z 100c52a0 f   Weapon.obj
 0001:000c4b90       ?GetAmmoNameForNum@idWeapon@@SAPBDH@Z 100c5b90 f   Weapon.obj
 0001:000c4d50       ?GetAmmoPickupNameForNum@idWeapon@@SAPBDH@Z 100c5d50 f   Weapon.obj
 0001:000c4e00       ?Event_Flashlight@idWeapon@@AAEXH@Z 100c5e00 f   Weapon.obj
 0001:000c4e30       ?Event_LaunchProjectiles@idWeapon@@AAEXHMMMM@Z 100c5e30 f   Weapon.obj
 0001:000c5cf0       ?Event_LaunchProjectilesEllipse@idWeapon@@AAEXHMMMM@Z 100c6cf0 f   Weapon.obj
 0001:000c6750       ?Event_LaunchPowerup@idWeapon@@AAEXPBDMH@Z 100c7750 f   Weapon.obj
 0001:000c68c0       ?Event_EjectBrass@idWeapon@@AAEXXZ 100c78c0 f   Weapon.obj
 0001:000c6b60       ?Restore@idWeapon@@QAEXPAVidRestoreGame@@@Z 100c7b60 f   Weapon.obj
 0001:000c7800       ?Event_StartWeaponParticle@idWeapon@@AAEXPBD@Z 100c8800 f   Weapon.obj
 0001:000c78c0       ?Event_StopWeaponParticle@idWeapon@@AAEXPBD@Z 100c88c0 f   Weapon.obj
 0001:000c7980       ?Event_StartWeaponLight@idWeapon@@AAEXPBD@Z 100c8980 f   Weapon.obj
 0001:000c7a10       ?Event_StopWeaponLight@idWeapon@@AAEXPBD@Z 100c8a10 f   Weapon.obj
 0001:000c7ac0       ?Clear@idWeapon@@QAEXXZ    100c8ac0 f   Weapon.obj
 0001:000c82c0       ?GetWeaponDef@idWeapon@@QAEXPBDH@Z 100c92c0 f   Weapon.obj
 0001:000c9ed0       ?Event_Clear@idWeapon@@AAEXXZ 100caed0 f   Weapon.obj
 0001:000c9ee0       ??1?$idHashTable@UWeaponParticle_t@@@@QAE@XZ 100caee0 f i Weapon.obj
 0001:000c9f50       ??1?$idHashTable@UWeaponLight_t@@@@QAE@XZ 100caf50 f i Weapon.obj
 0001:000c9fc0       ??0idWeapon@@QAE@XZ        100cafc0 f   Weapon.obj
 0001:000ca430       ??1idWeapon@@UAE@XZ        100cb430 f   Weapon.obj
 0001:000ca650       ?CreateInstance@idWeapon@@SAPAVidClass@@XZ 100cb650 f   Weapon.obj
 0001:000ca6f0       ??_EidWeapon@@UAEPAXI@Z    100cb6f0 f i Weapon.obj
 0001:000ca6f0       ??_GidWeapon@@UAEPAXI@Z    100cb6f0 f i Weapon.obj
 0001:000ca710       ?GetType@idWorldspawn@@UBEPAVidTypeInfo@@XZ 100cb710 f   WorldSpawn.obj
 0001:000ca720       ?Event_Remove@idWorldspawn@@AAEXXZ 100cb720 f   WorldSpawn.obj
 0001:000ca740       ?CreateInstance@idWorldspawn@@SAPAVidClass@@XZ 100cb740 f   WorldSpawn.obj
 0001:000ca7f0       ??_GidWorldspawn@@UAEPAXI@Z 100cb7f0 f i WorldSpawn.obj
 0001:000ca7f0       ??_EidWorldspawn@@UAEPAXI@Z 100cb7f0 f i WorldSpawn.obj
 0001:000ca830       ?Spawn@idWorldspawn@@QAEXXZ 100cb830 f   WorldSpawn.obj
 0001:000caa50       ?Restore@idWorldspawn@@QAEXPAVidRestoreGame@@@Z 100cba50 f   WorldSpawn.obj
 0001:000caaf0       ??1idAAS@@UAE@XZ           100cbaf0 f   AAS.obj
 0001:000cab00       ?Shutdown@idAASLocal@@UAEXXZ 100cbb00 f   AAS.obj
 0001:000cab40       ?PointAreaNum@idAASLocal@@UBEHABVidVec3@@@Z 100cbb40 f   AAS.obj
 0001:000cab60       ?PointReachableAreaNum@idAASLocal@@UBEHABVidVec3@@ABVidBounds@@H@Z 100cbb60 f   AAS.obj
 0001:000cab90       ?BoundsReachableAreaNum@idAASLocal@@UBEHABVidBounds@@H@Z 100cbb90 f   AAS.obj
 0001:000cabc0       ?PushPointIntoAreaNum@idAASLocal@@UBEXHAAVidVec3@@@Z 100cbbc0 f   AAS.obj
 0001:000cabe0       ?Trace@idAASLocal@@UBE_NAAUaasTrace_s@@ABVidVec3@@1@Z 100cbbe0 f   AAS.obj
 0001:000cac10       ?Init@idAASLocal@@UAE_NABVidStr@@I@Z 100cbc10 f   AAS.obj
 0001:000cacc0       ?Stats@idAASLocal@@UBEXXZ  100cbcc0 f   AAS.obj
 0001:000cad00       ?GetSettings@idAASLocal@@UBEPBVidAASSettings@@XZ 100cbd00 f   AAS.obj
 0001:000cad10       ??1idAASLocal@@UAE@XZ      100cbd10 f   AAS.obj
 0001:000cadb0       ?AreaCenter@idAASLocal@@UBE?AVidVec3@@H@Z 100cbdb0 f   AAS.obj
 0001:000cae00       ?AreaFlags@idAASLocal@@UBEHH@Z 100cbe00 f   AAS.obj
 0001:000cae20       ?AreaTravelFlags@idAASLocal@@UBEHH@Z 100cbe20 f   AAS.obj
 0001:000cae40       ?GetPlane@idAASLocal@@UBEABVidPlane@@H@Z 100cbe40 f   AAS.obj
 0001:000cae70       ?GetEdgeVertexNumbers@idAASLocal@@UBEXHQAH@Z 100cbe70 f   AAS.obj
 0001:000caec0       ?GetEdge@idAASLocal@@UBEXHAAVidVec3@@0@Z 100cbec0 f   AAS.obj
 0001:000caf50       ?Alloc@idAAS@@SAPAV1@XZ    100cbf50 f   AAS.obj
 0001:000cafd0       ??_EidAASLocal@@UAEPAXI@Z  100cbfd0 f i AAS.obj
 0001:000cafd0       ??_GidAASLocal@@UAEPAXI@Z  100cbfd0 f i AAS.obj
 0001:000caff0       ?DrawCone@idAASLocal@@ABEXABVidVec3@@0MABVidVec4@@@Z 100cbff0 f   AAS_debug.obj
 0001:000cb3c0       ?DrawReachability@idAASLocal@@ABEXPBVidReachability@@@Z 100cc3c0 f   AAS_debug.obj
 0001:000cb4a0       ?ShowFlyPath@idAASLocal@@UBEXABVidVec3@@H0@Z 100cc4a0 f   AAS_debug.obj
 0001:000cb5f0       ?ShowWallEdges@idAASLocal@@ABEXABVidVec3@@@Z 100cc5f0 f   AAS_debug.obj
 0001:000cb7f0       ?PullPlayer@idAASLocal@@ABE_NABVidVec3@@H@Z 100cc7f0 f   AAS_debug.obj
 0001:000cbc70       ?ShowPushIntoArea@idAASLocal@@ABEXABVidVec3@@@Z 100ccc70 f   AAS_debug.obj
 0001:000cbce0       ?DrawEdge@idAASLocal@@ABEXH_N@Z 100ccce0 f   AAS_debug.obj
 0001:000cbe50       ?DrawFace@idAASLocal@@ABEXH_N@Z 100cce50 f   AAS_debug.obj
 0001:000cc0c0       ?DrawArea@idAASLocal@@ABEXH@Z 100cd0c0 f   AAS_debug.obj
 0001:000cc140       ?ShowArea@idAASLocal@@ABEXABVidVec3@@@Z 100cd140 f   AAS_debug.obj
 0001:000cc380       ?ShowWalkPath@idAASLocal@@UBEXABVidVec3@@H0@Z 100cd380 f   AAS_debug.obj
 0001:000cc4d0       ?ShowHideArea@idAASLocal@@ABEXABVidVec3@@H@Z 100cd4d0 f   AAS_debug.obj
 0001:000cc6b0       ?RandomPullPlayer@idAASLocal@@ABEXABVidVec3@@@Z 100cd6b0 f   AAS_debug.obj
 0001:000cc790       ?Test@idAASLocal@@UAEXABVidVec3@@@Z 100cd790 f   AAS_debug.obj
 0001:000cc8d0       ?SortWallEdges@idAASLocal@@UBEXPAHH@Z 100cd8d0 f   AAS_pathing.obj
 0001:000cca80       ?FlyPathValid@idAASLocal@@UBE_NHABVidVec3@@H0HAAV2@AAH@Z 100cda80 f   AAS_pathing.obj
 0001:000ccb20       ?FlyPathToGoal@idAASLocal@@UBE_NAAUaasPath_s@@HABVidVec3@@H1H@Z 100cdb20 f   AAS_pathing.obj
 0001:000ccdc0       ?EdgeSplitPoint@idAASLocal@@ABE_NAAVidVec3@@HABVidPlane@@@Z 100cddc0 f   AAS_pathing.obj
 0001:000ccf20       ?FloorEdgeSplitPoint@idAASLocal@@ABE_NAAVidVec3@@HABVidPlane@@1_N@Z 100cdf20 f   AAS_pathing.obj
 0001:000cd0c0       ?WalkPathValid@idAASLocal@@UBE_NHABVidVec3@@H0HAAV2@AAH@Z 100ce0c0 f   AAS_pathing.obj
 0001:000cdbb0       ?SubSampleWalkPath@idAASLocal@@ABE?AVidVec3@@HABV2@00HAAH@Z 100cebb0 f   AAS_pathing.obj
 0001:000cdde0       ?WalkPathToGoal@idAASLocal@@UBE_NAAUaasPath_s@@HABVidVec3@@H1H@Z 100cede0 f   AAS_pathing.obj
 0001:000ce110       ?GetWallEdges@idAASLocal@@UBEHHABVidBounds@@HPAHH@Z 100cf110 f   AAS_pathing.obj
 0001:000ce400       ??0idRoutingCache@@QAE@H@Z 100cf400 f   AAS_routing.obj
 0001:000ce470       ?RoutingStats@idAASLocal@@ABEXXZ 100cf470 f   AAS_routing.obj
 0001:000ce550       ?TravelTimeToGoalArea@idAASLocal@@UBEHHABVidVec3@@HH@Z 100cf550 f   AAS_routing.obj
 0001:000ce5b0       ?LinkCache@idAASLocal@@ABEXPAVidRoutingCache@@@Z 100cf5b0 f   AAS_routing.obj
 0001:000ce640       ?AreaTravelTime@idAASLocal@@ABEGHABVidVec3@@0@Z 100cf640 f   AAS_routing.obj
 0001:000ce760       ?CalculateAreaTravelTimes@idAASLocal@@AAEXXZ 100cf760 f   AAS_routing.obj
 0001:000ce920       ?SetupRoutingCache@idAASLocal@@AAEXXZ 100cf920 f   AAS_routing.obj
 0001:000cea30       ?DeleteClusterCache@idAASLocal@@AAEXH@Z 100cfa30 f   AAS_routing.obj
 0001:000ceb10       ?DeletePortalCache@idAASLocal@@AAEXXZ 100cfb10 f   AAS_routing.obj
 0001:000cebc0       ?ShutdownRoutingCache@idAASLocal@@AAEXXZ 100cfbc0 f   AAS_routing.obj
 0001:000cec50       ?SetupRouting@idAASLocal@@AAE_NXZ 100cfc50 f   AAS_routing.obj
 0001:000cec70       ?ShutdownRouting@idAASLocal@@AAEXXZ 100cfc70 f   AAS_routing.obj
 0001:000cec90       ?RemoveRoutingCacheUsingArea@idAASLocal@@AAEXH@Z 100cfc90 f   AAS_routing.obj
 0001:000ced00       ?SetAreaState_r@idAASLocal@@AAE_NHABVidBounds@@H_N@Z 100cfd00 f   AAS_routing.obj
 0001:000cee00       ?SetAreaState@idAASLocal@@UAE_NABVidBounds@@H_N@Z 100cfe00 f   AAS_routing.obj
 0001:000ceeb0       ?GetBoundsAreas_r@idAASLocal@@ABEXHABVidBounds@@AAV?$idList@H@@@Z 100cfeb0 f   AAS_routing.obj
 0001:000cf050       ?SetObstacleState@idAASLocal@@AAEXPBVidRoutingObstacle@@_N@Z 100d0050 f   AAS_routing.obj
 0001:000cf1d0       ?AddObstacle@idAASLocal@@UAEHABVidBounds@@@Z 100d01d0 f   AAS_routing.obj
 0001:000cf400       ?GetAreaReachability@idAASLocal@@ABEPAVidReachability@@HH@Z 100d0400 f   AAS_routing.obj
 0001:000cf430       ?UpdateAreaRoutingCache@idAASLocal@@ABEXPAVidRoutingCache@@@Z 100d0430 f   AAS_routing.obj
 0001:000cf6c0       ?GetAreaRoutingCache@idAASLocal@@ABEPAVidRoutingCache@@HHH@Z 100d06c0 f   AAS_routing.obj
 0001:000cf810       ?UpdatePortalRoutingCache@idAASLocal@@ABEXPAVidRoutingCache@@@Z 100d0810 f   AAS_routing.obj
 0001:000cfa20       ?GetPortalRoutingCache@idAASLocal@@ABEPAVidRoutingCache@@HHH@Z 100d0a20 f   AAS_routing.obj
 0001:000cfb10       ?FindNearestGoal@idAASLocal@@UBE_NAAUaasGoal_s@@HVidVec3@@ABV3@HPAUaasObstacle_s@@HAAVidAASCallback@@@Z 100d0b10 f   AAS_routing.obj
 0001:000d0630       ?RemoveAllObstacles@idAASLocal@@UAEXXZ 100d1630 f   AAS_routing.obj
 0001:000d06b0       ?DeleteOldestCache@idAASLocal@@ABEXXZ 100d16b0 f   AAS_routing.obj
 0001:000d07b0       ?RouteToGoalArea@idAASLocal@@UBE_NHVidVec3@@HHAAHPAPAVidReachability@@@Z 100d17b0 f   AAS_routing.obj
 0001:000d0be0       ?RemoveObstacle@idAASLocal@@UAEXH@Z 100d1be0 f   AAS_routing.obj
 0001:000d0c70       ??1idAASFindCover@@UAE@XZ  100d1c70 f   AI.obj
 0001:000d0cd0       ??1idAASCallback@@UAE@XZ   100d1cd0 f i AI.obj
 0001:000d0cd0       ??1idAASFindAreaOutOfRange@@UAE@XZ 100d1cd0 f i AI.obj
 0001:000d0ce0       ??1idAASFindAttackPosition@@UAE@XZ 100d1ce0 f   AI.obj
 0001:000d0d40       ?DrawRoute@idAI@@IBEXXZ    100d1d40 f   AI.obj
 0001:000d0dc0       ?PathToGoal@idAI@@IBE_NAAUaasPath_s@@HABVidVec3@@H1@Z 100d1dc0 f   AI.obj
 0001:000d0ec0       ?MoveDone@idAI@@IBE_NXZ    100d1ec0 f   AI.obj
 0001:000d0ed0       ?FacingIdeal@idAI@@IAE_NXZ 100d1ed0 f   AI.obj
 0001:000d0fd0       ?TurnToward@idAI@@IAE_NM@Z 100d1fd0 f   AI.obj
 0001:000d1080       ?ApplyImpulse@idAI@@MAEXPAVidEntity@@HABVidVec3@@1@Z 100d2080 f   AI.obj
 0001:000d10a0       ?GetMoveDelta@idAI@@IAEXABVidMat3@@0AAVidVec3@@@Z 100d20a0 f   AI.obj
 0001:000d12f0       ?Seek@@YA?AVidVec3@@AAV1@ABV1@1M@Z 100d22f0 f   AI.obj
 0001:000d13b0       ?FlySeekGoal@idAI@@IAEXAAVidVec3@@0@Z 100d23b0 f   AI.obj
 0001:000d1450       ?AdjustFlySpeed@idAI@@IAEXAAVidVec3@@@Z 100d2450 f   AI.obj
 0001:000d1630       ?ReactionTo@idAI@@IAEHPBVidEntity@@@Z 100d2630 f   AI.obj
 0001:000d16d0       ?BeginAttack@idAI@@IAEXPBD@Z 100d26d0 f   AI.obj
 0001:000d1700       ?EndAttack@idAI@@IAEXXZ    100d2700 f   AI.obj
 0001:000d1720       ?UpdateMuzzleFlash@idAI@@IAEXXZ 100d2720 f   AI.obj
 0001:000d1930       ?GetType@idCombatNode@@UBEPAVidTypeInfo@@XZ 100d2930 f   AI.obj
 0001:000d1940       ??0idCombatNode@@QAE@XZ    100d2940 f   AI.obj
 0001:000d19b0       ?Save@idCombatNode@@QBEXPAVidSaveGame@@@Z 100d29b0 f   AI.obj
 0001:000d1a50       ?Restore@idCombatNode@@QAEXPAVidRestoreGame@@@Z 100d2a50 f   AI.obj
 0001:000d1ae0       ?IsDisabled@idCombatNode@@QBE_NXZ 100d2ae0 f   AI.obj
 0001:000d1af0       ?Event_Activate@idCombatNode@@AAEXPAVidEntity@@@Z 100d2af0 f   AI.obj
 0001:000d1b10       ??0idMoveState@@QAE@XZ     100d2b10 f   AI.obj
 0001:000d1b80       ?Save@idMoveState@@QBEXPAVidSaveGame@@@Z 100d2b80 f   AI.obj
 0001:000d1c70       ?Restore@idMoveState@@QAEXPAVidRestoreGame@@@Z 100d2c70 f   AI.obj
 0001:000d1d50       ??0idAASFindCover@@QAE@ABVidVec3@@@Z 100d2d50 f   AI.obj
 0001:000d1e40       ??_EidAASFindCover@@UAEPAXI@Z 100d2e40 f i AI.obj
 0001:000d1e40       ??_GidAASFindCover@@UAEPAXI@Z 100d2e40 f i AI.obj
 0001:000d1eb0       ?TestArea@idAASFindCover@@UAE_NPBVidAAS@@H@Z 100d2eb0 f   AI.obj
 0001:000d1fa0       ??_GidAASFindAreaOutOfRange@@UAEPAXI@Z 100d2fa0 f i AI.obj
 0001:000d1fa0       ??_GidAASCallback@@UAEPAXI@Z 100d2fa0 f i AI.obj
 0001:000d1fa0       ??_EidAASCallback@@UAEPAXI@Z 100d2fa0 f i AI.obj
 0001:000d1fa0       ??_EidAASFindAreaOutOfRange@@UAEPAXI@Z 100d2fa0 f i AI.obj
 0001:000d1fc0       ??0idAASFindAttackPosition@@QAE@PBVidAI@@ABVidMat3@@PAVidEntity@@ABVidVec3@@3@Z 100d2fc0 f   AI.obj
 0001:000d2190       ??_GidAASFindAttackPosition@@UAEPAXI@Z 100d3190 f i AI.obj
 0001:000d2190       ??_EidAASFindAttackPosition@@UAEPAXI@Z 100d3190 f i AI.obj
 0001:000d2200       ?Gib@idAI@@UAEXABVidVec3@@PBD@Z 100d3200 f   AI.obj
 0001:000d2260       ?InitMuzzleFlash@idAI@@IAEXXZ 100d3260 f   AI.obj
 0001:000d23a0       ?List_f@idAI@@SAXABVidCmdArgs@@@Z 100d33a0 f   AI.obj
 0001:000d2470       ?DormantBegin@idAI@@MAEXXZ 100d3470 f   AI.obj
 0001:000d24e0       ?LinkScriptVariables@idAI@@IAEXXZ 100d34e0 f   AI.obj
 0001:000d2900       ?UpdateAIScript@idAI@@IAEXXZ 100d3900 f   AI.obj
 0001:000d2940       ?KickObstacles@idAI@@IAEXABVidVec3@@MPAVidEntity@@@Z 100d3940 f   AI.obj
 0001:000d2fe0       ?ValidForBounds@@YA_NPBVidAASSettings@@ABVidBounds@@@Z 100d3fe0 f   AI.obj
 0001:000d3020       ?ReachedPos@idAI@@IBE_NABVidVec3@@W4moveCommand_t@@@Z 100d4020 f   AI.obj
 0001:000d3230       ?PointReachableAreaNum@idAI@@IBEHABVidVec3@@M@Z 100d4230 f   AI.obj
 0001:000d3310       ?TravelDistance@idAI@@IBEMABVidVec3@@0@Z 100d4310 f   AI.obj
 0001:000d36b0       ?StopMove@idAI@@IAEXW4moveStatus_t@@@Z 100d46b0 f   AI.obj
 0001:000d37a0       ?DirectMoveToPosition@idAI@@IAE_NABVidVec3@@@Z 100d47a0 f   AI.obj
 0001:000d3990       ?MoveToEnemyHeight@idAI@@IAE_NXZ 100d4990 f   AI.obj
 0001:000d3a80       ?MoveToAttackPosition@idAI@@IAE_NPAVidEntity@@H@Z 100d4a80 f   AI.obj
 0001:000d3d70       ?MoveToCover@idAI@@IAE_NPAVidEntity@@ABVidVec3@@@Z 100d4d70 f   AI.obj
 0001:000d3fd0       ?SlideToPosition@idAI@@IAE_NABVidVec3@@M@Z 100d4fd0 f   AI.obj
 0001:000d41b0       ?StepDirection@idAI@@IAE_NM@Z 100d51b0 f   AI.obj
 0001:000d4550       ?NewWanderDir@idAI@@IAE_NABVidVec3@@@Z 100d5550 f   AI.obj
 0001:000d4a20       ?BlockedFailSafe@idAI@@IAEXXZ 100d5a20 f   AI.obj
 0001:000d4ba0       ?Turn@idAI@@IAEXXZ         100d5ba0 f   AI.obj
 0001:000d52b0       ?TurnToward@idAI@@IAE_NABVidVec3@@@Z 100d62b0 f   AI.obj
 0001:000d5460       ?CheckObstacleAvoidance@idAI@@IAEXABVidVec3@@AAV2@@Z 100d6460 f   AI.obj
 0001:000d59f0       ?DeadMove@idAI@@IAEXXZ     100d69f0 f   AI.obj
 0001:000d5a70       ?AdjustFlyingAngles@idAI@@IAEXXZ 100d6a70 f   AI.obj
 0001:000d5d70       ?AddFlyBob@idAI@@IAEXAAVidVec3@@@Z 100d6d70 f   AI.obj
 0001:000d6140       ?FlyTurn@idAI@@IAEXXZ      100d7140 f   AI.obj
 0001:000d6230       ?SpawnParticlesOnJoint@idAI@@IAEPBVidDeclParticle@@AAUparticleEmitter_s@@PBD1@Z 100d7230 f   AI.obj
 0001:000d6430       ?PlayCinematic@idAI@@IAEXXZ 100d7430 f   AI.obj
 0001:000d66f0       ?TalkTo@idAI@@QAEXPAVidActor@@@Z 100d76f0 f   AI.obj
 0001:000d6770       ?GetEnemy@idAI@@QBEPAVidActor@@XZ 100d7770 f   AI.obj
 0001:000d67a0       ?GetTalkState@idAI@@QBE?AW4talkState_t@@XZ 100d77a0 f   AI.obj
 0001:000d67e0       ?SetEnemyPosition@idAI@@IAEXXZ 100d77e0 f   AI.obj
 0001:000d6b40       ?UpdateEnemyPosition@idAI@@IAEXXZ 100d7b40 f   AI.obj
 0001:000d6dd0       ?CreateProjectileClipModel@idAI@@IBEXXZ 100d7dd0 f   AI.obj
 0001:000d6ee0       ?GetAimDir@idAI@@QBE_NABVidVec3@@PAVidEntity@@PBV3@AAV2@@Z 100d7ee0 f   AI.obj
 0001:000d7300       ?CreateProjectile@idAI@@IAEPAVidProjectile@@ABVidVec3@@0@Z 100d8300 f   AI.obj
 0001:000d7440       ?RemoveProjectile@idAI@@IAEXXZ 100d8440 f   AI.obj
 0001:000d7490       ?DamageFeedback@idAI@@MAEXPAVidEntity@@0AAH@Z 100d8490 f   AI.obj
 0001:000d7510       ?DirectDamage@idAI@@IAEXPBDPAVidEntity@@@Z 100d8510 f   AI.obj
 0001:000d77f0       ?PushWithAF@idAI@@IAEXXZ   100d87f0 f   AI.obj
 0001:000d7a40       ?GetMuzzle@idAI@@IAEXPBDAAVidVec3@@AAVidMat3@@@Z 100d8a40 f   AI.obj
 0001:000d7c10       ?TriggerWeaponEffects@idAI@@IAEXABVidVec3@@@Z 100d8c10 f   AI.obj
 0001:000d7d60       ?SetChatSound@idAI@@IAEXXZ 100d8d60 f   AI.obj
 0001:000d7fc0       ?CanPlayChatterSounds@idAI@@MBE_NXZ 100d8fc0 f   AI.obj
 0001:000d8050       ?PlayChatter@idAI@@IAEXXZ  100d9050 f   AI.obj
 0001:000d80f0       ?UpdateParticles@idAI@@IAEXXZ 100d90f0 f   AI.obj
 0001:000d87b0       ?TriggerParticles@idAI@@IAEXPBD@Z 100d97b0 f   AI.obj
 0001:000d8810       ?TriggerFX@idAI@@IAEXPBD0@Z 100d9810 f   AI.obj
 0001:000d88c0       ?UpdateAnimationControllers@idAI@@MAE_NXZ 100d98c0 f   AI.obj
 0001:000d9fb0       ?CreateInstance@idCombatNode@@SAPAVidClass@@XZ 100dafb0 f   AI.obj
 0001:000da050       ?Spawn@idCombatNode@@QAEXXZ 100db050 f   AI.obj
 0001:000da270       ?EntityInView@idCombatNode@@QAE_NPAVidActor@@ABVidVec3@@@Z 100db270 f   AI.obj
 0001:000da430       ?Event_MarkUsed@idCombatNode@@AAEXXZ 100db430 f   AI.obj
 0001:000da470       ??0hashnode_s@?$idHashTable@UfuncEmitter_s@@@@QAE@PBDUfuncEmitter_s@@PAU01@@Z 100db470 f i AI.obj
 0001:000da4f0       ?TestArea@idAASFindAttackPosition@@UAE_NPBVidAAS@@H@Z 100db4f0 f   AI.obj
 0001:000da840       ?Save@idAI@@QBEXPAVidSaveGame@@@Z 100db840 f   AI.obj
 0001:000dafb0       ?DormantEnd@idAI@@MAEXXZ   100dbfb0 f   AI.obj
 0001:000db070       ?SetAAS@idAI@@IAEXXZ       100dc070 f   AI.obj
 0001:000db1d0       ?FaceEnemy@idAI@@IAE_NXZ   100dc1d0 f   AI.obj
 0001:000db2c0       ?FaceEntity@idAI@@IAE_NPAVidEntity@@@Z 100dc2c0 f   AI.obj
 0001:000db3c0       ?MoveToEnemy@idAI@@IAE_NXZ 100dc3c0 f   AI.obj
 0001:000db630       ?MoveToEntity@idAI@@IAE_NPAVidEntity@@@Z 100dc630 f   AI.obj
 0001:000db920       ?MoveOutOfRange@idAI@@IAE_NPAVidEntity@@M@Z 100dc920 f   AI.obj
 0001:000dbbe0       ?MoveToPosition@idAI@@IAE_NABVidVec3@@@Z 100dcbe0 f   AI.obj
 0001:000dbda0       ?WanderAround@idAI@@IAE_NXZ 100dcda0 f   AI.obj
 0001:000dbf20       ?GetMovePos@idAI@@IAE_NAAVidVec3@@@Z 100dcf20 f   AI.obj
 0001:000dc380       ?EntityCanSeePos@idAI@@IAE_NPAVidActor@@ABVidVec3@@1@Z 100dd380 f   AI.obj
 0001:000dc580       ?AdjustFlyHeight@idAI@@IAEXAAVidVec3@@ABV2@@Z 100dd580 f   AI.obj
 0001:000dc7c0       ?SpawnParticles@idAI@@IAEXPBD@Z 100dd7c0 f   AI.obj
 0001:000dcc30       ?ClearEnemy@idAI@@IAEXXZ   100ddc30 f   AI.obj
 0001:000dccb0       ?EnemyPositionValid@idAI@@IBE_NXZ 100ddcb0 f   AI.obj
 0001:000dcd80       ?LaunchProjectile@idAI@@IAEPAVidProjectile@@PBDPAVidEntity@@_N@Z 100ddd80 f   AI.obj
 0001:000ddab0       ?TestMelee@idAI@@IBE_NXZ   100deab0 f   AI.obj
 0001:000ddd90       ?AttackMelee@idAI@@IAE_NPBD@Z 100ded90 f   AI.obj
 0001:000de140       ?Hide@idAI@@MAEXXZ         100df140 f   AI.obj
 0001:000de1c0       ?Show@idAI@@MAEXXZ         100df1c0 f   AI.obj
 0001:000de2a0       ?DrawDebugInfo@idCombatNode@@SAXXZ 100df2a0 f   AI.obj
 0001:000de8e0       ?TestArea@idAASFindAreaOutOfRange@@UAE_NPBVidAAS@@H@Z 100df8e0 f   AI.obj
 0001:000de9c0       ?AnimMove@idAI@@IAEXXZ     100df9c0 f   AI.obj
 0001:000df150       ?SlideMove@idAI@@IAEXXZ    100e0150 f   AI.obj
 0001:000dfa90       ?FlyMove@idAI@@IAEXXZ      100e0a90 f   AI.obj
 0001:000e0150       ?StaticMove@idAI@@IAEXXZ   100e1150 f   AI.obj
 0001:000e0440       ?Killed@idAI@@MAEXPAVidEntity@@0HABVidVec3@@H@Z 100e1440 f   AI.obj
 0001:000e0a60       ?SetEnemy@idAI@@IAEXPAVidActor@@@Z 100e1a60 f   AI.obj
 0001:000e0bf0       ?CalculateAttackOffsets@idAI@@IAEXXZ 100e1bf0 f   AI.obj
 0001:000e0ee0       ?GetEmitter@idAI@@IAEPAVidEntity@@PBD@Z 100e1ee0 f   AI.obj
 0001:000e0f60       ?Restore@idAI@@QAEXPAVidRestoreGame@@@Z 100e1f60 f   AI.obj
 0001:000e1f00       ?Spawn@idAI@@QAEXXZ        100e2f00 f   AI.obj
 0001:000e32c0       ?Think@idAI@@MAEXXZ        100e42c0 f   AI.obj
 0001:000e36d0       ?Pain@idAI@@MAE_NPAVidEntity@@0HABVidVec3@@H@Z 100e46d0 f   AI.obj
 0001:000e3810       ?Activate@idAI@@IAEXPAVidEntity@@@Z 100e4810 f   AI.obj
 0001:000e39d0       ?TouchedByFlashlight@idAI@@QAEXPAVidActor@@@Z 100e49d0 f   AI.obj
 0001:000e39f0       ?StartEmitter@idAI@@IAEPAVidEntity@@PBD00@Z 100e49f0 f   AI.obj
 0001:000e3e40       ?StopEmitter@idAI@@IAEXPBD@Z 100e4e40 f   AI.obj
 0001:000e3f70       ??1?$idHashTable@UfuncEmitter_s@@@@QAE@XZ 100e4f70 f i AI.obj
 0001:000e3fe0       ??0idAI@@QAE@XZ            100e4fe0 f   AI.obj
 0001:000e44e0       ??1idAI@@UAE@XZ            100e54e0 f   AI.obj
 0001:000e4700       ??_GidAI_Vagary@@UAEPAXI@Z 100e5700 f i AI_Vagary.obj
 0001:000e4700       ??_GidAI@@UAEPAXI@Z        100e5700 f i AI.obj
 0001:000e4700       ??_EidAI@@UAEPAXI@Z        100e5700 f i AI.obj
 0001:000e4700       ??_EidAI_Vagary@@UAEPAXI@Z 100e5700 f i AI_Vagary.obj
 0001:000e4720       ?CreateInstance@idAI@@SAPAVidClass@@XZ 100e5720 f   AI_events.obj
 0001:000e47c0       ?GetType@idAI@@UBEPAVidTypeInfo@@XZ 100e57c0 f   AI_events.obj
 0001:000e47d0       ?Event_Activate@idAI@@IAEXPAVidEntity@@@Z 100e57d0 f   AI_events.obj
 0001:000e47e0       ?Event_FindEnemy@idAI@@IAEXH@Z 100e57e0 f   AI_events.obj
 0001:000e4880       ?Event_ClearEnemy@idAI@@IAEXXZ 100e5880 f   AI_events.obj
 0001:000e4890       ?Event_FireMissileAtTarget@idAI@@IAEXPBD0@Z 100e5890 f   AI_events.obj
 0001:000e48e0       ?Event_AttackMelee@idAI@@IAEXPBD@Z 100e58e0 f   AI_events.obj
 0001:000e4900       ?Event_DirectDamage@idAI@@IAEXPAVidEntity@@PBD@Z 100e5900 f   AI_events.obj
 0001:000e4920       ?Event_RandomPath@idPathCorner@@AAEXXZ 100e5920 f   Misc.obj
 0001:000e4920       ?Event_RandomPath@idAI@@IAEXXZ 100e5920 f   AI_events.obj
 0001:000e4940       ?Event_BeginAttack@idAI@@IAEXPBD@Z 100e5940 f   AI_events.obj
 0001:000e4950       ?Event_EndAttack@idAI@@IAEXXZ 100e5950 f   AI_events.obj
 0001:000e4960       ?Event_CanBecomeSolid@idAI@@IAEXXZ 100e5960 f   AI_events.obj
 0001:000e4c50       ?Event_BecomeNonSolid@idAI@@IAEXXZ 100e5c50 f   AI_events.obj
 0001:000e4c90       ?Event_BecomeRagdoll@idAI@@IAEXXZ 100e5c90 f   AI_events.obj
 0001:000e4ca0       ?Event_StopRagdoll@idAI@@IAEXXZ 100e5ca0 f   AI_events.obj
 0001:000e4cc0       ?Event_GetHealth@idAI@@IAEXXZ 100e5cc0 f   AI_events.obj
 0001:000e4ce0       ?Event_AllowDamage@idAI@@IAEXXZ 100e5ce0 f   AI_events.obj
 0001:000e4cf0       ?Event_IgnoreDamage@idAI@@IAEXXZ 100e5cf0 f   AI_events.obj
 0001:000e4d00       ?Event_GetCurrentYaw@idAI@@IAEXXZ 100e5d00 f   AI_events.obj
 0001:000e4d20       ?Event_TurnTo@idAI@@IAEXM@Z 100e5d20 f   AI_events.obj
 0001:000e4d30       ?Event_TurnToPos@idAI@@IAEXABVidVec3@@@Z 100e5d30 f   AI_events.obj
 0001:000e4d40       ?Event_TurnToEntity@idAI@@IAEXPAVidEntity@@@Z 100e5d40 f   AI_events.obj
 0001:000e4d70       ?Event_MoveStatus@idAI@@IAEXXZ 100e5d70 f   AI_events.obj
 0001:000e4d80       ?Event_StopMove@idAI@@IAEXXZ 100e5d80 f   AI_events.obj
 0001:000e4d90       ?Event_MoveToEnemyHeight@idAI@@IAEXXZ 100e5d90 f   AI_events.obj
 0001:000e4db0       ?Event_MoveOutOfRange@idAI@@IAEXPAVidEntity@@M@Z 100e5db0 f   AI_events.obj
 0001:000e4de0       ?Event_MoveToAttackPosition@idAI@@IAEXPAVidEntity@@PBD@Z 100e5de0 f   AI_events.obj
 0001:000e4e30       ?Event_MoveToEntity@idAI@@IAEXPAVidEntity@@@Z 100e5e30 f   AI_events.obj
 0001:000e4e50       ?Event_MoveToPosition@idAI@@IAEXABVidVec3@@@Z 100e5e50 f   AI_events.obj
 0001:000e4e70       ?Event_SlideTo@idAI@@IAEXABVidVec3@@M@Z 100e5e70 f   AI_events.obj
 0001:000e4e90       ?Event_Wander@idAI@@IAEXXZ 100e5e90 f   AI_events.obj
 0001:000e4ea0       ?Event_FacingIdeal@idAI@@IAEXXZ 100e5ea0 f   AI_events.obj
 0001:000e4eb0       ?Event_FaceEnemy@idAI@@IAEXXZ 100e5eb0 f   AI_events.obj
 0001:000e4ec0       ?Event_FaceEntity@idAI@@IAEXPAVidEntity@@@Z 100e5ec0 f   AI_events.obj
 0001:000e4ed0       ?Event_WaitAction@idAI@@IAEXPBD@Z 100e5ed0 f   AI_events.obj
 0001:000e4f10       ?Event_WaitMove@idAI@@IAEXXZ 100e5f10 f   AI_events.obj
 0001:000e4f40       ?Event_CanSeeEntity@idAI@@IAEXPAVidEntity@@@Z 100e5f40 f   AI_events.obj
 0001:000e4f70       ?Event_SetTalkState@idAI@@IAEXH@Z 100e5f70 f   AI_events.obj
 0001:000e4fa0       ?Event_GetEnemyPos@idAI@@IAEXXZ 100e5fa0 f   AI_events.obj
 0001:000e4fb0       ?Event_GetEnemyEyePos@idAI@@IAEXXZ 100e5fb0 f   AI_events.obj
 0001:000e4ff0       ?Event_EnemyPositionValid@idAI@@IAEXXZ 100e5ff0 f   AI_events.obj
 0001:000e5000       ?Event_TestMeleeAttack@idAI@@IAEXXZ 100e6000 f   AI_events.obj
 0001:000e5010       ?Event_Shrivel@idAI@@IAEXM@Z 100e6010 f   AI_events.obj
 0001:000e50e0       ?Event_PreBurn@idAI@@IAEXXZ 100e60e0 f   AI_events.obj
 0001:000e50f0       ?Event_Burn@idAI@@IAEXXZ   100e60f0 f   AI_events.obj
 0001:000e5120       ?Event_StopThinking@idAI@@IAEXXZ 100e6120 f   AI_events.obj
 0001:000e5140       ?Event_GetTurnDelta@idAI@@IAEXXZ 100e6140 f   AI_events.obj
 0001:000e5220       ?Event_GetMoveType@idAI@@IAEXXZ 100e6220 f   AI_events.obj
 0001:000e5230       ?Event_SetMoveType@idAI@@IAEXH@Z 100e6230 f   AI_events.obj
 0001:000e5280       ??4idMoveState@@QAEAAV0@ABV0@@Z 100e6280 f i AI_events.obj
 0001:000e5330       ?Event_AllowMovement@idAI@@IAEXM@Z 100e6330 f   AI_events.obj
 0001:000e5360       ?Event_EnableClip@idAI@@IAEXXZ 100e6360 f   AI_events.obj
 0001:000e5390       ?Event_DisableClip@idAI@@IAEXXZ 100e6390 f   AI_events.obj
 0001:000e53c0       ?Event_EnableGravity@idAI@@IAEXXZ 100e63c0 f   AI_events.obj
 0001:000e53d0       ?Event_DisableGravity@idAI@@IAEXXZ 100e63d0 f   AI_events.obj
 0001:000e53e0       ?Event_EnableAFPush@idAI@@IAEXXZ 100e63e0 f   AI_events.obj
 0001:000e53f0       ?Event_DisableAFPush@idAI@@IAEXXZ 100e63f0 f   AI_events.obj
 0001:000e5400       ?Event_SetFlySpeed@idAI@@IAEXM@Z 100e6400 f   AI_events.obj
 0001:000e5430       ?Event_SetFlyOffset@idAI@@IAEXH@Z 100e6430 f   AI_events.obj
 0001:000e5440       ?Event_ClearFlyOffset@idAI@@IAEXXZ 100e6440 f   AI_events.obj
 0001:000e5460       ?Event_TravelDistanceToPoint@idAI@@IAEXABVidVec3@@@Z 100e6460 f   AI_events.obj
 0001:000e54a0       ?Event_TravelDistanceToEntity@idAI@@IAEXPAVidEntity@@@Z 100e64a0 f   AI_events.obj
 0001:000e5500       ?Event_TravelDistanceBetweenPoints@idAI@@IAEXABVidVec3@@0@Z 100e6500 f   AI_events.obj
 0001:000e5530       ?Event_TravelDistanceBetweenEntities@idAI@@IAEXPAVidEntity@@0@Z 100e6530 f   AI_events.obj
 0001:000e5590       ?Event_SetJointMod@idAI@@IAEXH@Z 100e6590 f   AI_events.obj
 0001:000e55b0       ?Event_ThrowMoveable@idAI@@IAEXXZ 100e65b0 f   AI_events.obj
 0001:000e5630       ?Event_ThrowAF@idAI@@IAEXXZ 100e6630 f   AI_events.obj
 0001:000e56b0       ?Event_GetAngles@idAI@@IAEXXZ 100e66b0 f   AI_events.obj
 0001:000e56e0       ?Event_RealKill@idAI@@IAEXXZ 100e66e0 f   AI_events.obj
 0001:000e5730       ?Event_Kill@idAI@@IAEXXZ   100e6730 f   AI_events.obj
 0001:000e5740       ?Event_WakeOnFlashlight@idAI@@IAEXH@Z 100e6740 f   AI_events.obj
 0001:000e5760       ?Event_PushPointIntoAAS@idAI@@IAEXABVidVec3@@@Z 100e6760 f   AI_events.obj
 0001:000e57d0       ?Event_GetTurnRate@idAI@@IAEXXZ 100e67d0 f   AI_events.obj
 0001:000e57f0       ?Event_SetTurnRate@idAI@@IAEXM@Z 100e67f0 f   AI_events.obj
 0001:000e5800       ?Event_AnimTurn@idAI@@IAEXM@Z 100e6800 f   AI_events.obj
 0001:000e5990       ?Event_AllowHiddenMovement@idAI@@IAEXH@Z 100e6990 f   AI_events.obj
 0001:000e59b0       ?Event_TriggerParticles@idAI@@IAEXPBD@Z 100e69b0 f   AI_events.obj
 0001:000e59c0       ?Event_GetReachableEntityPosition@idAI@@IAEXPAVidEntity@@@Z 100e69c0 f   AI_events.obj
 0001:000e5aa0       ?Event_MoveToPositionDirect@idAI@@IAEXABVidVec3@@@Z 100e6aa0 f   AI_events.obj
 0001:000e5ac0       ?Event_AvoidObstacles@idAI@@IAEXH@Z 100e6ac0 f   AI_events.obj
 0001:000e5ae0       ?Event_TriggerFX@idAI@@IAEXPBD0@Z 100e6ae0 f   AI_events.obj
 0001:000e5af0       ?Event_StartEmitter@idAI@@IAEXPBD00@Z 100e6af0 f   AI_events.obj
 0001:000e5b10       ?Event_GetEmitter@idAI@@IAEXPBD@Z 100e6b10 f   AI_events.obj
 0001:000e5b30       ?Event_StopEmitter@idAI@@IAEXPBD@Z 100e6b30 f   AI_events.obj
 0001:000e5b40       ?Event_Touch@idAI@@IAEXPAVidEntity@@PAUtrace_s@@@Z 100e6b40 f   AI_events.obj
 0001:000e5ba0       ?Event_FindEnemyAI@idAI@@IAEXH@Z 100e6ba0 f   AI_events.obj
 0001:000e5d70       ?Event_FindEnemyInCombatNodes@idAI@@IAEXXZ 100e6d70 f   AI_events.obj
 0001:000e5ec0       ?Event_HeardSound@idAI@@IAEXH@Z 100e6ec0 f   AI_events.obj
 0001:000e5fd0       ?Event_SetEnemy@idAI@@IAEXPAVidEntity@@@Z 100e6fd0 f   AI_events.obj
 0001:000e6030       ?Event_MuzzleFlash@idAI@@IAEXPBD@Z 100e7030 f   AI_events.obj
 0001:000e6060       ?Event_CreateMissile@idAI@@IAEXPBD@Z 100e7060 f   AI_events.obj
 0001:000e6200       ?Event_AttackMissile@idAI@@IAEXPBD@Z 100e7200 f   AI_events.obj
 0001:000e6240       ?Event_RadiusDamageFromJoint@idAI@@IAEXPBD0@Z 100e7240 f   AI_events.obj
 0001:000e62f0       ?Event_BecomeSolid@idAI@@IAEXXZ 100e72f0 f   AI_events.obj
 0001:000e63d0       ?Event_SetHealth@idAI@@IAEXM@Z 100e73d0 f   AI_events.obj
 0001:000e6410       ?Event_MoveToCover@idAI@@IAEXXZ 100e7410 f   AI_events.obj
 0001:000e6460       ?Event_MoveToEnemy@idAI@@IAEXXZ 100e7460 f   AI_events.obj
 0001:000e64a0       ?Event_GetCombatNode@idAI@@IAEXXZ 100e74a0 f   AI_events.obj
 0001:000e6840       ?Event_EnemyInCombatCone@idAI@@IAEXPAVidEntity@@H@Z 100e7840 f   AI_events.obj
 0001:000e6960       ?Event_GetJumpVelocity@idAI@@IAEXABVidVec3@@MM@Z 100e7960 f   AI_events.obj
 0001:000e6c00       ?Event_EntityInAttackCone@idAI@@IAEXPAVidEntity@@@Z 100e7c00 f   AI_events.obj
 0001:000e6eb0       ?Event_SetTalkTarget@idAI@@IAEXPAVidEntity@@@Z 100e7eb0 f   AI_events.obj
 0001:000e6f40       ?Event_GetTalkTarget@idAI@@IAEXXZ 100e7f40 f   AI_events.obj
 0001:000e6f80       ?Event_EnemyRange@idAI@@IAEXXZ 100e7f80 f   AI_events.obj
 0001:000e70b0       ?Event_EnemyRange2D@idAI@@IAEXXZ 100e80b0 f   AI_events.obj
 0001:000e71d0       ?Event_GetEnemy@idAI@@IAEXXZ 100e81d0 f   AI_events.obj
 0001:000e7210       ?Event_PredictEnemyPos@idAI@@IAEXM@Z 100e8210 f   AI_events.obj
 0001:000e72f0       ?Event_ChargeAttack@idAI@@IAEXPBD@Z 100e82f0 f   AI_events.obj
 0001:000e7410       ?Event_TestAnimMoveTowardEnemy@idAI@@IAEXPBD@Z 100e8410 f   AI_events.obj
 0001:000e7770       ?Event_TestAnimMove@idAI@@IAEXPBD@Z 100e8770 f   AI_events.obj
 0001:000e7a30       ?Event_TestMoveToPosition@idAI@@IAEXABVidVec3@@@Z 100e8a30 f   AI_events.obj
 0001:000e7b90       ?Event_TestAnimAttack@idAI@@IAEXPBD@Z 100e8b90 f   AI_events.obj
 0001:000e7c90       ?Event_ClearBurn@idAI@@IAEXXZ 100e8c90 f   AI_events.obj
 0001:000e7ce0       ?Event_SetSmokeVisibility@idAI@@IAEXHH@Z 100e8ce0 f   AI_events.obj
 0001:000e7d80       ?Event_NumSmokeEmitters@idAI@@IAEXXZ 100e8d80 f   AI_events.obj
 0001:000e7d90       ?Event_SaveMove@idAI@@IAEXXZ 100e8d90 f   AI_events.obj
 0001:000e7db0       ?Event_RestoreMove@idAI@@IAEXXZ 100e8db0 f   AI_events.obj
 0001:000e7fe0       ?Event_JumpFrame@idAI@@IAEXXZ 100e8fe0 f   AI_events.obj
 0001:000e8000       ?Event_GetClosestHiddenTarget@idAI@@IAEXPBD@Z 100e9000 f   AI_events.obj
 0001:000e81f0       ?Event_GetRandomTarget@idAI@@IAEXPBD@Z 100e91f0 f   AI_events.obj
 0001:000e82c0       ?Event_LookAtEntity@idAI@@IAEXPAVidEntity@@M@Z 100e92c0 f   AI_events.obj
 0001:000e8390       ?Event_LookAtEnemy@idAI@@IAEXM@Z 100e9390 f   AI_events.obj
 0001:000e8480       ?Event_SetAngles@idAI@@IAEXABVidAngles@@@Z 100e9480 f   AI_events.obj
 0001:000e8510       ?Event_LocateEnemy@idAI@@IAEXXZ 100e9510 f   AI_events.obj
 0001:000e8570       ?Event_KickObstacles@idAI@@IAEXPAVidEntity@@M@Z 100e9570 f   AI_events.obj
 0001:000e86e0       ?Event_GetObstacle@idAI@@IAEXXZ 100e96e0 f   AI_events.obj
 0001:000e8720       ?Event_FindActorsInBounds@idAI@@IAEXABVidVec3@@0@Z 100e9720 f   AI_events.obj
 0001:000e87f0       ?Event_CanReachPosition@idAI@@IAEXABVidVec3@@@Z 100e97f0 f   AI_events.obj
 0001:000e88a0       ?Event_CanReachEntity@idAI@@IAEXPAVidEntity@@@Z 100e98a0 f   AI_events.obj
 0001:000e89c0       ?Event_CanReachEnemy@idAI@@IAEXXZ 100e99c0 f   AI_events.obj
 0001:000e8ae0       ?Event_ClosestReachableEnemyOfEntity@idAI@@IAEXPAVidEntity@@@Z 100e9ae0 f   AI_events.obj
 0001:000e8c90       ?Event_LaunchProjectile@idAI@@IAEXPBD@Z 100e9c90 f   AI_events.obj
 0001:000e8fa0       ?Event_MeleeAttackToJoint@idAI@@IAEXPBD0@Z 100e9fa0 f   AI_events.obj
 0001:000e9230       ?Event_CanHitEnemy@idAI@@IAEXXZ 100ea230 f   AI_events.obj
 0001:000e94c0       ?Event_CanHitEnemyFromAnim@idAI@@IAEXPBD@Z 100ea4c0 f   AI_events.obj
 0001:000e9aa0       ?Event_CanHitEnemyFromJoint@idAI@@IAEXPBD@Z 100eaaa0 f   AI_events.obj
 0001:000e9f90       ?Event_TestChargeAttack@idAI@@IAEXXZ 100eaf90 f   AI_events.obj
 0001:000ea260       ?Event_LaunchMissile@idAI@@IAEXABVidVec3@@ABVidAngles@@@Z 100eb260 f   AI_events.obj
 0001:000ea640       ?PointInsideObstacle@@YAHPBUobstacle_s@@HABVidVec2@@@Z 100eb640 f   AI_pathing.obj
 0001:000ea6d0       ?Shutdown@?$idBlockAlloc@UpathNode_s@@$0IA@@@QAEXXZ 100eb6d0 f i AI_pathing.obj
 0001:000ea720       ?Add@?$idQueueTemplate@UpathNode_s@@$0DA@@@QAEXPAUpathNode_s@@@Z 100eb720 f i AI_pathing.obj
 0001:000ea750       ??4idBox@@QAEAAV0@ABV0@@Z  100eb750 f i AI_pathing.obj
 0001:000ea7c0       ?Init@pathNode_s@@QAEXXZ   100eb7c0 f   AI_pathing.obj
 0001:000ea7f0       ?LineIntersectsPath@@YA_NABVidVec2@@0PBUpathNode_s@@@Z 100eb7f0 f   AI_pathing.obj
 0001:000ea910       ?GetPointOutsideObstacles@@YAXPBUobstacle_s@@HAAVidVec2@@PAH2@Z 100eb910 f   AI_pathing.obj
 0001:000eae70       ?GetFirstBlockingObstacle@@YA_NPBUobstacle_s@@HHABVidVec2@@1AAMAAH3@Z 100ebe70 f   AI_pathing.obj
 0001:000eb090       ?GetObstacles@@YAHPBVidPhysics@@PBVidAAS@@PBVidEntity@@HABVidVec3@@3PAUobstacle_s@@HAAVidBounds@@@Z 100ec090 f   AI_pathing.obj
 0001:000ec120       ?FreePathTree_r@@YAXPAUpathNode_s@@@Z 100ed120 f   AI_pathing.obj
 0001:000ec160       ?DrawPathTree@@YAXPBUpathNode_s@@M@Z 100ed160 f   AI_pathing.obj
 0001:000ec210       ?GetPathNodeDelta@@YA_NPAUpathNode_s@@PBUobstacle_s@@ABVidVec2@@_N@Z 100ed210 f   AI_pathing.obj
 0001:000ec470       ?PrunePathTree@@YAXPAUpathNode_s@@ABVidVec2@@@Z 100ed470 f   AI_pathing.obj
 0001:000ec590       ?OptimizePath@@YAHPBUpathNode_s@@0PBUobstacle_s@@HQAVidVec2@@@Z 100ed590 f   AI_pathing.obj
 0001:000ec890       ?PathLength@@YAMQAVidVec2@@HABV1@@Z 100ed890 f   AI_pathing.obj
 0001:000ecb80       ?FindOptimalPath@@YA_NPBUpathNode_s@@PBUobstacle_s@@HMABVidVec3@@AAV3@@Z 100edb80 f   AI_pathing.obj
 0001:000ece00       ?FreeObstacleAvoidanceNodes@idAI@@SAXXZ 100ede00 f   AI_pathing.obj
 0001:000ed1c0       ?TestTrajectory@idAI@@SA_NABVidVec3@@0MMMMPBVidClipModel@@HPBVidEntity@@2H@Z 100ee1c0 f   AI_pathing.obj
 0001:000ed6e0       ?PredictTrajectory@idAI@@SA_NABVidVec3@@0M0PBVidClipModel@@HMPBVidEntity@@2HAAV2@@Z 100ee6e0 f   AI_pathing.obj
 0001:000ee000       ?PathTrace@@YA_NPBVidEntity@@PBVidAAS@@ABVidVec3@@2HAAUpathTrace_s@@AAUpredictedPath_s@@@Z 100ef000 f   AI_pathing.obj
 0001:000ee370       ?PredictPath@idAI@@SA_NPBVidEntity@@PBVidAAS@@ABVidVec3@@2HHHAAUpredictedPath_s@@@Z 100ef370 f   AI_pathing.obj
 0001:000eef50       ?Alloc@?$idBlockAlloc@UpathNode_s@@$0IA@@@QAEPAUpathNode_s@@XZ 100eff50 f i AI_pathing.obj
 0001:000eefc0       ?BuildPathTree@@YAPAUpathNode_s@@PBUobstacle_s@@HABVidBounds@@ABVidVec2@@2AAUobstaclePath_s@@@Z 100effc0 f   AI_pathing.obj
 0001:000ef3c0       ?FindPathAroundObstacles@idAI@@SA_NPBVidPhysics@@PBVidAAS@@PBVidEntity@@ABVidVec3@@3AAUobstaclePath_s@@@Z 100f03c0 f   AI_pathing.obj
 0001:000ef6f0       ?GetType@idAI_Vagary@@UBEPAVidTypeInfo@@XZ 100f06f0 f   AI_Vagary.obj
 0001:000ef700       ?CreateInstance@idAI_Vagary@@SAPAVidClass@@XZ 100f0700 f   AI_Vagary.obj
 0001:000ef7b0       ?Event_ChooseObjectToThrow@idAI_Vagary@@AAEXABVidVec3@@0MMM@Z 100f07b0 f   AI_Vagary.obj
 0001:000efbe0       ?Event_ThrowObjectAtEnemy@idAI_Vagary@@AAEXPAVidEntity@@M@Z 100f0be0 f   AI_Vagary.obj
 0001:000efde0       ?Type@idTypeDef@@QBE?AW4etype_t@@XZ 100f0de0 f   Script_Program.obj
 0001:000efde0       ?GetTypeDef@idScriptObject@@QBEPAVidTypeDef@@XZ 100f0de0 f   Script_Program.obj
 0001:000efde0       ?ModelDef@idAnimator@@QBEPBVidDeclModelDef@@XZ 100f0de0 f   Anim_Blend.obj
 0001:000efde0       ?NumFrames@idMD5Anim@@QBEHXZ 100f0de0 f   Anim.obj
 0001:000efdf0       ?NumJoints@idMD5Anim@@QBEHXZ 100f0df0 f   Anim.obj
 0001:000efe00       ?TotalMovementDelta@idMD5Anim@@QBEABVidVec3@@XZ 100f0e00 f   Anim.obj
 0001:000efe10       ?IncreaseRefs@idMD5Anim@@QBEXXZ 100f0e10 f   Anim.obj
 0001:000efe20       ?DecreaseRefs@idMD5Anim@@QBEXXZ 100f0e20 f   Anim.obj
 0001:000efe30       ?ConvertTimeToFrame@idMD5Anim@@QBEXHHAAUframeBlend_t@@@Z 100f0e30 f   Anim.obj
 0001:000eff20       ?Free@idMD5Anim@@QAEXXZ    100f0f20 f   Anim.obj
 0001:000effa0       ?Name@idMD5Anim@@QBEPBDXZ  100f0fa0 f   Anim.obj
 0001:000effb0       ?GetOrigin@idMD5Anim@@QBEXAAVidVec3@@HH@Z 100f0fb0 f   Anim.obj
 0001:000f00d0       ?GetOriginRotation@idMD5Anim@@QBEXAAVidQuat@@HH@Z 100f10d0 f   Anim.obj
 0001:000f06b0       ?GetBounds@idMD5Anim@@QBEXAAVidBounds@@HH@Z 100f16b0 f   Anim.obj
 0001:000f0870       ?GetInterpolatedFrame@idMD5Anim@@QBEXAAUframeBlend_t@@PAVidJointQuat@@PBHH@Z 100f1870 f   Anim.obj
 0001:000f1040       ?GetSingleFrame@idMD5Anim@@QBEXHPAVidJointQuat@@PBHH@Z 100f2040 f   Anim.obj
 0001:000f1190       ??0hashnode_s@?$idHashTable@PAVidMD5Anim@@@@QAE@PBDPAVidMD5Anim@@PAU01@@Z 100f2190 f i Anim.obj
 0001:000f1210       ??0idMD5Anim@@QAE@XZ       100f2210 f   Anim.obj
 0001:000f12a0       ??1idMD5Anim@@QAE@XZ       100f22a0 f   Anim.obj
 0001:000f1370       ?CheckModelHierarchy@idMD5Anim@@QBEXPBVidRenderModel@@@Z 100f2370 f   Anim.obj
 0001:000f1480       ?ListAnims@idAnimManager@@QBEXXZ 100f2480 f   Anim.obj
 0001:000f15d0       ?JointIndex@idAnimManager@@QAEHPBD@Z 100f25d0 f   Anim.obj
 0001:000f19e0       ??1?$idHashTable@PAVidMD5Anim@@@@QAE@XZ 100f29e0 f i Anim.obj
 0001:000f1a50       ?LoadAnim@idMD5Anim@@QAE_NPBD@Z 100f2a50 f   Anim.obj
 0001:000f25e0       ??0idAnimManager@@QAE@XZ   100f35e0 f   Anim.obj
 0001:000f2680       ?Shutdown@idAnimManager@@QAEXXZ 100f3680 f   Anim.obj
 0001:000f2730       ?GetAnim@idAnimManager@@QAEPAVidMD5Anim@@PBD@Z 100f3730 f   Anim.obj
 0001:000f29f0       ?FlushUnusedAnims@idAnimManager@@QAEXXZ 100f39f0 f   Anim.obj
 0001:000f2cc0       ?Reload@idMD5Anim@@QAE_NXZ 100f3cc0 f   Anim.obj
 0001:000f2d70       ??1idAnimManager@@QAE@XZ   100f3d70 f   Anim.obj
 0001:000f2e50       ?ReloadAnims@idAnimManager@@QAEXXZ 100f3e50 f   Anim.obj
 0001:000f2ec0       ?MD5Anim@idAnim@@QBEPBVidMD5Anim@@H@Z 100f3ec0 f   Anim_Blend.obj
 0001:000f2ee0       ?Save@idAnimBlend@@QBEXPAVidSaveGame@@@Z 100f3ee0 f   Anim_Blend.obj
 0001:000f2fb0       ?GetWeight@idAnimBlend@@QBEMH@Z 100f3fb0 f   Anim_Blend.obj
 0001:000f3010       ?Clear@idAnimBlend@@QAEXHH@Z 100f4010 f   Anim_Blend.obj
 0001:000f3090       ?GetCycleCount@idAnimBlend@@QBEHXZ 100f4090 f   Anim_Blend.obj
 0001:000f30a0       ?GetStartTime@idAnimBlend@@QBEHXZ 100f40a0 f   Anim_Blend.obj
 0001:000f30b0       ?GetEndTime@idAnimBlend@@QBEHXZ 100f40b0 f   Anim_Blend.obj
 0001:000f30c0       ?PlayLength@idAnimBlend@@QBEHXZ 100f40c0 f   Anim_Blend.obj
 0001:000f30e0       ?AnimNum@idAnimBlend@@QBEHXZ 100f40e0 f   Anim_Blend.obj
 0001:000f30f0       ?Size@idDeclModelDef@@UBEIXZ 100f40f0 f   Anim_Blend.obj
 0001:000f3100       ?DefaultDefinition@idDeclModelDef@@UBEPBDXZ 100f4100 f   Anim_Blend.obj
 0001:000f3110       ?GetRestStartTime@idPhysics_Monster@@UBEHXZ 100f4110 f   Physics_Monster.obj
 0001:000f3110       ?ModelHandle@idDeclModelDef@@QBEPAVidRenderModel@@XZ 100f4110 f   Anim_Blend.obj
 0001:000f3120       ?Touch@idDeclModelDef@@QBEXXZ 100f4120 f   Anim_Blend.obj
 0001:000f3150       ?GetDefaultSkin@idDeclModelDef@@QBEPBVidDeclSkin@@XZ 100f4150 f   Anim_Blend.obj
 0001:000f3150       ?GetSkin@idDeclModelDef@@QBEPBVidDeclSkin@@XZ 100f4150 f   Anim_Blend.obj
 0001:000f3160       ?GetVisualOffset@idDeclModelDef@@QBEABVidVec3@@XZ 100f4160 f   Anim_Blend.obj
 0001:000f3170       ?GetEntity@idAnimator@@QBEPAVidEntity@@XZ 100f4170 f   Anim_Blend.obj
 0001:000f3170       ?GetMaxIterations@idLCP@@UAEHXZ 100f4170 f   idLib:Lcp.obj
 0001:000f3170       ?Name@function_t@@QBEPBDXZ 100f4170 f   Script_Program.obj
 0001:000f3180       ?RemoveOriginOffset@idAnimator@@QAEX_N@Z 100f4180 f   Anim_Blend.obj
 0001:000f3190       ?RemoveOrigin@idAnimator@@QBE_NXZ 100f4190 f   Anim_Blend.obj
 0001:000f31a0       ?NumJoints@idAnimator@@QBEHXZ 100f41a0 f   Anim_Blend.obj
 0001:000f31b0       ?ModelHandle@idAnimator@@QBEPAVidRenderModel@@XZ 100f41b0 f   Anim_Blend.obj
 0001:000f31c0       ?CurrentAnim@idAnimator@@QAEPAVidAnimBlend@@H@Z 100f41c0 f   Anim_Blend.obj
 0001:000f3200       ?SetAFPoseBlendWeight@idAnimator@@QAEXM@Z 100f4200 f   Anim_Blend.obj
 0001:000f3210       ?ForceUpdate@idAnimator@@QAEXXZ 100f4210 f   Anim_Blend.obj
 0001:000f3230       ?ClearForceUpdate@idAnimator@@QAEXXZ 100f4230 f   Anim_Blend.obj
 0001:000f3240       ?GetJointHandle@idAnimator@@QBE?AW4jointHandle_t@@PBD@Z 100f4240 f   Anim_Blend.obj
 0001:000f3270       ?GetJointName@idAnimator@@QBEPBDW4jointHandle_t@@@Z 100f4270 f   Anim_Blend.obj
 0001:000f32a0       ?GetJoints@idAnimator@@QAEXPAHPAPAVidJointMat@@@Z 100f42a0 f   Anim_Blend.obj
 0001:000f32c0       ?ANIM_GetModelFromEntityDef@idGameEdit@@UAEPAVidRenderModel@@PBD@Z 100f42c0 f   Anim_Blend.obj
 0001:000f32f0       ?ANIM_GetModelFromName@idGameEdit@@UAEPAVidRenderModel@@PBD@Z 100f42f0 f   Anim_Blend.obj
 0001:000f3330       ?ANIM_GetAnim@idGameEdit@@UAEPBVidMD5Anim@@PBD@Z 100f4330 f   Anim_Blend.obj
 0001:000f3340       ?ANIM_GetLength@idGameEdit@@UAEHPBVidMD5Anim@@@Z 100f4340 f   Anim_Blend.obj
 0001:000f3360       ?ANIM_GetNumFrames@idGameEdit@@UAEHPBVidMD5Anim@@@Z 100f4360 f   Anim_Blend.obj
 0001:000f3380       ?SetAnim@idAnim@@QAEXPBVidDeclModelDef@@PBD1HQAPBVidMD5Anim@@@Z 100f4380 f   Anim_Blend.obj
 0001:000f3470       ?Name@idAnim@@QBEPBDXZ     100f4470 f   Anim_Blend.obj
 0001:000f3470       ?GetNumClipModels@idPhysics_StaticMulti@@UBEHXZ 100f4470 f   Physics_StaticMulti.obj
 0001:000f3480       ?GetOriginRotation@idAnim@@QBE_NAAVidQuat@@HHH@Z 100f4480 f   Anim_Blend.obj
 0001:000f34c0       ?FindFrameForFrameCommand@idAnim@@QBEHW4frameCommandType_t@@PAPBUframeCommand_t@@@Z 100f44c0 f   Anim_Blend.obj
 0001:000f3560       ?FindJoint@idDeclModelDef@@QBEPBUjointInfo_t@@PBD@Z 100f4560 f   Anim_Blend.obj
 0001:000f35d0       ?SetupJoints@idDeclModelDef@@QBEXPAHPAPAVidJointMat@@AAVidBounds@@_N@Z 100f45d0 f   Anim_Blend.obj
 0001:000f3780       ?HasAnim@idDeclModelDef@@QBE_NPBD@Z 100f4780 f   Anim_Blend.obj
 0001:000f37d0       ?NumAnims@idDeclModelDef@@QBEHXZ 100f47d0 f   Anim_Blend.obj
 0001:000f37e0       ?GetSpecificAnim@idDeclModelDef@@QBEHPBD@Z 100f47e0 f   Anim_Blend.obj
 0001:000f3830       ?GetAnim@idDeclModelDef@@QBEPBVidAnim@@H@Z 100f4830 f   Anim_Blend.obj
 0001:000f3860       ?GetAnim@idDeclModelDef@@QBEHPBD@Z 100f4860 f   Anim_Blend.obj
 0001:000f3920       ?GetChannelJoints@idDeclModelDef@@QBEPBHH@Z 100f4920 f   Anim_Blend.obj
 0001:000f3950       ?Allocated@idAnimator@@QBEIXZ 100f4950 f   Anim_Blend.obj
 0001:000f3990       ?Save@idAnimator@@QBEXPAVidSaveGame@@@Z 100f4990 f   Anim_Blend.obj
 0001:000f3c60       ?PushAnims@idAnimator@@AAEXHHH@Z 100f4c60 f   Anim_Blend.obj
 0001:000f3d20       ?NumAnims@idAnimator@@QBEHXZ 100f4d20 f   Anim_Blend.obj
 0001:000f3d30       ?GetAnim@idAnimator@@QBEPBVidAnim@@H@Z 100f4d30 f   Anim_Blend.obj
 0001:000f3d60       ?GetAnim@idAnimator@@QBEHPBD@Z 100f4d60 f   Anim_Blend.obj
 0001:000f3d70       ?HasAnim@idAnimator@@QBE_NPBD@Z 100f4d70 f   Anim_Blend.obj
 0001:000f3d80       ?Clear@idAnimator@@QAEXHHH@Z 100f4d80 f   Anim_Blend.obj
 0001:000f3ea0       ?ClearJoint@idAnimator@@QAEXW4jointHandle_t@@@Z 100f4ea0 f   Anim_Blend.obj
 0001:000f3f60       ?IsAnimating@idAnimator@@QBE_NH@Z 100f4f60 f   Anim_Blend.obj
 0001:000f4000       ?GetChannelForJoint@idAnimator@@QBEHW4jointHandle_t@@@Z 100f5000 f   Anim_Blend.obj
 0001:000f4070       ?GetFirstChild@idAnimator@@QBE?AW4jointHandle_t@@W42@@Z 100f5070 f   Anim_Blend.obj
 0001:000f40d0       ?GetAnimFlags@idAnimator@@QBE?BUanimFlags_t@@H@Z 100f50d0 f   Anim_Blend.obj
 0001:000f4110       ?NumFrames@idAnimator@@QBEHH@Z 100f5110 f   Anim_Blend.obj
 0001:000f4150       ?AnimFullName@idAnimator@@QBEPBDH@Z 100f5150 f   Anim_Blend.obj
 0001:000f4190       ?AnimLength@idAnimator@@QBEHH@Z 100f5190 f   Anim_Blend.obj
 0001:000f41d0       ?TotalMovementDelta@idAnimator@@QBEABVidVec3@@H@Z 100f51d0 f   Anim_Blend.obj
 0001:000f4210       ?ANIM_GetModelDefFromEntityDef@@YAPBVidDeclModelDef@@PBVidDict@@@Z 100f5210 f   Anim_Blend.obj
 0001:000f4320       ?ANIM_GetModelFromEntityDef@idGameEdit@@UAEPAVidRenderModel@@PBVidDict@@@Z 100f5320 f   Anim_Blend.obj
 0001:000f4450       ?ANIM_GetModelOffsetFromEntityDef@idGameEdit@@UAEABVidVec3@@PBD@Z 100f5450 f   Anim_Blend.obj
 0001:000f4480       ?ANIM_GetAnimFromEntityDef@idGameEdit@@UAEPBVidMD5Anim@@PBD0@Z 100f5480 f   Anim_Blend.obj
 0001:000f4520       ?ANIM_GetNumAnimsFromEntityDef@idGameEdit@@UAEHPBVidDict@@@Z 100f5520 f   Anim_Blend.obj
 0001:000f4570       ?ANIM_GetAnimNameFromEntityDef@idGameEdit@@UAEPBDPBVidDict@@H@Z 100f5570 f   Anim_Blend.obj
 0001:000f45e0       ?ANIM_CreateAnimFrame@idGameEdit@@UAEXPBVidRenderModel@@PBVidMD5Anim@@HPAVidJointMat@@HABVidVec3@@_N@Z 100f55e0 f   Anim_Blend.obj
 0001:000f4ba0       ??$ArgCompletion_Integer@$0A@$01@idCmdSystem@@SAXABVidCmdArgs@@P6AXPBD@Z@Z 100f5ba0 f i Anim_Blend.obj
 0001:000f4be0       ??0idAFPoseJointMod@@QAE@XZ 100f5be0 f i Anim_Blend.obj
 0001:000f4c50       ??0idAnim@@QAE@XZ          100f5c50 f   Anim_Blend.obj
 0001:000f4cd0       ??0idAnim@@QAE@PBVidDeclModelDef@@PBV0@@Z 100f5cd0 f   Anim_Blend.obj
 0001:000f5010       ??1idAnim@@QAE@XZ          100f6010 f   Anim_Blend.obj
 0001:000f5100       ?AddFrameCommand@idAnim@@QAEPBDPBVidDeclModelDef@@HAAVidLexer@@PBVidDict@@@Z 100f6100 f   Anim_Blend.obj
 0001:000f6fc0       ?CallFrameCommands@idAnim@@QBEXPAVidEntity@@HH@Z 100f7fc0 f   Anim_Blend.obj
 0001:000f7bd0       ?Restore@idAnimBlend@@QAEXPAVidRestoreGame@@PBVidDeclModelDef@@@Z 100f8bd0 f   Anim_Blend.obj
 0001:000f7cf0       ?SetFrame@idAnimBlend@@AAEXPBVidDeclModelDef@@HHHH@Z 100f8cf0 f   Anim_Blend.obj
 0001:000f7e60       ?CycleAnim@idAnimBlend@@AAEXPBVidDeclModelDef@@HHH@Z 100f8e60 f   Anim_Blend.obj
 0001:000f7ff0       ?PlayAnim@idAnimBlend@@AAEXPBVidDeclModelDef@@HHH@Z 100f8ff0 f   Anim_Blend.obj
 0001:000f8130       ?AnimTime@idAnimBlend@@QBEHH@Z 100f9130 f   Anim_Blend.obj
 0001:000f8210       ?GetFrameNumber@idAnimBlend@@QBEHH@Z 100f9210 f   Anim_Blend.obj
 0001:000f82a0       ?CallFrameCommands@idAnimBlend@@ABEXPAVidEntity@@HH@Z 100f92a0 f   Anim_Blend.obj
 0001:000f83d0       ?BlendAnim@idAnimBlend@@ABE_NHHHPAVidJointQuat@@AAM_N22@Z 100f93d0 f   Anim_Blend.obj
 0001:000f8bb0       ?BlendDelta@idAnimBlend@@ABEXHHAAVidVec3@@AAM@Z 100f9bb0 f   Anim_Blend.obj
 0001:000f8e70       ?BlendDeltaRotation@idAnimBlend@@ABEXHHAAVidQuat@@AAM@Z 100f9e70 f   Anim_Blend.obj
 0001:000f91a0       ?AddBounds@idAnimBlend@@ABE_NHAAVidBounds@@_N@Z 100fa1a0 f   Anim_Blend.obj
 0001:000f9380       ?CopyDecl@idDeclModelDef@@AAEXPBV1@@Z 100fa380 f   Anim_Blend.obj
 0001:000f96c0       ?ParseAnim@idDeclModelDef@@AAE_NAAVidLexer@@H@Z 100fa6c0 f   Anim_Blend.obj
 0001:000f9e70       ?FreeData@idAnimator@@AAEXXZ 100fae70 f   Anim_Blend.obj
 0001:000f9f70       ?SetModel@idAnimator@@QAEPAVidRenderModel@@PBD@Z 100faf70 f   Anim_Blend.obj
 0001:000fa060       ?SetFrame@idAnimator@@QAEXHHHHH@Z 100fb060 f   Anim_Blend.obj
 0001:000fa0f0       ?CycleAnim@idAnimator@@QAEXHHHH@Z 100fb0f0 f   Anim_Blend.obj
 0001:000fa180       ?PlayAnim@idAnimator@@QAEXHHHH@Z 100fb180 f   Anim_Blend.obj
 0001:000fa210       ?SyncAnimChannels@idAnimator@@QAEXHHHH@Z 100fb210 f   Anim_Blend.obj
 0001:000fa370       ?SetJointPos@idAnimator@@QAEXW4jointHandle_t@@W4jointModTransform_t@@ABVidVec3@@@Z 100fb370 f   Anim_Blend.obj
 0001:000fa660       ?SetJointAxis@idAnimator@@QAEXW4jointHandle_t@@W4jointModTransform_t@@ABVidMat3@@@Z 100fb660 f   Anim_Blend.obj
 0001:000fa920       ?ClearAllJoints@idAnimator@@QAEXXZ 100fb920 f   Anim_Blend.obj
 0001:000fa9b0       ?GetDelta@idAnimator@@QBEXHHAAVidVec3@@@Z 100fb9b0 f   Anim_Blend.obj
 0001:000faa80       ?GetDeltaRotation@idAnimator@@QBE_NHHAAVidMat3@@@Z 100fba80 f   Anim_Blend.obj
 0001:000fabf0       ?GetBounds@idAnimator@@QAE_NHAAVidBounds@@@Z 100fbbf0 f   Anim_Blend.obj
 0001:000fae70       ?SetAFPoseJointMod@idAnimator@@QAEXW4jointHandle_t@@W4AFJointModType_t@@ABVidMat3@@ABVidVec3@@@Z 100fbe70 f   Anim_Blend.obj
 0001:000fb0f0       ?FinishAFPose@idAnimator@@QAEXHABVidBounds@@H@Z 100fc0f0 f   Anim_Blend.obj
 0001:000fb990       ?ClearAFPose@idAnimator@@QAEXXZ 100fc990 f   Anim_Blend.obj
 0001:000fba50       ?ServiceAnims@idAnimator@@QAEXHH@Z 100fca50 f   Anim_Blend.obj
 0001:000fbae0       ?CreateFrame@idAnimator@@QAE_NH_N@Z 100fcae0 f   Anim_Blend.obj
 0001:000fd250       ?GetJointTransform@idAnimator@@QAE_NW4jointHandle_t@@HAAVidVec3@@AAVidMat3@@@Z 100fe250 f   Anim_Blend.obj
 0001:000fd360       ?GetJointLocalTransform@idAnimator@@QAE_NW4jointHandle_t@@HAAVidVec3@@AAVidMat3@@@Z 100fe360 f   Anim_Blend.obj
 0001:000fd750       ?GetFirstChild@idAnimator@@QBE?AW4jointHandle_t@@PBD@Z 100fe750 f   Anim_Blend.obj
 0001:000fd790       ?ANIM_CreateMeshForAnim@idGameEdit@@UAEPAVidRenderModel@@PAV2@PBD1H_N@Z 100fe790 f   Anim_Blend.obj
 0001:000fdaf0       ?AnimFullName@idAnimBlend@@QBEPBDXZ 100feaf0 f   Anim_Blend.obj
 0001:000fdb20       ?AnimName@idAnimBlend@@QBEPBDXZ 100feb20 f   Anim_Blend.obj
 0001:000fdb50       ?NumFrames@idAnimBlend@@QBEHXZ 100feb50 f   Anim_Blend.obj
 0001:000fdb90       ?SetSyncedAnimWeight@idAnimBlend@@QAE_NHM@Z 100feb90 f   Anim_Blend.obj
 0001:000fdbe0       ?SetCycleCount@idAnimBlend@@QAEXH@Z 100febe0 f   Anim_Blend.obj
 0001:000fdd70       ?SetStartTime@idAnimBlend@@QAEXH@Z 100fed70 f   Anim_Blend.obj
 0001:000fdd90       ??0idDeclModelDef@@QAE@XZ  100fed90 f   Anim_Blend.obj
 0001:000fde70       ?FreeData@idDeclModelDef@@UAEXXZ 100fee70 f   Anim_Blend.obj
 0001:000fdf50       ?GetJointList@idDeclModelDef@@QBEXPBDAAV?$idList@W4jointHandle_t@@@@@Z 100fef50 f   Anim_Blend.obj
 0001:000fe4a0       ?Parse@idDeclModelDef@@UAE_NPBDH@Z 100ff4a0 f   Anim_Blend.obj
 0001:000ff3c0       ??1idAnimator@@QAE@XZ      101003c0 f   Anim_Blend.obj
 0001:000ff4b0       ?GetJointList@idAnimator@@QBEXPBDAAV?$idList@W4jointHandle_t@@@@@Z 101004b0 f   Anim_Blend.obj
 0001:000ff4c0       ?ClearAllAnims@idAnimator@@QAEXHH@Z 101004c0 f   Anim_Blend.obj
 0001:000ff500       ?FrameHasChanged@idAnimator@@QBE_NH@Z 10100500 f   Anim_Blend.obj
 0001:000ff600       ??1idDeclModelDef@@UAE@XZ  10100600 f   Anim_Blend.obj
 0001:000ff6d0       ??0idAnimator@@QAE@XZ      101006d0 f   Anim_Blend.obj
 0001:000ffb70       ?Restore@idAnimator@@QAEXPAVidRestoreGame@@@Z 10100b70 f   Anim_Blend.obj
 0001:001005e0       ?InitAFPose@idAnimator@@QAEXXZ 101015e0 f   Anim_Blend.obj
 0001:00100930       ??_EidDeclModelDef@@UAEPAXI@Z 10101930 f i Anim_Blend.obj
 0001:00100930       ??_GidDeclModelDef@@UAEPAXI@Z 10101930 f i Anim_Blend.obj
 0001:00100950       ?LoadMayaDll@idModelExport@@CAXXZ 10101950 f   Anim_Import.obj
 0001:00100a80       ??0idModelExport@@QAE@XZ   10101a80 f   Anim_Import.obj
 0001:00100b20       ?Shutdown@idModelExport@@SAXXZ 10101b20 f   Anim_Import.obj
 0001:00100b90       ?ConvertMayaToMD5@idModelExport@@AAE_NXZ 10101b90 f   Anim_Import.obj
 0001:00100f20       ?ParseOptions@idModelExport@@AAE_NAAVidLexer@@@Z 10101f20 f   Anim_Import.obj
 0001:001013c0       ?ParseExportSection@idModelExport@@AAEHAAVidParser@@@Z 101023c0 f   Anim_Import.obj
 0001:00101ab0       ?ExportDefFile@idModelExport@@QAEHPBD@Z 10102ab0 f   Anim_Import.obj
 0001:00101c10       ?ExportModels@idModelExport@@QAEHPBD0@Z 10102c10 f   Anim_Import.obj
 0001:00101d10       ?GetType@idTestModel@@UBEPAVidTypeInfo@@XZ 10102d10 f   Anim_Testmodel.obj
 0001:00101d20       ?ApplyFriction@idAFConstraint_PyramidLimit@@MAEXM@Z 10102d20 f   Physics_AF.obj
 0001:00101d20       ?Rotate@idAFConstraint@@UAEXABVidRotation@@@Z 10102d20 f   Physics_AF.obj
 0001:00101d20       ?Translate@idAFConstraint_UniversalJointFriction@@UAEXABVidVec3@@@Z 10102d20 f   Physics_AF.obj
 0001:00101d20       ?UpdateTime@idPhysics_AF@@UAEXH@Z 10102d20 f   Physics_AF.obj
 0001:00101d20       ?SetPushed@idPhysics_StaticMulti@@UAEXH@Z 10102d20 f   Physics_StaticMulti.obj
 0001:00101d20       ?AddContactEntity@idPhysics_StaticMulti@@UAEXPAVidEntity@@@Z 10102d20 f   Physics_StaticMulti.obj
 0001:00101d20       ?Evaluate@idAFConstraint_BallAndSocketJointFriction@@MAEXM@Z 10102d20 f   Physics_AF.obj
 0001:00101d20       ?GetMapLoadingGUI@idGameLocal@@UAEXQAD@Z 10102d20 f   Game_local.obj
 0001:00101d20       ?Translate@idAFConstraint@@UAEXABVidVec3@@@Z 10102d20 f   Physics_AF.obj
 0001:00101d20       ?Save@idAFEntity_SteamPipe@@QBEXPAVidSaveGame@@@Z 10102d20 f   AFEntity.obj
 0001:00101d20       ?Restore@idPhysics@@QAEXPAVidRestoreGame@@@Z 10102d20 f   Physics.obj
 0001:00101d20       ?Translate@idAFConstraint_HingeFriction@@UAEXABVidVec3@@@Z 10102d20 f   Physics_AF.obj
 0001:00101d20       ?Evaluate@idAFConstraint_PyramidLimit@@MAEXM@Z 10102d20 f   Physics_AF.obj
 0001:00101d20       ?Evaluate@idAFConstraint_HingeSteering@@MAEXM@Z 10102d20 f   Physics_AF.obj
 0001:00101d20       ?Evaluate@idAFConstraint_Contact@@MAEXM@Z 10102d20 f   Physics_AF.obj
 0001:00101d20       ?Save@idPhysics@@QBEXPAVidSaveGame@@@Z 10102d20 f   Physics.obj
 0001:00101d20       ?Save@idClass@@QBEXPAVidSaveGame@@@Z 10102d20 f   Class.obj
 0001:00101d20       ?Rotate@idAFConstraint_Suspension@@UAEXABVidRotation@@@Z 10102d20 f   Physics_AF.obj
 0001:00101d20       ?ApplyFriction@idAFConstraint@@MAEXM@Z 10102d20 f   Physics_AF.obj
 0001:00101d20       ?Rotate@idAFConstraint_Contact@@UAEXABVidRotation@@@Z 10102d20 f   Physics_AF.obj
 0001:00101d20       ?Evaluate@idAFConstraint_UniversalJointFriction@@MAEXM@Z 10102d20 f   Physics_AF.obj
 0001:00101d20       ?Restore@idClass@@QAEXPAVidRestoreGame@@@Z 10102d20 f   Class.obj
 0001:00101d20       ?ApplyFriction@idAFConstraint_BallAndSocketJointFriction@@MAEXM@Z 10102d20 f   Physics_AF.obj
 0001:00101d20       ?ApplyFriction@idAFConstraint_Slider@@MAEXM@Z 10102d20 f   Physics_AF.obj
 0001:00101d20       ?Event_SetMoveSound@idMover@@AAEXPBD@Z 10102d20 f   Mover.obj
 0001:00101d20       ?InternalSetBool@idCVar@@EAEX_N@Z 10102d20 f   Game_local.obj
 0001:00101d20       ?Event_Assert@idThread@@AAEXM@Z 10102d20 f   Script_Thread.obj
 0001:00101d20       ?RemoveContactEntity@idPhysics_StaticMulti@@UAEXPAVidEntity@@@Z 10102d20 f   Physics_StaticMulti.obj
 0001:00101d20       ?Save@idLiquid@@QBEXPAVidSaveGame@@@Z 10102d20 f   Misc.obj
 0001:00101d20       ?ApplyFriction@idAFConstraint_HingeSteering@@MAEXM@Z 10102d20 f   Physics_AF.obj
 0001:00101d20       ?Evaluate@idAFConstraint@@MAEXM@Z 10102d20 f   Physics_AF.obj
 0001:00101d20       ?Translate@idAFConstraint_Contact@@UAEXABVidVec3@@@Z 10102d20 f   Physics_AF.obj
 0001:00101d20       ?ApplyFriction@idAFConstraint_ContactFriction@@MAEXM@Z 10102d20 f   Physics_AF.obj
 0001:00101d20       ?ApplyFriction@idAFConstraint_Suspension@@MAEXM@Z 10102d20 f   Physics_AF.obj
 0001:00101d20       ?SetGravity@idPhysics_StaticMulti@@UAEXABVidVec3@@@Z 10102d20 f   Physics_StaticMulti.obj
 0001:00101d20       ?UpdateTime@idPhysics_Static@@UAEXH@Z 10102d20 f   Physics_Static.obj
 0001:00101d20       ?Translate@idAFConstraint_Suspension@@UAEXABVidVec3@@@Z 10102d20 f   Physics_AF.obj
 0001:00101d20       ?UpdateTime@idPhysics_StaticMulti@@UAEXH@Z 10102d20 f   Physics_StaticMulti.obj
 0001:00101d20       ?Rotate@idAFConstraint_HingeSteering@@UAEXABVidRotation@@@Z 10102d20 f   Physics_AF.obj
 0001:00101d20       ?Evaluate@idAFConstraint_ContactFriction@@MAEXM@Z 10102d20 f   Physics_AF.obj
 0001:00101d20       ?Event_SetAccelSound@idMover@@AAEXPBD@Z 10102d20 f   Mover.obj
 0001:00101d20       ?ApplyFriction@idAFConstraint_Spring@@MAEXM@Z 10102d20 f   Physics_AF.obj
 0001:00101d20       ?Translate@idAFConstraint_ContactFriction@@UAEXABVidVec3@@@Z 10102d20 f   Physics_AF.obj
 0001:00101d20       ?Save@idTestModel@@QAEXPAVidSaveGame@@@Z 10102d20 f   Anim_Testmodel.obj
 0001:00101d20       ?AddContactEntity@idPhysics_Static@@UAEXPAVidEntity@@@Z 10102d20 f   Physics_Static.obj
 0001:00101d20       ?Save@idWorldspawn@@QAEXPAVidRestoreGame@@@Z 10102d20 f   WorldSpawn.obj
 0001:00101d20       ?WriteToSnapshot@idPhysics_Base@@UBEXAAVidBitMsgDelta@@@Z 10102d20 f   Physics_Base.obj
 0001:00101d20       ?SetPushed@idPhysics_Static@@UAEXH@Z 10102d20 f   Physics_Static.obj
 0001:00101d20       ?Evaluate@idAFConstraint_HingeFriction@@MAEXM@Z 10102d20 f   Physics_AF.obj
 0001:00101d20       ?Translate@idAFConstraint_BallAndSocketJointFriction@@UAEXABVidVec3@@@Z 10102d20 f   Physics_AF.obj
 0001:00101d20       ?Rotate@idAFConstraint_UniversalJointFriction@@UAEXABVidRotation@@@Z 10102d20 f   Physics_AF.obj
 0001:00101d20       ?ApplyFriction@idAFConstraint_UniversalJointFriction@@MAEXM@Z 10102d20 f   Physics_AF.obj
 0001:00101d20       ?Evaluate@idForce@@UAEXH@Z 10102d20 f   Force.obj
 0001:00101d20       ?RemovePhysics@idForce@@UAEXPBVidPhysics@@@Z 10102d20 f   Force.obj
 0001:00101d20       ?InternalSetFloat@idCVar@@EAEXM@Z 10102d20 f   Game_local.obj
 0001:00101d20       ?UpdateTime@idPhysics_Monster@@UAEXH@Z 10102d20 f   Physics_Monster.obj
 0001:00101d20       ?ApplyFriction@idAFConstraint_ConeLimit@@MAEXM@Z 10102d20 f   Physics_AF.obj
 0001:00101d20       ?RemoveContactEntity@idPhysics_Static@@UAEXPAVidEntity@@@Z 10102d20 f   Physics_Static.obj
 0001:00101d20       ?InternalSetString@idCVar@@EAEXPBD@Z 10102d20 f   Game_local.obj
 0001:00101d20       ?Rotate@idAFConstraint_ContactFriction@@UAEXABVidRotation@@@Z 10102d20 f   Physics_AF.obj
 0001:00101d20       ?UpdateTime@idPhysics_Player@@UAEXH@Z 10102d20 f   Physics_Player.obj
 0001:00101d20       ?Evaluate@idAFConstraint_ConeLimit@@MAEXM@Z 10102d20 f   Physics_AF.obj
 0001:00101d20       ?Translate@idAFConstraint_HingeSteering@@UAEXABVidVec3@@@Z 10102d20 f   Physics_AF.obj
 0001:00101d20       ?SetPushed@idPhysics_Base@@UAEXH@Z 10102d20 f   Physics_Base.obj
 0001:00101d20       ?ApplyFriction@idAFConstraint_Fixed@@MAEXM@Z 10102d20 f   Physics_AF.obj
 0001:00101d20       ?ReadFromSnapshot@idEntity@@UAEXABVidBitMsgDelta@@@Z 10102d20 f   Entity.obj
 0001:00101d20       ?InternalSetInteger@idCVar@@EAEXH@Z 10102d20 f   Game_local.obj
 0001:00101d20       ?Rotate@idAFConstraint_HingeFriction@@UAEXABVidRotation@@@Z 10102d20 f   Physics_AF.obj
 0001:00101d20       ?UpdateTime@idPhysics_RigidBody@@UAEXH@Z 10102d20 f   Physics_RigidBody.obj
 0001:00101d20       ?AccumPass@FullscreenFX@@UAEXPBUrenderView_s@@@Z 10102d20 f   PlayerView.obj
 0001:00101d20       ?Rotate@idAFConstraint_BallAndSocketJointFriction@@UAEXABVidRotation@@@Z 10102d20 f   Physics_AF.obj
 0001:00101d20       ?WriteToSnapshot@idEntity@@UBEXAAVidBitMsgDelta@@@Z 10102d20 f   Entity.obj
 0001:00101d20       ?ApplyFriction@idAFConstraint_HingeFriction@@MAEXM@Z 10102d20 f   Physics_AF.obj
 0001:00101d20       ?SetGravity@idPhysics_Static@@UAEXABVidVec3@@@Z 10102d20 f   Physics_Static.obj
 0001:00101d20       ?ReadFromSnapshot@idPhysics_Base@@UAEXABVidBitMsgDelta@@@Z 10102d20 f   Physics_Base.obj
 0001:00101d20       ?Event_SetDecelSound@idMover@@AAEXPBD@Z 10102d20 f   Mover.obj
 0001:00101d20       ?UpdateTime@idPhysics_Base@@UAEXH@Z 10102d20 f   Physics_Base.obj
 0001:00101d20       ?Restore@idLiquid@@QAEXPAVidRestoreGame@@@Z 10102d20 f   Misc.obj
 0001:00101d30       ?Restore@idTestModel@@QAEXPAVidRestoreGame@@@Z 10102d30 f   Anim_Testmodel.obj
 0001:00101d50       ?Event_Footstep@idTestModel@@AAEXXZ 10102d50 f   Anim_Testmodel.obj
 0001:00101d50       ?Event_Footstep@idAnimated@@AAEXXZ 10102d50 f   Misc.obj
 0001:00101d70       ?KeepTestModel_f@idTestModel@@SAXABVidCmdArgs@@@Z 10102d70 f   Anim_Testmodel.obj
 0001:00101db0       ?TestParticleStopTime_f@idTestModel@@SAXABVidCmdArgs@@@Z 10102db0 f   Anim_Testmodel.obj
 0001:00101df0       ?Think@idTestModel@@EAEXXZ 10102df0 f   Anim_Testmodel.obj
 0001:00102a90       ?NextAnim@idTestModel@@QAEXABVidCmdArgs@@@Z 10103a90 f   Anim_Testmodel.obj
 0001:00102ca0       ?PrevAnim@idTestModel@@QAEXABVidCmdArgs@@@Z 10103ca0 f   Anim_Testmodel.obj
 0001:00102eb0       ?NextFrame@idTestModel@@QAEXABVidCmdArgs@@@Z 10103eb0 f   Anim_Testmodel.obj
 0001:00102f50       ?PrevFrame@idTestModel@@QAEXABVidCmdArgs@@@Z 10103f50 f   Anim_Testmodel.obj
 0001:00102fe0       ?BlendAnim@idTestModel@@QAEXABVidCmdArgs@@@Z 10103fe0 f   Anim_Testmodel.obj
 0001:00103140       ?ArgCompletion_TestAnim@idTestModel@@SAXABVidCmdArgs@@P6AXPBD@Z@Z 10104140 f   Anim_Testmodel.obj
 0001:001031b0       ?TestBlend_f@idTestModel@@SAXABVidCmdArgs@@@Z 101041b0 f   Anim_Testmodel.obj
 0001:001031e0       ?TestModelNextAnim_f@idTestModel@@SAXABVidCmdArgs@@@Z 101041e0 f   Anim_Testmodel.obj
 0001:00103210       ?TestModelPrevAnim_f@idTestModel@@SAXABVidCmdArgs@@@Z 10104210 f   Anim_Testmodel.obj
 0001:00103240       ?TestModelNextFrame_f@idTestModel@@SAXABVidCmdArgs@@@Z 10104240 f   Anim_Testmodel.obj
 0001:00103270       ?TestModelPrevFrame_f@idTestModel@@SAXABVidCmdArgs@@@Z 10104270 f   Anim_Testmodel.obj
 0001:001032a0       ??0idTestModel@@QAE@XZ     101042a0 f   Anim_Testmodel.obj
 0001:00103370       ??1idTestModel@@UAE@XZ     10104370 f   Anim_Testmodel.obj
 0001:001034f0       ?TestAnim@idTestModel@@QAEXABVidCmdArgs@@@Z 101044f0 f   Anim_Testmodel.obj
 0001:00103780       ?ArgCompletion_TestModel@idTestModel@@SAXABVidCmdArgs@@P6AXPBD@Z@Z 10104780 f   Anim_Testmodel.obj
 0001:00103a60       ?TestAnim_f@idTestModel@@SAXABVidCmdArgs@@@Z 10104a60 f   Anim_Testmodel.obj
 0001:00103a90       ?CreateInstance@idTestModel@@SAPAVidClass@@XZ 10104a90 f   Anim_Testmodel.obj
 0001:00103b30       ??_GidTestModel@@UAEPAXI@Z 10104b30 f i Anim_Testmodel.obj
 0001:00103b30       ??_EidTestModel@@UAEPAXI@Z 10104b30 f i Anim_Testmodel.obj
 0001:00103b50       ?Spawn@idTestModel@@QAEXXZ 10104b50 f   Anim_Testmodel.obj
 0001:001045b0       ?TestSkin_f@idTestModel@@SAXABVidCmdArgs@@@Z 101055b0 f   Anim_Testmodel.obj
 0001:00104830       ?TestShaderParm_f@idTestModel@@SAXABVidCmdArgs@@@Z 10105830 f   Anim_Testmodel.obj
 0001:00104b10       ?TestModel_f@idTestModel@@SAXABVidCmdArgs@@@Z 10105b10 f   Anim_Testmodel.obj
 0001:00104f00       ?CreateInstance@idClass@@SAPAV1@XZ 10105f00 f   Class.obj
 0001:00104f20       ?GetType@idClass@@UBEPAVidTypeInfo@@XZ 10105f20 f   Class.obj
 0001:00104f30       ?CallSpawnFunc@idClass@@AAEP81@AEXXZPAVidTypeInfo@@@Z 10105f30 f   Class.obj
 0001:00104f60       ??1idClass@@UAE@XZ         10105f60 f   Class.obj
 0001:00104f80       ?DisplayInfo_f@idClass@@SAXABVidCmdArgs@@@Z 10105f80 f   Class.obj
 0001:00104fa0       ??2idClass@@SAPAXI@Z       10105fa0 f   Class.obj
 0001:00104fd0       ??3idClass@@SAXPAX@Z       10105fd0 f   Class.obj
 0001:00105000       ?GetClassname@idClass@@QBEPBDXZ 10106000 f   Class.obj
 0001:00105010       ?CancelEvents@idClass@@QAEXPBVidEventDef@@@Z 10106010 f   Class.obj
 0001:00105030       ?PostEventArgs@idClass@@AAA_NPBVidEventDef@@HHZZ 10106030 f   Class.obj
 0001:001050c0       ?PostEventMS@idClass@@QAE_NPBVidEventDef@@H@Z 101060c0 f   Class.obj
 0001:001050e0       ?PostEventMS@idClass@@QAE_NPBVidEventDef@@HVidEventArg@@@Z 101060e0 f   Class.obj
 0001:00105100       ?PostEventMS@idClass@@QAE_NPBVidEventDef@@HVidEventArg@@1@Z 10106100 f   Class.obj
 0001:00105130       ?PostEventMS@idClass@@QAE_NPBVidEventDef@@HVidEventArg@@111@Z 10106130 f   Class.obj
 0001:00105160       ?PostEventMS@idClass@@QAE_NPBVidEventDef@@HVidEventArg@@1111@Z 10106160 f   Class.obj
 0001:001051a0       ?PostEventSec@idClass@@QAE_NPBVidEventDef@@M@Z 101061a0 f   Class.obj
 0001:001051d0       ?PostEventSec@idClass@@QAE_NPBVidEventDef@@MVidEventArg@@@Z 101061d0 f   Class.obj
 0001:00105210       ?PostEventSec@idClass@@QAE_NPBVidEventDef@@MVidEventArg@@1@Z 10106210 f   Class.obj
 0001:00105250       ?Event_Remove@idClass@@QAEXXZ 10106250 f   Class.obj
 0001:00105260       ?Event_SafeRemove@idClass@@AAEXXZ 10106260 f   Class.obj
 0001:00105280       ?CallSpawn@idClass@@QAEXXZ 10106280 f   Class.obj
 0001:001052b0       ?ListClasses_f@idClass@@SAXABVidCmdArgs@@@Z 101062b0 f   Class.obj
 0001:00105340       ?Shutdown@idClass@@SAXXZ   10106340 f   Class.obj
 0001:001053d0       ?GetClass@idClass@@SAPAVidTypeInfo@@PBD@Z 101063d0 f   Class.obj
 0001:00105470       ?GetType@idClass@@SAPAVidTypeInfo@@H@Z 10106470 f   Class.obj
 0001:001054b0       ?ProcessEventArgPtr@idClass@@QAE_NPBVidEventDef@@PAH@Z 101064b0 f   Class.obj
 0001:001058a0       ?RemoveFromParent@?$idHierarchy@VidTypeInfo@@@@QAEXXZ 101068a0 f i Class.obj
 0001:00105910       ?ProcessEventArgs@idClass@@AAA_NPBVidEventDef@@HZZ 10106910 f   Class.obj
 0001:00105970       ?ProcessEvent@idClass@@QAE_NPBVidEventDef@@@Z 10106970 f   Class.obj
 0001:00105990       ?ProcessEvent@idClass@@QAE_NPBVidEventDef@@VidEventArg@@@Z 10106990 f   Class.obj
 0001:001059b0       ?ProcessEvent@idClass@@QAE_NPBVidEventDef@@VidEventArg@@1@Z 101069b0 f   Class.obj
 0001:001059d0       ?ProcessEvent@idClass@@QAE_NPBVidEventDef@@VidEventArg@@11@Z 101069d0 f   Class.obj
 0001:00105a00       ?ProcessEvent@idClass@@QAE_NPBVidEventDef@@VidEventArg@@111@Z 10106a00 f   Class.obj
 0001:00105a30       ?RemoveFromHierarchy@?$idHierarchy@VidTypeInfo@@@@QAEXXZ 10106a30 f i Class.obj
 0001:00105a90       ?Init@idTypeInfo@@QAEXXZ   10106a90 f   Class.obj
 0001:00105bd0       ?Init@idClass@@SAXXZ       10106bd0 f   Class.obj
 0001:00105f70       ??1?$idHierarchy@VidTypeInfo@@@@QAE@XZ 10106f70 f i Class.obj
 0001:00105f80       ??0idTypeInfo@@QAE@PBD0PAU?$idEventFunc@VidClass@@@@P6APAVidClass@@XZP82@AEXXZP82@BEXPAVidSaveGame@@@ZP82@AEXPAVidRestoreGame@@@Z@Z 10106f80 f   Class.obj
 0001:001060a0       ??1idTypeInfo@@QAE@XZ      101070a0 f   Class.obj
 0001:00106110       ??0idEventDef@@QAE@PBD0D@Z 10107110 f   Event.obj
 0001:00106360       ?NumEventCommands@idEventDef@@SAHXZ 10107360 f   Event.obj
 0001:00106370       ?FindEvent@idEventDef@@SAPBV1@PBD@Z 10107370 f   Event.obj
 0001:001063b0       ?CopyArgs@idEvent@@SAXPBVidEventDef@@HPADQAH@Z 101073b0 f   Event.obj
 0001:00106440       ?RestoreTrace@idEvent@@SAXPAVidRestoreGame@@AAUtrace_s@@@Z 10107440 f   Event.obj
 0001:001064e0       ?SaveTrace@idEvent@@SAXPAVidSaveGame@@ABUtrace_s@@@Z 101074e0 f   Event.obj
 0001:00106590       ??4contactInfo_t@@QAEAAU0@ABU0@@Z 10107590 f i Event.obj
 0001:001065f0       ?Save@idEvent@@SAXPAVidSaveGame@@@Z 101075f0 f   Event.obj
 0001:00106840       ?InsertBefore@?$idLinkList@VidEvent@@@@QAEXAAV1@@Z 10107840 f i Event.obj
 0001:00106880       ??4trace_s@@QAEAAU0@ABU0@@Z 10107880 f i Event.obj
 0001:00106930       ?Schedule@idEvent@@QAEXPAVidClass@@PBVidTypeInfo@@H@Z 10107930 f   Event.obj
 0001:00106aa0       ??1?$idLinkList@VidActor@@@@QAE@XZ 10107aa0 f i Actor.obj
 0001:00106aa0       ??1?$idLinkList@VidEvent@@@@QAE@XZ 10107aa0 f i Event.obj
 0001:00106aa0       ??1?$idLinkList@VidEntity@@@@QAE@XZ 10107aa0 f i Entity.obj
 0001:00106ab0       ??1?$idBTree@V?$idDynamicBlock@D@@H$03@@QAE@XZ 10107ab0 f i idLib:Str.obj
 0001:00106ab0       ??1?$idBTree@V?$idDynamicBlock@E@@H$03@@QAE@XZ 10107ab0 f i Event.obj
 0001:00106b10       ??0idEvent@@QAE@XZ         10107b10 f i Event.obj
 0001:00106b30       ?AllocInternal@?$idDynamicBlockAlloc@E$0EAAA@$0BAA@@@AAEPAV?$idDynamicBlock@E@@H@Z 10107b30 f i Event.obj
 0001:00106e60       ?ResizeInternal@?$idDynamicBlockAlloc@E$0EAAA@$0BAA@@@AAEPAV?$idDynamicBlock@E@@PAV2@H@Z 10107e60 f i Event.obj
 0001:001071f0       ?Free@idEvent@@QAEXXZ      101081f0 f   Event.obj
 0001:00107280       ?CancelEvents@idEvent@@SAXPBVidClass@@PBVidEventDef@@@Z 10108280 f   Event.obj
 0001:00107330       ?ClearEventList@idEvent@@SAXXZ 10108330 f   Event.obj
 0001:00107370       ?ServiceEvents@idEvent@@SAXXZ 10108370 f   Event.obj
 0001:00107560       ?ServiceFastEvents@idEvent@@SAXXZ 10108560 f   Event.obj
 0001:00107750       ?Init@idEvent@@SAXXZ       10108750 f   Event.obj
 0001:001077f0       ?Shutdown@idEvent@@SAXXZ   101087f0 f   Event.obj
 0001:00107840       ??1idEvent@@QAE@XZ         10108840 f   Event.obj
 0001:00107890       ?Alloc@idEvent@@SAPAV1@PBVidEventDef@@HPAD@Z 10108890 f   Event.obj
 0001:00107b70       ?Restore@idEvent@@SAXPAVidRestoreGame@@@Z 10108b70 f   Event.obj
 0001:00108110       ?CallSave_r@idSaveGame@@AAEXPBVidTypeInfo@@PBVidClass@@@Z 10109110 f   SaveGame.obj
 0001:00108150       ?Write@idSaveGame@@QAEXPBXH@Z 10109150 f   SaveGame.obj
 0001:00108160       ?WriteJoint@idSaveGame@@QAEXW4jointHandle_t@@@Z 10109160 f   SaveGame.obj
 0001:00108160       ?WriteInt@idSaveGame@@QAEXH@Z 10109160 f   SaveGame.obj
 0001:00108170       ?WriteShort@idSaveGame@@QAEXF@Z 10109170 f   SaveGame.obj
 0001:00108180       ?WriteByte@idSaveGame@@QAEXE@Z 10109180 f   SaveGame.obj
 0001:001081a0       ?WriteFloat@idSaveGame@@QAEXM@Z 101091a0 f   SaveGame.obj
 0001:001081c0       ?WriteBool@idSaveGame@@QAEX_N@Z 101091c0 f   SaveGame.obj
 0001:001081d0       ?WriteString@idSaveGame@@QAEXPBD@Z 101091d0 f   SaveGame.obj
 0001:00108210       ?WriteVec2@idSaveGame@@QAEXABVidVec2@@@Z 10109210 f   SaveGame.obj
 0001:00108220       ?WriteVec3@idSaveGame@@QAEXABVidVec3@@@Z 10109220 f   SaveGame.obj
 0001:00108230       ?WriteVec4@idSaveGame@@QAEXABVidVec4@@@Z 10109230 f   SaveGame.obj
 0001:00108240       ?WriteVec6@idSaveGame@@QAEXABVidVec6@@@Z 10109240 f   SaveGame.obj
 0001:00108250       ?WriteBounds@idSaveGame@@QAEXABVidBounds@@@Z 10109250 f   SaveGame.obj
 0001:001082b0       ?WriteMat3@idSaveGame@@QAEXABVidMat3@@@Z 101092b0 f   SaveGame.obj
 0001:001082c0       ?WriteAngles@idSaveGame@@QAEXABVidAngles@@@Z 101092c0 f   SaveGame.obj
 0001:00108310       ?WriteStaticObject@idSaveGame@@QAEXABVidClass@@@Z 10109310 f   SaveGame.obj
 0001:00108350       ?WriteModel@idSaveGame@@QAEXPBVidRenderModel@@@Z 10109350 f   SaveGame.obj
 0001:001083c0       ?WriteUserInterface@idSaveGame@@QAEXPBVidUserInterface@@_N@Z 101093c0 f   SaveGame.obj
 0001:00108460       ?WriteRenderView@idSaveGame@@QAEXABUrenderView_s@@@Z 10109460 f   SaveGame.obj
 0001:00108540       ?WriteUsercmd@idSaveGame@@QAEXABVusercmd_t@@@Z 10109540 f   SaveGame.obj
 0001:00108660       ?WriteTraceModel@idSaveGame@@QAEXABVidTraceModel@@@Z 10109660 f   SaveGame.obj
 0001:00108870       ?WriteClipModel@idSaveGame@@QAEXPBVidClipModel@@@Z 10109870 f   SaveGame.obj
 0001:001088b0       ?WriteBuildNumber@idSaveGame@@QAEXH@Z 101098b0 f   SaveGame.obj
 0001:001088d0       ?CallRestore_r@idRestoreGame@@AAEXPBVidTypeInfo@@PAVidClass@@@Z 101098d0 f   SaveGame.obj
 0001:00108910       ?Read@idRestoreGame@@QAEXPAXH@Z 10109910 f   SaveGame.obj
 0001:00108920       ?ReadJoint@idRestoreGame@@QAEXAAW4jointHandle_t@@@Z 10109920 f   SaveGame.obj
 0001:00108920       ?ReadInt@idRestoreGame@@QAEXAAH@Z 10109920 f   SaveGame.obj
 0001:00108930       ?ReadShort@idRestoreGame@@QAEXAAF@Z 10109930 f   SaveGame.obj
 0001:00108940       ?ReadByte@idRestoreGame@@QAEXAAE@Z 10109940 f   SaveGame.obj
 0001:00108960       ?Parse@idDecl@@UAE_NPBDH@Z 10109960 f   Game_local.obj
 0001:00108960       ?ReadFloat@idRestoreGame@@QAEXAAM@Z 10109960 f   SaveGame.obj
 0001:00108970       ?ReadBool@idRestoreGame@@QAEXAA_N@Z 10109970 f   SaveGame.obj
 0001:00108980       ?ReadVec2@idRestoreGame@@QAEXAAVidVec2@@@Z 10109980 f   SaveGame.obj
 0001:00108990       ?ReadVec3@idRestoreGame@@QAEXAAVidVec3@@@Z 10109990 f   SaveGame.obj
 0001:001089a0       ?ReadVec4@idRestoreGame@@QAEXAAVidVec4@@@Z 101099a0 f   SaveGame.obj
 0001:001089b0       ?ReadVec6@idRestoreGame@@QAEXAAVidVec6@@@Z 101099b0 f   SaveGame.obj
 0001:001089c0       ?ReadBounds@idRestoreGame@@QAEXAAVidBounds@@@Z 101099c0 f   SaveGame.obj
 0001:001089f0       ?ReadMat3@idRestoreGame@@QAEXAAVidMat3@@@Z 101099f0 f   SaveGame.obj
 0001:00108a00       ?ReadAngles@idRestoreGame@@QAEXAAVidAngles@@@Z 10109a00 f   SaveGame.obj
 0001:00108a30       ?ReadStaticObject@idRestoreGame@@QAEXAAVidClass@@@Z 10109a30 f   SaveGame.obj
 0001:00108a70       ?ReadRenderView@idRestoreGame@@QAEXAAUrenderView_s@@@Z 10109a70 f   SaveGame.obj
 0001:00108b30       ?ReadUsercmd@idRestoreGame@@QAEXAAVusercmd_t@@@Z 10109b30 f   SaveGame.obj
 0001:00108c20       ?ReadTraceModel@idRestoreGame@@QAEXAAVidTraceModel@@@Z 10109c20 f   SaveGame.obj
 0001:00108da0       ?ReadClipModel@idRestoreGame@@QAEXAAPAVidClipModel@@@Z 10109da0 f   SaveGame.obj
 0001:00108e40       ?ReadBuildNumber@idRestoreGame@@QAEXXZ 10109e40 f   SaveGame.obj
 0001:00108e50       ?Close@idSaveGame@@QAEXXZ  10109e50 f   SaveGame.obj
 0001:00108ee0       ?WriteObjectList@idSaveGame@@QAEXXZ 10109ee0 f   SaveGame.obj
 0001:00108f40       ?WriteWinding@idSaveGame@@QAEXABVidWinding@@@Z 10109f40 f   SaveGame.obj
 0001:00108fc0       ?WriteObject@idSaveGame@@QAEXPBVidClass@@@Z 10109fc0 f   SaveGame.obj
 0001:00109010       ?WriteParticle@idSaveGame@@QAEXPBVidDeclParticle@@@Z 1010a010 f   SaveGame.obj
 0001:00109010       ?WriteFX@idSaveGame@@QAEXPBVidDeclFX@@@Z 1010a010 f   SaveGame.obj
 0001:00109010       ?WriteMaterial@idSaveGame@@QAEXPBVidMaterial@@@Z 1010a010 f   SaveGame.obj
 0001:00109010       ?WriteSkin@idSaveGame@@QAEXPBVidDeclSkin@@@Z 1010a010 f   SaveGame.obj
 0001:00109010       ?WriteSoundShader@idSaveGame@@QAEXPBVidSoundShader@@@Z 1010a010 f   SaveGame.obj
 0001:00109010       ?WriteModelDef@idSaveGame@@QAEXPBVidDeclModelDef@@@Z 1010a010 f   SaveGame.obj
 0001:00109080       ?WriteRenderEntity@idSaveGame@@QAEXABUrenderEntity_s@@@Z 1010a080 f   SaveGame.obj
 0001:00109280       ?WriteRenderLight@idSaveGame@@QAEXABUrenderLight_s@@@Z 1010a280 f   SaveGame.obj
 0001:00109400       ?WriteRefSound@idSaveGame@@QAEXABUrefSound_t@@@Z 1010a400 f   SaveGame.obj
 0001:001094e0       ?WriteContactInfo@idSaveGame@@QAEXABUcontactInfo_t@@@Z 1010a4e0 f   SaveGame.obj
 0001:00109580       ?WriteTrace@idSaveGame@@QAEXABUtrace_s@@@Z 1010a580 f   SaveGame.obj
 0001:001095d0       ?RestoreObjects@idRestoreGame@@QAEXXZ 1010a5d0 f   SaveGame.obj
 0001:00109690       ??0idSaveGame@@QAE@PAVidFile@@@Z 1010a690 f   SaveGame.obj
 0001:00109800       ??1idSaveGame@@QAE@XZ      1010a800 f   SaveGame.obj
 0001:00109860       ?AddObject@idSaveGame@@QAEXPBVidClass@@@Z 1010a860 f   SaveGame.obj
 0001:001099b0       ?WriteDict@idSaveGame@@QAEXPBVidDict@@@Z 1010a9b0 f   SaveGame.obj
 0001:00109a80       ??0idRestoreGame@@QAE@PAVidFile@@@Z 1010aa80 f   SaveGame.obj
 0001:00109aa0       ??1idRestoreGame@@QAE@XZ   1010aaa0 f   SaveGame.obj
 0001:00109ad0       ?DeleteObjects@idRestoreGame@@QAEXXZ 1010aad0 f   SaveGame.obj
 0001:00109b50       ?Error@idRestoreGame@@QAAXPBDZZ 1010ab50 f   SaveGame.obj
 0001:00109bf0       ?ReadString@idRestoreGame@@QAEXAAVidStr@@@Z 1010abf0 f   SaveGame.obj
 0001:00109c70       ?ReadWinding@idRestoreGame@@QAEXAAVidWinding@@@Z 1010ac70 f   SaveGame.obj
 0001:00109cf0       ?ReadObject@idRestoreGame@@QAEXAAPAVidClass@@@Z 1010acf0 f   SaveGame.obj
 0001:00109d40       ?ReadDict@idRestoreGame@@QAEXPAVidDict@@@Z 1010ad40 f   SaveGame.obj
 0001:00109e30       ?ReadMaterial@idRestoreGame@@QAEXAAPBVidMaterial@@@Z 1010ae30 f   SaveGame.obj
 0001:00109ed0       ?ReadSkin@idRestoreGame@@QAEXAAPBVidDeclSkin@@@Z 1010aed0 f   SaveGame.obj
 0001:00109f70       ?ReadParticle@idRestoreGame@@QAEXAAPBVidDeclParticle@@@Z 1010af70 f   SaveGame.obj
 0001:0010a010       ?ReadFX@idRestoreGame@@QAEXAAPBVidDeclFX@@@Z 1010b010 f   SaveGame.obj
 0001:0010a0b0       ?ReadSoundShader@idRestoreGame@@QAEXAAPBVidSoundShader@@@Z 1010b0b0 f   SaveGame.obj
 0001:0010a150       ?ReadModelDef@idRestoreGame@@QAEXAAPBVidDeclModelDef@@@Z 1010b150 f   SaveGame.obj
 0001:0010a1f0       ?ReadModel@idRestoreGame@@QAEXAAPAVidRenderModel@@@Z 1010b1f0 f   SaveGame.obj
 0001:0010a280       ?ReadUserInterface@idRestoreGame@@QAEXAAPAVidUserInterface@@@Z 1010b280 f   SaveGame.obj
 0001:0010a370       ?ReadRenderEntity@idRestoreGame@@QAEXAAUrenderEntity_s@@@Z 1010b370 f   SaveGame.obj
 0001:0010a540       ?ReadRenderLight@idRestoreGame@@QAEXAAUrenderLight_s@@@Z 1010b540 f   SaveGame.obj
 0001:0010a690       ?ReadRefSound@idRestoreGame@@QAEXAAUrefSound_t@@@Z 1010b690 f   SaveGame.obj
 0001:0010a760       ?ReadContactInfo@idRestoreGame@@QAEXAAUcontactInfo_t@@@Z 1010b760 f   SaveGame.obj
 0001:0010a800       ?ReadTrace@idRestoreGame@@QAEXAAUtrace_s@@@Z 1010b800 f   SaveGame.obj
 0001:0010a840       ?CreateObjects@idRestoreGame@@QAEXXZ 1010b840 f   SaveGame.obj
 0001:0010aa10       ?Cmd_God_f@@YAXABVidCmdArgs@@@Z 1010ba10 f   SysCmds.obj
 0001:0010aa70       ?Cmd_Notarget_f@@YAXABVidCmdArgs@@@Z 1010ba70 f   SysCmds.obj
 0001:0010aad0       ?Cmd_Noclip_f@@YAXABVidCmdArgs@@@Z 1010bad0 f   SysCmds.obj
 0001:0010ae40       ?ShutdownConsoleCommands@idGameLocal@@AAEXXZ 1010be40 f   SysCmds.obj
 0001:0010ae50       ??$ArgCompletion_Decl@$03@idCmdSystem@@SAXABVidCmdArgs@@P6AXPBD@Z@Z 1010be50 f i SysCmds.obj
 0001:0010ae70       ??$ArgCompletion_Decl@$05@idCmdSystem@@SAXABVidCmdArgs@@P6AXPBD@Z@Z 1010be70 f i SysCmds.obj
 0001:0010ae90       ??$ArgCompletion_Decl@$01@idCmdSystem@@SAXABVidCmdArgs@@P6AXPBD@Z@Z 1010be90 f i SysCmds.obj
 0001:0010aeb0       ?Cmd_EntityList_f@@YAXABVidCmdArgs@@@Z 1010beb0 f   SysCmds.obj
 0001:0010b000       ?Cmd_ActiveEntityList_f@@YAXABVidCmdArgs@@@Z 1010c000 f   SysCmds.obj
 0001:0010b0c0       ?Cmd_ReloadScript_f@@YAXABVidCmdArgs@@@Z 1010c0c0 f   SysCmds.obj
 0001:0010b240       ?Cmd_Script_f@@YAXABVidCmdArgs@@@Z 1010c240 f   SysCmds.obj
 0001:0010b3c0       ?Cmd_Give_f@@YAXABVidCmdArgs@@@Z 1010c3c0 f   SysCmds.obj
 0001:0010b880       ?Cmd_CenterView_f@@YAXABVidCmdArgs@@@Z 1010c880 f   SysCmds.obj
 0001:0010b8d0       ?Cmd_Kill_f@@YAXABVidCmdArgs@@@Z 1010c8d0 f   SysCmds.obj
 0001:0010b9f0       ?Cmd_PlayerModel_f@@YAXABVidCmdArgs@@@Z 1010c9f0 f   SysCmds.obj
 0001:0010bbd0       ?Cmd_GetViewpos_f@@YAXABVidCmdArgs@@@Z 1010cbd0 f   SysCmds.obj
 0001:0010bc50       ?Cmd_SetViewpos_f@@YAXABVidCmdArgs@@@Z 1010cc50 f   SysCmds.obj
 0001:0010bd50       ?Cmd_Teleport_f@@YAXABVidCmdArgs@@@Z 1010cd50 f   SysCmds.obj
 0001:0010be40       ?Cmd_Trigger_f@@YAXABVidCmdArgs@@@Z 1010ce40 f   SysCmds.obj
 0001:0010bee0       ?Cmd_Damage_f@@YAXABVidCmdArgs@@@Z 1010cee0 f   SysCmds.obj
 0001:0010bfe0       ?Cmd_Remove_f@@YAXABVidCmdArgs@@@Z 1010cfe0 f   SysCmds.obj
 0001:0010c050       ?Cmd_PopLight_f@@YAXABVidCmdArgs@@@Z 1010d050 f   SysCmds.obj
 0001:0010c160       ?Cmd_ClearLights_f@@YAXABVidCmdArgs@@@Z 1010d160 f   SysCmds.obj
 0001:0010c560       ?D_DrawDebugLines@@YAXXZ   1010d560 f   SysCmds.obj
 0001:0010cf60       ?FindEntityGUIs@@YA_NPAVidEntity@@PAPBUmodelSurface_s@@HAAH@Z 1010df60 f   SysCmds.obj
 0001:0010cff0       ?Cmd_NextGUI_f@@YAXABVidCmdArgs@@@Z 1010dff0 f   SysCmds.obj
 0001:0010d580       ?Cmd_SetActorState_f@@YAXABVidCmdArgs@@@Z 1010e580 f   SysCmds.obj
 0001:0010d630       ?Cmd_ListSpawnArgs_f@@YAXABVidCmdArgs@@@Z 1010e630 f   SysCmds.obj
 0001:0010e5b0       ?Cmd_TestId_f@@YAXABVidCmdArgs@@@Z 1010f5b0 f   SysCmds.obj
 0001:0010e7b0       ?KillEntities@@YAXABVidCmdArgs@@ABVidTypeInfo@@@Z 1010f7b0 f   SysCmds.obj
 0001:0010ec20       ?Cmd_KillMonsters_f@@YAXABVidCmdArgs@@@Z 1010fc20 f   SysCmds.obj
 0001:0010ec40       ?Cmd_KillMovables_f@@YAXABVidCmdArgs@@@Z 1010fc40 f   SysCmds.obj
 0001:0010ec80       ?Cmd_KillRagdolls_f@@YAXABVidCmdArgs@@@Z 1010fc80 f   SysCmds.obj
 0001:0010ecc0       ?Cmd_Spawn_f@@YAXABVidCmdArgs@@@Z 1010fcc0 f   SysCmds.obj
 0001:0010f050       ?Cmd_TestLight_f@@YAXABVidCmdArgs@@@Z 10110050 f   SysCmds.obj
 0001:0010f500       ?Cmd_TestPointLight_f@@YAXABVidCmdArgs@@@Z 10110500 f   SysCmds.obj
 0001:0010f7b0       ?Cmd_TestFx_f@@YAXABVidCmdArgs@@@Z 101107b0 f   SysCmds.obj
 0001:00110e30       ?InitConsoleCommands@idGameLocal@@AAEXXZ 10111e30 f   SysCmds.obj
 0001:001119b0       ?ArgCompletion_MapName@idCmdSystem@@SAXABVidCmdArgs@@P6AXPBD@Z@Z 101129b0 f i SysCvar.obj
 0001:001119e0       ??$ArgCompletion_String@$1?si_gameTypeArgs@@3PAPBDA@idCmdSystem@@SAXABVidCmdArgs@@P6AXPBD@Z@Z 101129e0 f i SysCvar.obj
 0001:00111a30       ??$ArgCompletion_String@$1?ui_skinArgs@@3PAPBDA@idCmdSystem@@SAXABVidCmdArgs@@P6AXPBD@Z@Z 10112a30 f i SysCvar.obj
 0001:00111a80       ??$ArgCompletion_String@$1?ui_teamArgs@@3PAPBDA@idCmdSystem@@SAXABVidCmdArgs@@P6AXPBD@Z@Z 10112a80 f i SysCvar.obj
 0001:00111ad0       ??$ArgCompletion_String@$1?si_readyArgs@@3PAPBDA@idCmdSystem@@SAXABVidCmdArgs@@P6AXPBD@Z@Z 10112ad0 f i SysCvar.obj
 0001:00111b20       ??$ArgCompletion_String@$1?si_spectateArgs@@3PAPBDA@idCmdSystem@@SAXABVidCmdArgs@@P6AXPBD@Z@Z 10112b20 f i SysCvar.obj
 0001:00111b70       ??$ArgCompletion_Integer@$0A@$06@idCmdSystem@@SAXABVidCmdArgs@@P6AXPBD@Z@Z 10112b70 f i SysCvar.obj
 0001:00111bb0       ??$ArgCompletion_Integer@$0A@$03@idCmdSystem@@SAXABVidCmdArgs@@P6AXPBD@Z@Z 10112bb0 f i SysCvar.obj
 0001:00111bf0       ?FindClassInfo@idTypeInfoTools@@SAPBUclassTypeInfo_t@@PBD@Z 10112bf0 f   TypeInfo.obj
 0001:00111c40       ?FindEnumInfo@idTypeInfoTools@@SAPBUenumTypeInfo_t@@PBD@Z 10112c40 f   TypeInfo.obj
 0001:00111c90       ?IsSubclassOf@idTypeInfoTools@@SA_NPBD0@Z 10112c90 f   TypeInfo.obj
 0001:00111d30       ?OutputString@idTypeInfoTools@@SAPBDPBD@Z 10112d30 f   TypeInfo.obj
 0001:00111e40       ?IsAllowedToChangedFromSaveGames@@YA_NPBD00000@Z 10112e40 f   TypeInfo.obj
 0001:00111fb0       ?IsRenderHandleVariable@@YA_NPBD00000@Z 10112fb0 f   TypeInfo.obj
 0001:001121b0       ?WriteGameStateVariable@idTypeInfoTools@@SAXPBD00000PBXH@Z 101131b0 f   TypeInfo.obj
 0001:001122f0       ?SortTypeInfoByName@@YAHPBH0@Z 101132f0 f   TypeInfo.obj
 0001:00112320       ?SortTypeInfoBySize@@YAHPBH0@Z 10113320 f   TypeInfo.obj
 0001:00112350       ?TestSaveGame_f@@YAXABVidCmdArgs@@@Z 10113350 f   TypeInfo.obj
 0001:00112490       ?ParseTemplateArguments@idTypeInfoTools@@SA_NAAVidLexer@@AAVidStr@@@Z 10113490 f   TypeInfo.obj
 0001:00112620       ?WriteVariable_r@idTypeInfoTools@@SAHPBXPBD111H@Z 10113620 f   TypeInfo.obj
 0001:00116260       ?WriteClass_r@idTypeInfoTools@@SAXPBXPBD111H@Z 10117260 f   TypeInfo.obj
 0001:001162f0       ?WriteGameState@idTypeInfoTools@@SAXPBD@Z 101172f0 f   TypeInfo.obj
 0001:001163f0       ?WriteGameState_f@@YAXABVidCmdArgs@@@Z 101173f0 f   TypeInfo.obj
 0001:00116480       ?ListTypeInfo_f@@YAXABVidCmdArgs@@@Z 10117480 f   TypeInfo.obj
 0001:001166c0       ?Save@idClipModel@@QBEXPAVidSaveGame@@@Z 101176c0 f   Clip.obj
 0001:001167a0       ?CheckModel@idClipModel@@SAHPBD@Z 101177a0 f   Clip.obj
 0001:001167c0       ?PrintStatistics@idClip@@QAEXXZ 101177c0 f   Clip.obj
 0001:00116830       ?Shutdown@?$idBlockAlloc@UclipLink_s@@$0EAA@@@QAEXXZ 10117830 f i Clip.obj
 0001:00116880       ?Alloc@?$idBlockAlloc@UclipLink_s@@$0EAA@@@QAEPAUclipLink_s@@XZ 10117880 f i Clip.obj
 0001:001168f0       ?GetCachedTraceModel@idClipModel@@CAPAVidTraceModel@@H@Z 101178f0 f   Clip.obj
 0001:00116900       ?SaveTraceModels@idClipModel@@SAXPAVidSaveGame@@@Z 10117900 f   Clip.obj
 0001:00116970       ?LoadModel@idClipModel@@QAE_NPBD@Z 10117970 f   Clip.obj
 0001:00116a30       ?LoadModel@idClipModel@@QAEXH@Z 10117a30 f   Clip.obj
 0001:00116ae0       ?Handle@idClipModel@@QBEHXZ 10117ae0 f   Clip.obj
 0001:00116b40       ?GetMassProperties@idClipModel@@QBEXMAAMAAVidVec3@@AAVidMat3@@@Z 10117b40 f   Clip.obj
 0001:00116c60       ?Unlink@idClipModel@@QAEXXZ 10117c60 f   Clip.obj
 0001:00116cc0       ?Link_r@idClipModel@@AAEXPAUclipSector_s@@@Z 10117cc0 f   Clip.obj
 0001:00116d50       ?Link@idClipModel@@QAEXAAVidClip@@@Z 10117d50 f   Clip.obj
 0001:00116f10       ?Link@idClipModel@@QAEXAAVidClip@@PAVidEntity@@HABVidVec3@@ABVidMat3@@H@Z 10117f10 f   Clip.obj
 0001:00116fd0       ?CreateClipSectors_r@idClip@@AAEPAUclipSector_s@@HABVidBounds@@AAVidVec3@@@Z 10117fd0 f   Clip.obj
 0001:00117180       ?Shutdown@idClip@@QAEXXZ   10118180 f   Clip.obj
 0001:00117250       ?ClipModelsTouchingBounds_r@idClip@@ABEXPBUclipSector_s@@AAUlistParms_s@@@Z 10118250 f   Clip.obj
 0001:00117370       ?TraceModelForClipModel@idClip@@ABEPBVidTraceModel@@PBVidClipModel@@@Z 10118370 f   Clip.obj
 0001:001173e0       ??4idRotation@@QAEAAV0@ABV0@@Z 101183e0 f i Clip.obj
 0001:00117450       ?TranslationModel@idClip@@QAEXAAUtrace_s@@ABVidVec3@@1PBVidClipModel@@ABVidMat3@@HH13@Z 10118450 f   Clip.obj
 0001:001174a0       ?RotationModel@idClip@@QAEXAAUtrace_s@@ABVidVec3@@ABVidRotation@@PBVidClipModel@@ABVidMat3@@HH14@Z 101184a0 f   Clip.obj
 0001:001174f0       ?ContentsModel@idClip@@QAEHABVidVec3@@PBVidClipModel@@ABVidMat3@@HH02@Z 101184f0 f   Clip.obj
 0001:00117540       ?ClearTraceModelCache@idClipModel@@SAXXZ 10118540 f   Clip.obj
 0001:001175c0       ?RestoreTraceModels@idClipModel@@SAXPAVidRestoreGame@@@Z 101185c0 f   Clip.obj
 0001:001177d0       ?Init@idClipModel@@AAEXXZ  101187d0 f   Clip.obj
 0001:00117890       ??0idClipModel@@QAE@XZ     10118890 f   Clip.obj
 0001:001178a0       ??0idClipModel@@QAE@PBD@Z  101188a0 f   Clip.obj
 0001:001178c0       ??0idClipModel@@QAE@H@Z    101188c0 f   Clip.obj
 0001:001178e0       ??1idClipModel@@QAE@XZ     101188e0 f   Clip.obj
 0001:00117930       ?Restore@idClipModel@@QAEXPAVidRestoreGame@@@Z 10118930 f   Clip.obj
 0001:00117ac0       ?SetPosition@idClipModel@@QAEXABVidVec3@@ABVidMat3@@@Z 10118ac0 f   Clip.obj
 0001:00117b20       ??0idClip@@QAE@XZ          10118b20 f   Clip.obj
 0001:00117b80       ?ClipModelsTouchingBounds@idClip@@QBEHABVidBounds@@HPAPAVidClipModel@@H@Z 10118b80 f   Clip.obj
 0001:00117c90       ?EntitiesTouchingBounds@idClip@@QBEHABVidBounds@@HPAPAVidEntity@@H@Z 10118c90 f   Clip.obj
 0001:00117d40       ?GetTraceClipModels@idClip@@ABEHABVidBounds@@HPBVidEntity@@PAPAVidClipModel@@@Z 10118d40 f   Clip.obj
 0001:00117de0       ?TraceRenderModel@idClip@@ABEXAAUtrace_s@@ABVidVec3@@1MABVidMat3@@PAVidClipModel@@@Z 10118de0 f   Clip.obj
 0001:00117f60       ?TranslationEntities@idClip@@QAEXAAUtrace_s@@ABVidVec3@@1PBVidClipModel@@ABVidMat3@@HPBVidEntity@@@Z 10118f60 f   Clip.obj
 0001:001182b0       ?Translation@idClip@@QAE_NAAUtrace_s@@ABVidVec3@@1PBVidClipModel@@ABVidMat3@@HPBVidEntity@@@Z 101192b0 f   Clip.obj
 0001:00118680       ?Rotation@idClip@@QAE_NAAUtrace_s@@ABVidVec3@@ABVidRotation@@PBVidClipModel@@ABVidMat3@@HPBVidEntity@@@Z 10119680 f   Clip.obj
 0001:00118a10       ?Motion@idClip@@QAE_NAAUtrace_s@@ABVidVec3@@1ABVidRotation@@PBVidClipModel@@ABVidMat3@@HPBVidEntity@@@Z 10119a10 f   Clip.obj
 0001:00119470       ?Contacts@idClip@@QAEHPAUcontactInfo_t@@HABVidVec3@@ABVidVec6@@MPBVidClipModel@@ABVidMat3@@HPBVidEntity@@@Z 1011a470 f   Clip.obj
 0001:001197a0       ?Contents@idClip@@QAEHABVidVec3@@PBVidClipModel@@ABVidMat3@@HPBVidEntity@@@Z 1011a7a0 f   Clip.obj
 0001:00119a60       ?DrawClipModels@idClip@@QAEXABVidVec3@@MPBVidEntity@@@Z 1011aa60 f   Clip.obj
 0001:00119c10       ?AllocTraceModel@idClipModel@@CAHABVidTraceModel@@@Z 1011ac10 f   Clip.obj
 0001:00119f10       ?LoadModel@idClipModel@@QAEXABVidTraceModel@@@Z 1011af10 f   Clip.obj
 0001:00119fb0       ??0idClipModel@@QAE@ABVidTraceModel@@@Z 1011afb0 f   Clip.obj
 0001:00119fd0       ??0idClipModel@@QAE@PBV0@@Z 1011afd0 f   Clip.obj
 0001:0011a0e0       ?Init@idClip@@QAEXXZ       1011b0e0 f   Clip.obj
 0001:0011a2a0       ?GetType@idForce@@UBEPAVidTypeInfo@@XZ 1011b2a0 f   Force.obj
 0001:0011a2b0       ?DeletePhysics@idForce@@SAXPBVidPhysics@@@Z 1011b2b0 f   Force.obj
 0001:0011a2e0       ?ClearForceList@idForce@@SAXXZ 1011b2e0 f   Force.obj
 0001:0011a320       ??0idForce@@QAE@XZ         1011b320 f   Force.obj
 0001:0011a4e0       ??1idForce@@UAE@XZ         1011b4e0 f   Force.obj
 0001:0011a550       ?CreateInstance@idForce@@SAPAVidClass@@XZ 1011b550 f   Force.obj
 0001:0011a5f0       ??_GidForce@@UAEPAXI@Z     1011b5f0 f i Force.obj
 0001:0011a5f0       ??_EidForce@@UAEPAXI@Z     1011b5f0 f i Force.obj
 0001:0011a610       ?GetType@idForce_Constant@@UBEPAVidTypeInfo@@XZ 1011b610 f   Force_Constant.obj
 0001:0011a620       ??1idForce_Constant@@UAE@XZ 1011b620 f   Force_Constant.obj
 0001:0011a630       ?Save@idForce_Constant@@QBEXPAVidSaveGame@@@Z 1011b630 f   Force_Constant.obj
 0001:0011a660       ?Restore@idForce_Constant@@QAEXPAVidRestoreGame@@@Z 1011b660 f   Force_Constant.obj
 0001:0011a690       ?SetPhysics@idForce_Constant@@QAEXPAVidPhysics@@@Z 1011b690 f   Force_Constant.obj
 0001:0011a6a0       ?RemovePhysics@idForce_Constant@@UAEXPBVidPhysics@@@Z 1011b6a0 f   Force_Constant.obj
 0001:0011a6c0       ??0idForce_Constant@@QAE@XZ 1011b6c0 f   Force_Constant.obj
 0001:0011a710       ??_GidForce_Constant@@UAEPAXI@Z 1011b710 f i Force_Constant.obj
 0001:0011a710       ??_EidForce_Constant@@UAEPAXI@Z 1011b710 f i Force_Constant.obj
 0001:0011a740       ?SetPosition@idForce_Constant@@QAEXPAVidPhysics@@HABVidVec3@@@Z 1011b740 f   Force_Constant.obj
 0001:0011a770       ?SetForce@idForce_Constant@@QAEXABVidVec3@@@Z 1011b770 f   Force_Constant.obj
 0001:0011a790       ?Evaluate@idForce_Constant@@UAEXH@Z 1011b790 f   Force_Constant.obj
 0001:0011a870       ?CreateInstance@idForce_Constant@@SAPAVidClass@@XZ 1011b870 f   Force_Constant.obj
 0001:0011a910       ?GetType@idForce_Drag@@UBEPAVidTypeInfo@@XZ 1011b910 f   Force_Drag.obj
 0001:0011a920       ??1idForce_Drag@@UAE@XZ    1011b920 f   Force_Drag.obj
 0001:0011a930       ?RemovePhysics@idForce_Drag@@UAEXPBVidPhysics@@@Z 1011b930 f   Force_Drag.obj
 0001:0011a950       ??0idForce_Drag@@QAE@XZ    1011b950 f   Force_Drag.obj
 0001:0011a9d0       ??_GidForce_Drag@@UAEPAXI@Z 1011b9d0 f i Force_Drag.obj
 0001:0011a9d0       ??_EidForce_Drag@@UAEPAXI@Z 1011b9d0 f i Force_Drag.obj
 0001:0011aa00       ?SetPhysics@idForce_Drag@@QAEXPAVidPhysics@@HABVidVec3@@@Z 1011ba00 f   Force_Drag.obj
 0001:0011aa30       ?SetDragPosition@idForce_Drag@@QAEXABVidVec3@@@Z 1011ba30 f   Force_Drag.obj
 0001:0011aa50       ?Evaluate@idForce_Drag@@UAEXH@Z 1011ba50 f   Force_Drag.obj
 0001:0011aff0       ?CreateInstance@idForce_Drag@@SAPAVidClass@@XZ 1011bff0 f   Force_Drag.obj
 0001:0011b090       ?GetType@idForce_Field@@UBEPAVidTypeInfo@@XZ 1011c090 f   Force_Field.obj
 0001:0011b0a0       ?Save@idForce_Field@@QBEXPAVidSaveGame@@@Z 1011c0a0 f   Force_Field.obj
 0001:0011b110       ?Restore@idForce_Field@@QAEXPAVidRestoreGame@@@Z 1011c110 f   Force_Field.obj
 0001:0011b180       ?SetClipModel@idForce_Field@@QAEXPAVidClipModel@@@Z 1011c180 f   Force_Field.obj
 0001:0011b1c0       ?Explosion@idForce_Field@@QAEXM@Z 1011c1c0 f   Force_Field.obj
 0001:0011b1e0       ?Implosion@idForce_Field@@QAEXM@Z 1011c1e0 f   Force_Field.obj
 0001:0011b200       ?RandomTorque@idForce_Field@@QAEXM@Z 1011c200 f   Force_Field.obj
 0001:0011b210       ??0idForce_Field@@QAE@XZ   1011c210 f   Force_Field.obj
 0001:0011b250       ??1idForce_Field@@UAE@XZ   1011c250 f   Force_Field.obj
 0001:0011b2c0       ?Uniform@idForce_Field@@QAEXABVidVec3@@@Z 1011c2c0 f   Force_Field.obj
 0001:0011b390       ?Evaluate@idForce_Field@@UAEXH@Z 1011c390 f   Force_Field.obj
 0001:0011bc60       ?CreateInstance@idForce_Field@@SAPAVidClass@@XZ 1011cc60 f   Force_Field.obj
 0001:0011bd20       ??_GidForce_Field@@UAEPAXI@Z 1011cd20 f i Force_Field.obj
 0001:0011bd20       ??_EidForce_Field@@UAEPAXI@Z 1011cd20 f i Force_Field.obj
 0001:0011bda0       ?GetType@idForce_Grab@@UBEPAVidTypeInfo@@XZ 1011cda0 f   Force_Grab.obj
 0001:0011bdb0       ?Save@idForce_Grab@@QBEXPAVidSaveGame@@@Z 1011cdb0 f   Force_Grab.obj
 0001:0011bdf0       ?Restore@idForce_Grab@@QAEXPAVidRestoreGame@@@Z 1011cdf0 f   Force_Grab.obj
 0001:0011be30       ??1idForce_Grab@@UAE@XZ    1011ce30 f   Force_Grab.obj
 0001:0011be40       ?Init@idForce_Drag@@QAEXM@Z 1011ce40 f   Force_Drag.obj
 0001:0011be40       ?Init@idForce_Grab@@QAEXM@Z 1011ce40 f   Force_Grab.obj
 0001:0011be70       ?GetDistanceToGoal@idForce_Grab@@QAEMXZ 1011ce70 f   Force_Grab.obj
 0001:0011be80       ?RemovePhysics@idForce_Grab@@UAEXPBVidPhysics@@@Z 1011ce80 f   Force_Grab.obj
 0001:0011bea0       ??0idForce_Grab@@QAE@XZ    1011cea0 f   Force_Grab.obj
 0001:0011bed0       ??_GidForce_Grab@@UAEPAXI@Z 1011ced0 f i Force_Grab.obj
 0001:0011bed0       ??_EidForce_Grab@@UAEPAXI@Z 1011ced0 f i Force_Grab.obj
 0001:0011bf00       ?SetPhysics@idForce_Grab@@QAEXPAVidPhysics@@HABVidVec3@@@Z 1011cf00 f   Force_Grab.obj
 0001:0011bf30       ?SetGoalPosition@idForce_Grab@@QAEXABVidVec3@@@Z 1011cf30 f   Force_Grab.obj
 0001:0011bf60       ?Evaluate@idForce_Grab@@UAEXH@Z 1011cf60 f   Force_Grab.obj
 0001:0011c390       ?CreateInstance@idForce_Grab@@SAPAVidClass@@XZ 1011d390 f   Force_Grab.obj
 0001:0011c440       ?GetType@idForce_Spring@@UBEPAVidTypeInfo@@XZ 1011d440 f   Force_Spring.obj
 0001:0011c450       ??1idForce_Spring@@UAE@XZ  1011d450 f   Force_Spring.obj
 0001:0011c460       ?InitSpring@idForce_Spring@@QAEXMMMM@Z 1011d460 f   Force_Spring.obj
 0001:0011c480       ?RemovePhysics@idForce_Spring@@UAEXPBVidPhysics@@@Z 1011d480 f   Force_Spring.obj
 0001:0011c4a0       ??0idForce_Spring@@QAE@XZ  1011d4a0 f   Force_Spring.obj
 0001:0011c510       ??_GidForce_Spring@@UAEPAXI@Z 1011d510 f i Force_Spring.obj
 0001:0011c510       ??_EidForce_Spring@@UAEPAXI@Z 1011d510 f i Force_Spring.obj
 0001:0011c540       ?SetPosition@idForce_Spring@@QAEXPAVidPhysics@@HABVidVec3@@0H1@Z 1011d540 f   Force_Spring.obj
 0001:0011c590       ?CreateInstance@idForce_Spring@@SAPAVidClass@@XZ 1011d590 f   Force_Spring.obj
 0001:0011c630       ?Evaluate@idForce_Spring@@UAEXH@Z 1011d630 f   Force_Spring.obj
 0001:0011cc80       ?CreateInstance@idPhysics@@SAPAVidClass@@XZ 1011dc80 f   Physics.obj
 0001:0011cca0       ?GetType@idPhysics@@UBEPAVidTypeInfo@@XZ 1011dca0 f   Physics.obj
 0001:0011ccb0       ??1idPhysics@@UAE@XZ       1011dcb0 f   Physics.obj
 0001:0011ccc0       ??_GidPhysics@@UAEPAXI@Z   1011dcc0 f i Physics.obj
 0001:0011ccc0       ??_EidPhysics@@UAEPAXI@Z   1011dcc0 f i Physics.obj
 0001:0011ccf0       ?SnapTimeToPhysicsFrame@idPhysics@@SAHH@Z 1011dcf0 f   Physics.obj
 0001:0011cd10       ?SetClipBox@idPhysics@@UAEXABVidBounds@@M@Z 1011dd10 f   Physics.obj
 0001:0011cdc0       ?GetType@idPhysics_Actor@@UBEPAVidTypeInfo@@XZ 1011ddc0 f   Physics_Actor.obj
 0001:0011cdd0       ?GetGravityAxis@idPhysics_Actor@@QBEABVidMat3@@XZ 1011ddd0 f   Physics_Actor.obj
 0001:0011cde0       ?GetMasterDeltaYaw@idPhysics_Actor@@QBEMXZ 1011dde0 f   Physics_Actor.obj
 0001:0011cdf0       ?SetClipModel@idPhysics_Actor@@UAEXPAVidClipModel@@MH_N@Z 1011ddf0 f   Physics_Actor.obj
 0001:0011ce40       ?GetClipModel@idPhysics_Actor@@UBEPAVidClipModel@@H@Z 1011de40 f   Physics_Actor.obj
 0001:0011ce50       ?GetNumClipModels@idPhysics_RigidBody@@UBEHXZ 1011de50 f   Physics_RigidBody.obj
 0001:0011ce50       ?GetDefaultSurfaceType@idAnimatedEntity@@UBEHXZ 1011de50 f   Entity.obj
 0001:0011ce50       ?GetNumClipModels@idPhysics_Actor@@UBEHXZ 1011de50 f   Physics_Actor.obj
 0001:0011ce60       ?SetMass@idPhysics_Actor@@UAEXMH@Z 1011de60 f   Physics_Actor.obj
 0001:0011ce80       ?GetMass@idPhysics_Actor@@UBEMH@Z 1011de80 f   Physics_Actor.obj
 0001:0011ce90       ?SetContents@idPhysics_Actor@@UAEXHH@Z 1011de90 f   Physics_Actor.obj
 0001:0011cea0       ?GetContents@idPhysics_Actor@@UBEHH@Z 1011dea0 f   Physics_Actor.obj
 0001:0011ceb0       ?GetBounds@idPhysics_Actor@@UBEABVidBounds@@H@Z 1011deb0 f   Physics_Actor.obj
 0001:0011cec0       ?GetAbsBounds@idPhysics_Actor@@UBEABVidBounds@@H@Z 1011dec0 f   Physics_Actor.obj
 0001:0011ced0       ?IsPushable@idPhysics_Actor@@UBE_NXZ 1011ded0 f   Physics_Actor.obj
 0001:0011cee0       ?GetOrigin@idPhysics_Actor@@UBEABVidVec3@@H@Z 1011dee0 f   Physics_Actor.obj
 0001:0011cef0       ?GetAxis@idPhysics_Actor@@UBEABVidMat3@@H@Z 1011def0 f   Physics_Actor.obj
 0001:0011cf00       ?ClipRotation@idPhysics_Actor@@UBEXAAUtrace_s@@ABVidRotation@@PBVidClipModel@@@Z 1011df00 f   Physics_Actor.obj
 0001:0011cf80       ?ClipContents@idPhysics_Actor@@UBEHPBVidClipModel@@@Z 1011df80 f   Physics_Actor.obj
 0001:0011cfe0       ?DisableClip@idPhysics_Actor@@UAEXXZ 1011dfe0 f   Physics_Actor.obj
 0001:0011cff0       ?EnableClip@idPhysics_Actor@@UAEXXZ 1011dff0 f   Physics_Actor.obj
 0001:0011d000       ?UnlinkClip@idPhysics_Actor@@UAEXXZ 1011e000 f   Physics_Actor.obj
 0001:0011d010       ?LinkClip@idPhysics_Actor@@UAEXXZ 1011e010 f   Physics_Actor.obj
 0001:0011d030       ??1idPhysics_Actor@@UAE@XZ 1011e030 f   Physics_Actor.obj
 0001:0011d0a0       ?Save@idPhysics_Actor@@QBEXPAVidSaveGame@@@Z 1011e0a0 f   Physics_Actor.obj
 0001:0011d120       ?Restore@idPhysics_Actor@@QAEXPAVidRestoreGame@@@Z 1011e120 f   Physics_Actor.obj
 0001:0011d190       ?GetGroundEntity@idPhysics_Actor@@QBEPAVidEntity@@XZ 1011e190 f   Physics_Actor.obj
 0001:0011d1c0       ?ClipTranslation@idPhysics_Actor@@UBEXAAUtrace_s@@ABVidVec3@@PBVidClipModel@@@Z 1011e1c0 f   Physics_Actor.obj
 0001:0011d2a0       ?EvaluateContacts@idPhysics_Actor@@UAE_NXZ 1011e2a0 f   Physics_Actor.obj
 0001:0011d2d0       ??_EidPhysics_Actor@@UAEPAXI@Z 1011e2d0 f i Physics_Actor.obj
 0001:0011d2d0       ??_GidPhysics_Actor@@UAEPAXI@Z 1011e2d0 f i Physics_Actor.obj
 0001:0011d350       ?SetClipModelAxis@idPhysics_Actor@@QAEXXZ 1011e350 f   Physics_Actor.obj
 0001:0011d580       ?SetGravity@idPhysics_Actor@@UAEXABVidVec3@@@Z 1011e580 f   Physics_Actor.obj
 0001:0011d5d0       ??0idPhysics_Actor@@QAE@XZ 1011e5d0 f   Physics_Actor.obj
 0001:0011d650       ?CreateInstance@idPhysics_Actor@@SAPAVidClass@@XZ 1011e650 f   Physics_Actor.obj
 0001:0011d740       ?GetType@idPhysics_AF@@UBEPAVidTypeInfo@@XZ 1011e740 f   Physics_AF.obj
 0001:0011d750       ?SetBody1@idAFConstraint@@UAEXPAVidAFBody@@@Z 1011e750 f   Physics_AF.obj
 0001:0011d770       ?SetBody2@idAFConstraint@@UAEXPAVidAFBody@@@Z 1011e770 f   Physics_AF.obj
 0001:0011d790       ?Save@idAFConstraint@@UBEXPAVidSaveGame@@@Z 1011e790 f   Physics_AF.obj
 0001:0011d7a0       ?Restore@idAFConstraint@@UAEXPAVidRestoreGame@@@Z 1011e7a0 f   Physics_AF.obj
 0001:0011d7c0       ?DebugDraw@idAFConstraint_Fixed@@UAEXXZ 1011e7c0 f   Physics_AF.obj
 0001:0011d830       ?Save@idAFConstraint_Fixed@@UBEXPAVidSaveGame@@@Z 1011e830 f   Physics_AF.obj
 0001:0011d870       ?Restore@idAFConstraint_Fixed@@UAEXPAVidRestoreGame@@@Z 1011e870 f   Physics_AF.obj
 0001:0011d8b0       ?SetNoLimit@idAFConstraint_BallAndSocketJoint@@QAEXXZ 1011e8b0 f   Physics_AF.obj
 0001:0011d8f0       ?Save@idAFConstraint_BallAndSocketJoint@@UBEXPAVidSaveGame@@@Z 1011e8f0 f   Physics_AF.obj
 0001:0011d970       ?Restore@idAFConstraint_BallAndSocketJoint@@UAEXPAVidRestoreGame@@@Z 1011e970 f   Physics_AF.obj
 0001:0011d9f0       ?SetNoLimit@idAFConstraint_UniversalJoint@@QAEXXZ 1011e9f0 f   Physics_AF.obj
 0001:0011da30       ?Translate@idAFConstraint_UniversalJoint@@UAEXABVidVec3@@@Z 1011ea30 f   Physics_AF.obj
 0001:0011daa0       ?Save@idAFConstraint_UniversalJoint@@UBEXPAVidSaveGame@@@Z 1011eaa0 f   Physics_AF.obj
 0001:0011db50       ?Restore@idAFConstraint_UniversalJoint@@UAEXPAVidRestoreGame@@@Z 1011eb50 f   Physics_AF.obj
 0001:0011dc00       ??1idVecX@@QAE@XZ          1011ec00 f i Physics_AF.obj
 0001:0011dc30       ?SetNoLimit@idAFConstraint_Hinge@@QAEXXZ 1011ec30 f   Physics_AF.obj
 0001:0011dc60       ?SetSteerSpeed@idAFConstraint_Hinge@@QAEXM@Z 1011ec60 f   Physics_AF.obj
 0001:0011dc80       ?Translate@idAFConstraint_Hinge@@UAEXABVidVec3@@@Z 1011ec80 f   Physics_AF.obj
 0001:0011dce0       ?Save@idAFConstraint_Hinge@@UBEXPAVidSaveGame@@@Z 1011ece0 f   Physics_AF.obj
 0001:0011ddd0       ?Save@idAFConstraint_HingeSteering@@UBEXPAVidSaveGame@@@Z 1011edd0 f   Physics_AF.obj
 0001:0011de10       ?Restore@idAFConstraint_HingeSteering@@UAEXPAVidRestoreGame@@@Z 1011ee10 f   Physics_AF.obj
 0001:0011de50       ?Translate@idAFConstraint_Spring@@UAEXABVidVec3@@@Z 1011ee50 f   Physics_AF.obj
 0001:0011de50       ?Translate@idAFConstraint_Slider@@UAEXABVidVec3@@@Z 1011ee50 f   Physics_AF.obj
 0001:0011de90       ?GetCenter@idAFConstraint_Slider@@UAEXAAVidVec3@@@Z 1011ee90 f   Physics_AF.obj
 0001:0011dfd0       ?DebugDraw@idAFConstraint_Slider@@UAEXXZ 1011efd0 f   Physics_AF.obj
 0001:0011e1b0       ?Save@idAFConstraint_Slider@@UBEXPAVidSaveGame@@@Z 1011f1b0 f   Physics_AF.obj
 0001:0011e200       ?Restore@idAFConstraint_Slider@@UAEXPAVidRestoreGame@@@Z 1011f200 f   Physics_AF.obj
 0001:0011e250       ?SetAnchor@idAFConstraint_Spring@@QAEXABVidVec3@@0@Z 1011f250 f   Physics_AF.obj
 0001:0011e440       ?SetSpring@idAFConstraint_Spring@@QAEXMMMM@Z 1011f440 f   Physics_AF.obj
 0001:0011e470       ?SetLimit@idAFConstraint_Spring@@QAEXMM@Z 1011f470 f   Physics_AF.obj
 0001:0011e490       ?GetCenter@idAFConstraint_Spring@@UAEXAAVidVec3@@@Z 1011f490 f   Physics_AF.obj
 0001:0011e660       ?DebugDraw@idAFConstraint_Spring@@UAEXXZ 1011f660 f   Physics_AF.obj
 0001:0011ecf0       ?Save@idAFConstraint_Spring@@UBEXPAVidSaveGame@@@Z 1011fcf0 f   Physics_AF.obj
 0001:0011ed90       ?Restore@idAFConstraint_Spring@@UAEXPAVidRestoreGame@@@Z 1011fd90 f   Physics_AF.obj
 0001:0011ee20       ?GetCenter@idAFConstraint_Contact@@UAEXAAVidVec3@@@Z 1011fe20 f   Physics_AF.obj
 0001:0011ee50       ?DebugDraw@idAFConstraint_Contact@@UAEXXZ 1011fe50 f   Physics_AF.obj
 0001:0011f150       ?Setup@idAFConstraint_ConeLimit@@QAEXPAVidAFBody@@0ABVidVec3@@1M1@Z 10120150 f   Physics_AF.obj
 0001:0011f3b0       ?Translate@idAFConstraint_PyramidLimit@@UAEXABVidVec3@@@Z 101203b0 f   Physics_AF.obj
 0001:0011f3b0       ?Translate@idAFConstraint_Fixed@@UAEXABVidVec3@@@Z 101203b0 f   Physics_AF.obj
 0001:0011f3b0       ?Translate@idAFConstraint_ConeLimit@@UAEXABVidVec3@@@Z 101203b0 f   Physics_AF.obj
 0001:0011f3f0       ?DebugDraw@idAFConstraint_ConeLimit@@UAEXXZ 101203f0 f   Physics_AF.obj
 0001:0011fa90       ?Save@idAFConstraint_ConeLimit@@UBEXPAVidSaveGame@@@Z 10120a90 f   Physics_AF.obj
 0001:0011fb20       ?Restore@idAFConstraint_ConeLimit@@UAEXPAVidRestoreGame@@@Z 10120b20 f   Physics_AF.obj
 0001:0011fba0       ?Setup@idAFConstraint_PyramidLimit@@QAEXPAVidAFBody@@0ABVidVec3@@11MM1@Z 10120ba0 f   Physics_AF.obj
 0001:0011ffa0       ?Save@idAFConstraint_PyramidLimit@@UBEXPAVidSaveGame@@@Z 10120fa0 f   Physics_AF.obj
 0001:00120060       ?Restore@idAFConstraint_PyramidLimit@@UAEXPAVidRestoreGame@@@Z 10121060 f   Physics_AF.obj
 0001:00120110       ?Setup@idAFConstraint_Suspension@@QAEXPBDPAVidAFBody@@ABVidVec3@@ABVidMat3@@PAVidClipModel@@@Z 10121110 f   Physics_AF.obj
 0001:001203d0       ?SetSuspension@idAFConstraint_Suspension@@QAEXMMMMM@Z 101213d0 f   Physics_AF.obj
 0001:00120410       ?GetWheelOrigin@idAFConstraint_Suspension@@QBE?BVidVec3@@XZ 10121410 f   Physics_AF.obj
 0001:001204b0       ??4AFBodyPState_s@@QAEAAU0@ABU0@@Z 101214b0 f i Physics_AF.obj
 0001:00120550       ?Init@idAFBody@@QAEXXZ     10121550 f   Physics_AF.obj
 0001:00120a80       ?SetClipModel@idAFBody@@QAEXPAVidClipModel@@@Z 10121a80 f   Physics_AF.obj
 0001:00120ac0       ?SetFriction@idAFBody@@QAEXMMM@Z 10121ac0 f   Physics_AF.obj
 0001:00120b50       ??1idMatX@@QAE@XZ          10121b50 f i Physics_AF.obj
 0001:00120b80       ?SetFrictionDirection@idAFBody@@QAEXABVidVec3@@@Z 10121b80 f   Physics_AF.obj
 0001:00120c40       ?GetFrictionDirection@idAFBody@@QBE_NAAVidVec3@@@Z 10121c40 f   Physics_AF.obj
 0001:00120cd0       ?SetContactMotorDirection@idAFBody@@QAEXABVidVec3@@@Z 10121cd0 f   Physics_AF.obj
 0001:00120d90       ?GetContactMotorDirection@idAFBody@@QBE_NAAVidVec3@@@Z 10121d90 f   Physics_AF.obj
 0001:00120e20       ?GetPointVelocity@idAFBody@@QBE?AVidVec3@@ABV2@@Z 10121e20 f   Physics_AF.obj
 0001:00120ec0       ?AddForce@idAFBody@@QAEXABVidVec3@@0@Z 10121ec0 f   Physics_AF.obj
 0001:00120f70       ??DidMatX@@QBE?AVidVecX@@ABV1@@Z 10121f70 f i Physics_AF.obj
 0001:00121030       ?Save@idAFBody@@QAEXPAVidSaveGame@@@Z 10122030 f   Physics_AF.obj
 0001:00121160       ?Restore@idAFBody@@QAEXPAVidRestoreGame@@@Z 10122160 f   Physics_AF.obj
 0001:00121280       ?Transpose@idMatX@@QBE?AV1@XZ 10122280 f i Physics_AF.obj
 0001:00121350       ?TransposeMultiply@idMatX@@QBE?AV1@ABV1@@Z 10122350 f i Physics_AF.obj
 0001:00121440       ?SetSuspendSpeed@idPhysics_AF@@QAEXABVidVec2@@0@Z 10122440 f   Physics_AF.obj
 0001:00121470       ?SetSuspendTime@idPhysics_AF@@QAEXMM@Z 10122470 f   Physics_AF.obj
 0001:00121490       ?SetSuspendTolerance@idPhysics_AF@@QAEXMMM@Z 10122490 f   Physics_AF.obj
 0001:001214c0       ?SetTimeScaleRamp@idPhysics_AF@@QAEXMM@Z 101224c0 f   Physics_AF.obj
 0001:001214e0       ?SetJointFrictionDent@idPhysics_AF@@QAEXMMM@Z 101224e0 f   Physics_AF.obj
 0001:00121510       ?SetContactFrictionDent@idPhysics_AF@@QAEXMMM@Z 10122510 f   Physics_AF.obj
 0001:00121540       ?EnableImpact@idPhysics_AF@@QAEXXZ 10122540 f   Physics_AF.obj
 0001:00121550       ?SetClipModel@idPhysics_AF@@UAEXPAVidClipModel@@MH_N@Z 10122550 f   Physics_AF.obj
 0001:00121550       ?SetClipModel@idPhysics_Base@@UAEXPAVidClipModel@@MH_N@Z 10122550 f   Physics_Base.obj
 0001:00121560       ?GetTime@idPhysics_Monster@@UBEHXZ 10122560 f   Physics_Monster.obj
 0001:00121560       ?GetTime@idPhysics_RigidBody@@UBEHXZ 10122560 f   Physics_RigidBody.obj
 0001:00121560       ?GetTime@idPhysics_Player@@UBEHXZ 10122560 f   Physics_Player.obj
 0001:00121560       ?GetTime@idPhysics_AF@@UBEHXZ 10122560 f   Physics_AF.obj
 0001:00121570       ?SetDefaultFriction@idPhysics_AF@@QAEXMMM@Z 10122570 f   Physics_AF.obj
 0001:001215e0       ?IsAtRest@idPhysics_AF@@UBE_NXZ 101225e0 f   Physics_AF.obj
 0001:001215f0       ?GetRestStartTime@idPhysics_AF@@UBEHXZ 101225f0 f   Physics_AF.obj
 0001:00121600       ?IsPushable@idPhysics_AF@@UBE_NXZ 10122600 f   Physics_AF.obj
 0001:00121630       ?GetPushedLinearVelocity@idPhysics_AF@@UBEABVidVec3@@H@Z 10122630 f   Physics_AF.obj
 0001:00121640       ?GetPushedAngularVelocity@idPhysics_AF@@UBEABVidVec3@@H@Z 10122640 f   Physics_AF.obj
 0001:00121650       ?GetInverseWorldInertia@idAFBody@@QBE?AVidMat3@@XZ 10122650 f i Physics_AF.obj
 0001:00121910       ??0idAFConstraint@@QAE@XZ  10122910 f   Physics_AF.obj
 0001:00121c90       ??1idAFConstraint@@UAE@XZ  10122c90 f   Physics_AF.obj
 0001:00121f00       ?GetForce@idAFConstraint@@UAEXPAVidAFBody@@AAVidVec6@@@Z 10122f00 f   Physics_AF.obj
 0001:00122020       ?GetCenter@idAFConstraint@@UAEXAAVidVec3@@@Z 10123020 f   Physics_AF.obj
 0001:00122040       ?InitSize@idAFConstraint@@IAEXH@Z 10123040 f   Physics_AF.obj
 0001:00122310       ?InitOffset@idAFConstraint_Fixed@@IAEXXZ 10123310 f   Physics_AF.obj
 0001:00122640       ?SetBody1@idAFConstraint_Fixed@@UAEXPAVidAFBody@@@Z 10123640 f   Physics_AF.obj
 0001:00122670       ?SetBody2@idAFConstraint_Fixed@@UAEXPAVidAFBody@@@Z 10123670 f   Physics_AF.obj
 0001:001226a0       ?Rotate@idAFConstraint_Fixed@@UAEXABVidRotation@@@Z 101236a0 f   Physics_AF.obj
 0001:00122930       ?GetCenter@idAFConstraint_Fixed@@UAEXAAVidVec3@@@Z 10123930 f   Physics_AF.obj
 0001:00122950       ?SetAnchor@idAFConstraint_BallAndSocketJoint@@QAEXABVidVec3@@@Z 10123950 f   Physics_AF.obj
 0001:00122b90       ?Translate@idAFConstraint_BallAndSocketJoint@@UAEXABVidVec3@@@Z 10123b90 f   Physics_AF.obj
 0001:00122c00       ?Rotate@idAFConstraint_BallAndSocketJoint@@UAEXABVidRotation@@@Z 10123c00 f   Physics_AF.obj
 0001:00122d30       ?DebugDraw@idAFConstraint_BallAndSocketJoint@@UAEXXZ 10123d30 f   Physics_AF.obj
 0001:00122f70       ??0idAFConstraint_BallAndSocketJointFriction@@QAE@XZ 10123f70 f   Physics_AF.obj
 0001:00122ff0       ??1idAFConstraint_UniversalJoint@@UAE@XZ 10123ff0 f   Physics_AF.obj
 0001:00123070       ?SetAnchor@idAFConstraint_UniversalJoint@@QAEXABVidVec3@@@Z 10124070 f   Physics_AF.obj
 0001:001232b0       ?SetShafts@idAFConstraint_UniversalJoint@@QAEXABVidVec3@@0@Z 101242b0 f   Physics_AF.obj
 0001:00123b10       ?GetForce@idAFConstraint_Hinge@@UAEXPAVidAFBody@@AAVidVec6@@@Z 10124b10 f   Physics_AF.obj
 0001:00123b10       ?GetForce@idAFConstraint_UniversalJoint@@UAEXPAVidAFBody@@AAVidVec6@@@Z 10124b10 f   Physics_AF.obj
 0001:00123b10       ?GetForce@idAFConstraint_BallAndSocketJoint@@UAEXPAVidAFBody@@AAVidVec6@@@Z 10124b10 f   Physics_AF.obj
 0001:00123b20       ?Rotate@idAFConstraint_UniversalJoint@@UAEXABVidRotation@@@Z 10124b20 f   Physics_AF.obj
 0001:00123d50       ?GetCenter@idAFConstraint_UniversalJoint@@UAEXAAVidVec3@@@Z 10124d50 f   Physics_AF.obj
 0001:00123d50       ?GetCenter@idAFConstraint_Hinge@@UAEXAAVidVec3@@@Z 10124d50 f   Physics_AF.obj
 0001:00123d50       ?GetCenter@idAFConstraint_BallAndSocketJoint@@UAEXAAVidVec3@@@Z 10124d50 f   Physics_AF.obj
 0001:00123e10       ?DebugDraw@idAFConstraint_UniversalJoint@@UAEXXZ 10124e10 f   Physics_AF.obj
 0001:00124730       ??0idAFConstraint_UniversalJointFriction@@QAE@XZ 10125730 f   Physics_AF.obj
 0001:001247b0       ??1idAFConstraint_Hinge@@UAE@XZ 101257b0 f   Physics_AF.obj
 0001:00124830       ?SetAnchor@idAFConstraint_Hinge@@QAEXABVidVec3@@@Z 10125830 f   Physics_AF.obj
 0001:00124a40       ??HidVecX@@QBE?AV0@ABV0@@Z 10125a40 f i Physics_AF.obj
 0001:00124b10       ?GetAnchor@idAFConstraint_UniversalJoint@@QBE?AVidVec3@@XZ 10125b10 f   Physics_AF.obj
 0001:00124b10       ?GetAnchor@idAFConstraint_BallAndSocketJoint@@QBE?AVidVec3@@XZ 10125b10 f   Physics_AF.obj
 0001:00124b10       ?GetAnchor@idAFConstraint_Hinge@@QBE?AVidVec3@@XZ 10125b10 f   Physics_AF.obj
 0001:00124be0       ?SetAxis@idAFConstraint_Hinge@@QAEXABVidVec3@@@Z 10125be0 f   Physics_AF.obj
 0001:00124e50       ??DidVecX@@QBE?AV0@M@Z     10125e50 f i Physics_AF.obj
 0001:00124f20       ??D@YA?AVidVecX@@MV0@@Z    10125f20 f i Physics_AF.obj
 0001:00124fb0       ?GetAngle@idAFConstraint_Hinge@@QBEMXZ 10125fb0 f   Physics_AF.obj
 0001:00125360       ?Rotate@idAFConstraint_Hinge@@UAEXABVidRotation@@@Z 10126360 f   Physics_AF.obj
 0001:001254f0       ?DebugDraw@idAFConstraint_Hinge@@UAEXXZ 101264f0 f   Physics_AF.obj
 0001:00125a10       ??0idAFConstraint_HingeFriction@@QAE@XZ 10126a10 f   Physics_AF.obj
 0001:00125a90       ??0idAFConstraint_HingeSteering@@QAE@XZ 10126a90 f   Physics_AF.obj
 0001:00125b20       ?SetAxis@idAFConstraint_Slider@@QAEXABVidVec3@@@Z 10126b20 f   Physics_AF.obj
 0001:00125cc0       ?Rotate@idAFConstraint_Spring@@UAEXABVidRotation@@@Z 10126cc0 f   Physics_AF.obj
 0001:00125cc0       ?Rotate@idAFConstraint_Slider@@UAEXABVidRotation@@@Z 10126cc0 f   Physics_AF.obj
 0001:00125db0       ??0idAFConstraint_ContactFriction@@QAE@XZ 10126db0 f   Physics_AF.obj
 0001:00125e30       ??0idAFConstraint_ConeLimit@@QAE@XZ 10126e30 f   Physics_AF.obj
 0001:00125ea0       ?Rotate@idAFConstraint_ConeLimit@@UAEXABVidRotation@@@Z 10126ea0 f   Physics_AF.obj
 0001:00126010       ?Rotate@idAFConstraint_PyramidLimit@@UAEXABVidRotation@@@Z 10127010 f   Physics_AF.obj
 0001:00126290       ?DebugDraw@idAFConstraint_PyramidLimit@@UAEXXZ 10127290 f   Physics_AF.obj
 0001:00126ba0       ??0idAFConstraint_Suspension@@QAE@XZ 10127ba0 f   Physics_AF.obj
 0001:00126d00       ?DebugDraw@idAFConstraint_Suspension@@UAEXXZ 10127d00 f   Physics_AF.obj
 0001:00127210       ?SetDensity@idAFBody@@QAEXMABVidMat3@@@Z 10128210 f   Physics_AF.obj
 0001:00127780       ??DidMatX@@QBE?AV0@ABV0@@Z 10128780 f i Physics_AF.obj
 0001:00127870       ?Factor@idAFTree@@QBEXXZ   10128870 f   Physics_AF.obj
 0001:001280e0       ?Solve@idAFTree@@QBEXH@Z   101290e0 f   Physics_AF.obj
 0001:001285f0       ?Response@idAFTree@@QBEXPBVidAFConstraint@@HH@Z 101295f0 f   Physics_AF.obj
 0001:00128c00       ?CalculateForces@idAFTree@@QBEXM@Z 10129c00 f   Physics_AF.obj
 0001:001291f0       ?SetMaxSubTreeAuxiliaryIndex@idAFTree@@QAEXXZ 1012a1f0 f   Physics_AF.obj
 0001:00129250       ?InverseFast@idMatX@@QBE?AV1@XZ 1012a250 f i Physics_AF.obj
 0001:001293d0       ?EvaluateBodies@idPhysics_AF@@AAEXM@Z 1012a3d0 f   Physics_AF.obj
 0001:0012a780       ?ApplyFriction@idPhysics_AF@@AAEXMM@Z 1012b780 f   Physics_AF.obj
 0001:0012a980       ?AuxiliaryForces@idPhysics_AF@@AAEXM@Z 1012b980 f   Physics_AF.obj
 0001:0012b8e0       ?VerifyContactConstraints@idPhysics_AF@@AAEXXZ 1012c8e0 f   Physics_AF.obj
 0001:0012baa0       ?Evolve@idPhysics_AF@@AAEXM@Z 1012caa0 f   Physics_AF.obj
 0001:0012c5d0       ?CollisionImpulse@idPhysics_AF@@AAE_NMPAVidAFBody@@AAUtrace_s@@@Z 1012d5d0 f   Physics_AF.obj
 0001:0012cd80       ?SetupCollisionForBody@idPhysics_AF@@ABEPAVidEntity@@PAVidAFBody@@@Z 1012dd80 f   Physics_AF.obj
 0001:0012ce80       ?ClearExternalForce@idPhysics_AF@@AAEXXZ 1012de80 f   Physics_AF.obj
 0001:0012ced0       ?AddGravity@idPhysics_AF@@AAEXXZ 1012ded0 f   Physics_AF.obj
 0001:0012cf60       ?UpdateClipModels@idPhysics_AF@@QAEXXZ 1012df60 f   Physics_AF.obj
 0001:0012cfb0       ?TestIfAtRest@idPhysics_AF@@AAE_NM@Z 1012dfb0 f   Physics_AF.obj
 0001:0012d4f0       ?Rest@idPhysics_AF@@AAEXXZ 1012e4f0 f   Physics_AF.obj
 0001:0012d560       ?Activate@idPhysics_AF@@UAEXXZ 1012e560 f   Physics_AF.obj
 0001:0012d5a0       ?PutToRest@idPhysics_AF@@UAEXXZ 1012e5a0 f   Physics_AF.obj
 0001:0012d5b0       ?AddPushVelocity@idPhysics_AF@@AAEXABVidVec6@@@Z 1012e5b0 f   Physics_AF.obj
 0001:0012d680       ?GetClipModel@idPhysics_AF@@UBEPAVidClipModel@@H@Z 1012e680 f   Physics_AF.obj
 0001:0012d6a0       ?GetNumBodies@idPhysics_AF@@QBEHXZ 1012e6a0 f   Physics_AF.obj
 0001:0012d6a0       ?GetNumClipModels@idPhysics_AF@@UBEHXZ 1012e6a0 f   Physics_AF.obj
 0001:0012d6b0       ?SetMass@idPhysics_AF@@UAEXMH@Z 1012e6b0 f   Physics_AF.obj
 0001:0012d6e0       ?GetMass@idPhysics_AF@@UBEMH@Z 1012e6e0 f   Physics_AF.obj
 0001:0012d710       ?SetContents@idPhysics_AF@@UAEXHH@Z 1012e710 f   Physics_AF.obj
 0001:0012d760       ?GetContents@idPhysics_AF@@UBEHH@Z 1012e760 f   Physics_AF.obj
 0001:0012d7b0       ?Save@idPhysics_AF@@QBEXPAVidSaveGame@@@Z 1012e7b0 f   Physics_AF.obj
 0001:0012db20       ?ForceBodyId@idPhysics_AF@@QAEXPAVidAFBody@@H@Z 1012eb20 f   Physics_AF.obj
 0001:0012db90       ?GetBodyId@idPhysics_AF@@QBEHPAVidAFBody@@@Z 1012eb90 f   Physics_AF.obj
 0001:0012dbe0       ?GetBodyId@idPhysics_AF@@QBEHPBD@Z 1012ebe0 f   Physics_AF.obj
 0001:0012dc30       ?GetNumConstraints@idPhysics_AF@@QBEHXZ 1012ec30 f   Physics_AF.obj
 0001:0012dc40       ?GetBody@idPhysics_AF@@QBEPAVidAFBody@@PBD@Z 1012ec40 f   Physics_AF.obj
 0001:0012dc90       ?GetBody@idPhysics_AF@@QBEPAVidAFBody@@H@Z 1012ec90 f   Physics_AF.obj
 0001:0012dcc0       ?GetConstraint@idPhysics_AF@@QBEPAVidAFConstraint@@PBD@Z 1012ecc0 f   Physics_AF.obj
 0001:0012dd10       ?GetConstraint@idPhysics_AF@@QBEPAVidAFConstraint@@H@Z 1012ed10 f   Physics_AF.obj
 0001:0012dd40       ?DeleteConstraint@idPhysics_AF@@QAEXH@Z 1012ed40 f   Physics_AF.obj
 0001:0012ddb0       ?GetBodyContactConstraints@idPhysics_AF@@QBEHHQAPAVidAFConstraint_Contact@@H@Z 1012edb0 f   Physics_AF.obj
 0001:0012de20       ?GetImpactInfo@idPhysics_AF@@UBEXHABVidVec3@@PAUimpactInfo_s@@@Z 1012ee20 f   Physics_AF.obj
 0001:0012e240       ?ApplyImpulse@idPhysics_AF@@UAEXHABVidVec3@@0@Z 1012f240 f   Physics_AF.obj
 0001:0012e6f0       ?AddForce@idPhysics_AF@@UAEXHABVidVec3@@0@Z 1012f6f0 f   Physics_AF.obj
 0001:0012e7e0       ?SaveState@idPhysics_AF@@UAEXXZ 1012f7e0 f   Physics_AF.obj
 0001:0012e830       ?RestoreState@idPhysics_AF@@UAEXXZ 1012f830 f   Physics_AF.obj
 0001:0012e950       ?SetOrigin@idPhysics_AF@@UAEXABVidVec3@@H@Z 1012f950 f   Physics_AF.obj
 0001:0012ea80       ?SetAxis@idPhysics_AF@@UAEXABVidMat3@@H@Z 1012fa80 f   Physics_AF.obj
 0001:0012eee0       ?Translate@idPhysics_AF@@UAEXABVidVec3@@H@Z 1012fee0 f   Physics_AF.obj
 0001:0012efa0       ?Rotate@idPhysics_AF@@UAEXABVidRotation@@H@Z 1012ffa0 f   Physics_AF.obj
 0001:0012f230       ?GetOrigin@idPhysics_AF@@UBEABVidVec3@@H@Z 10130230 f   Physics_AF.obj
 0001:0012f260       ?GetAxis@idPhysics_AF@@UBEABVidMat3@@H@Z 10130260 f   Physics_AF.obj
 0001:0012f290       ?SetLinearVelocity@idPhysics_AF@@UAEXABVidVec3@@H@Z 10130290 f   Physics_AF.obj
 0001:0012f2d0       ?SetAngularVelocity@idPhysics_AF@@UAEXABVidVec3@@H@Z 101302d0 f   Physics_AF.obj
 0001:0012f310       ?GetLinearVelocity@idPhysics_AF@@UBEABVidVec3@@H@Z 10130310 f   Physics_AF.obj
 0001:0012f340       ?GetAngularVelocity@idPhysics_AF@@UBEABVidVec3@@H@Z 10130340 f   Physics_AF.obj
 0001:0012f370       ?ClipTranslation@idPhysics_AF@@UBEXAAUtrace_s@@ABVidVec3@@PBVidClipModel@@@Z 10130370 f   Physics_AF.obj
 0001:0012f570       ?ClipRotation@idPhysics_AF@@UBEXAAUtrace_s@@ABVidRotation@@PBVidClipModel@@@Z 10130570 f   Physics_AF.obj
 0001:0012f980       ?ClipContents@idPhysics_AF@@UBEHPBVidClipModel@@@Z 10130980 f   Physics_AF.obj
 0001:0012fa20       ?DisableClip@idPhysics_AF@@UAEXXZ 10130a20 f   Physics_AF.obj
 0001:0012fa40       ?EnableClip@idPhysics_AF@@UAEXXZ 10130a40 f   Physics_AF.obj
 0001:0012fa60       ?UnlinkClip@idPhysics_AF@@UAEXXZ 10130a60 f   Physics_AF.obj
 0001:0012fa90       ?LinkClip@idPhysics_AF@@UAEXXZ 10130a90 f   Physics_AF.obj
 0001:0012faa0       ?SetPushed@idPhysics_AF@@UAEXH@Z 10130aa0 f   Physics_AF.obj
 0001:0012fd80       ?WriteToSnapshot@idPhysics_AF@@UBEXAAVidBitMsgDelta@@@Z 10130d80 f   Physics_AF.obj
 0001:001302d0       ?ReadFromSnapshot@idPhysics_AF@@UAEXABVidBitMsgDelta@@@Z 101312d0 f   Physics_AF.obj
 0001:00130760       ??0idAFConstraint_Fixed@@QAE@ABVidStr@@PAVidAFBody@@1@Z 10131760 f   Physics_AF.obj
 0001:00130810       ?Evaluate@idAFConstraint_Fixed@@MAEXM@Z 10131810 f   Physics_AF.obj
 0001:00131270       ??0idAFConstraint_BallAndSocketJoint@@QAE@ABVidStr@@PAVidAFBody@@1@Z 10132270 f   Physics_AF.obj
 0001:00131330       ??_EidAFConstraint_BallAndSocketJoint@@UAEPAXI@Z 10132330 f i Physics_AF.obj
 0001:00131330       ??_GidAFConstraint_BallAndSocketJoint@@UAEPAXI@Z 10132330 f i Physics_AF.obj
 0001:001313c0       ?SetConeLimit@idAFConstraint_BallAndSocketJoint@@QAEXABVidVec3@@M0@Z 101323c0 f   Physics_AF.obj
 0001:001316b0       ?SetPyramidLimit@idAFConstraint_BallAndSocketJoint@@QAEXABVidVec3@@0MM0@Z 101326b0 f   Physics_AF.obj
 0001:00131a60       ?GetFriction@idAFConstraint_BallAndSocketJoint@@QBEMXZ 10132a60 f   Physics_AF.obj
 0001:00131b10       ??0idAFConstraint_UniversalJoint@@QAE@ABVidStr@@PAVidAFBody@@1@Z 10132b10 f   Physics_AF.obj
 0001:00131bd0       ??_GidAFConstraint_UniversalJoint@@UAEPAXI@Z 10132bd0 f i Physics_AF.obj
 0001:00131bd0       ??_EidAFConstraint_UniversalJoint@@UAEPAXI@Z 10132bd0 f i Physics_AF.obj
 0001:00131bf0       ?SetConeLimit@idAFConstraint_UniversalJoint@@QAEXABVidVec3@@M@Z 10132bf0 f   Physics_AF.obj
 0001:00131db0       ?SetPyramidLimit@idAFConstraint_UniversalJoint@@QAEXABVidVec3@@0MM@Z 10132db0 f   Physics_AF.obj
 0001:00132020       ?GetFriction@idAFConstraint_UniversalJoint@@QBEMXZ 10133020 f   Physics_AF.obj
 0001:001320d0       ??0idAFConstraint_Hinge@@QAE@ABVidStr@@PAVidAFBody@@1@Z 101330d0 f   Physics_AF.obj
 0001:001323f0       ??_EidAFConstraint_Hinge@@UAEPAXI@Z 101333f0 f i Physics_AF.obj
 0001:001323f0       ??_GidAFConstraint_Hinge@@UAEPAXI@Z 101333f0 f i Physics_AF.obj
 0001:00132410       ?SetLimit@idAFConstraint_Hinge@@QAEXABVidVec3@@M0@Z 10133410 f   Physics_AF.obj
 0001:001326e0       ?GetFriction@idAFConstraint_Hinge@@QBEMXZ 101336e0 f   Physics_AF.obj
 0001:00132790       ?SetSteerAngle@idAFConstraint_Hinge@@QAEXM@Z 10133790 f   Physics_AF.obj
 0001:00132830       ?Restore@idAFConstraint_Hinge@@UAEXPAVidRestoreGame@@@Z 10133830 f   Physics_AF.obj
 0001:00132a20       ??0idAFConstraint_Slider@@QAE@ABVidStr@@PAVidAFBody@@1@Z 10133a20 f   Physics_AF.obj
 0001:00132dc0       ?Evaluate@idAFConstraint_Slider@@MAEXM@Z 10133dc0 f   Physics_AF.obj
 0001:00133de0       ??0idAFConstraint_Spring@@QAE@ABVidStr@@PAVidAFBody@@1@Z 10134de0 f   Physics_AF.obj
 0001:00133eb0       ?Evaluate@idAFConstraint_Spring@@MAEXM@Z 10134eb0 f   Physics_AF.obj
 0001:00134750       ??_GidAFConstraint_Contact@@UAEPAXI@Z 10135750 f i Physics_AF.obj
 0001:00134750       ??_EidAFConstraint_Contact@@UAEPAXI@Z 10135750 f i Physics_AF.obj
 0001:001347c0       ?Setup@idAFConstraint_Contact@@QAEXPAVidAFBody@@0AAUcontactInfo_t@@@Z 101357c0 f   Physics_AF.obj
 0001:00134c00       ??_GidAFConstraint_BallAndSocketJointFriction@@UAEPAXI@Z 10135c00 f i Physics_AF.obj
 0001:00134c00       ??_EidAFConstraint_HingeSteering@@UAEPAXI@Z 10135c00 f i Physics_AF.obj
 0001:00134c00       ??_EidAFConstraint_ContactFriction@@UAEPAXI@Z 10135c00 f i Physics_AF.obj
 0001:00134c00       ??_EidAFConstraint_HingeFriction@@UAEPAXI@Z 10135c00 f i Physics_AF.obj
 0001:00134c00       ??_EidAFConstraint_Slider@@UAEPAXI@Z 10135c00 f i Physics_AF.obj
 0001:00134c00       ??_EidAFConstraint_Spring@@UAEPAXI@Z 10135c00 f i Physics_AF.obj
 0001:00134c00       ??_GidAFConstraint_Slider@@UAEPAXI@Z 10135c00 f i Physics_AF.obj
 0001:00134c00       ??_EidAFConstraint_BallAndSocketJointFriction@@UAEPAXI@Z 10135c00 f i Physics_AF.obj
 0001:00134c00       ??_GidAFConstraint_ConeLimit@@UAEPAXI@Z 10135c00 f i Physics_AF.obj
 0001:00134c00       ??_GidAFConstraint_PyramidLimit@@UAEPAXI@Z 10135c00 f i Physics_AF.obj
 0001:00134c00       ??_GidAFConstraint_UniversalJointFriction@@UAEPAXI@Z 10135c00 f i Physics_AF.obj
 0001:00134c00       ??_GidAFConstraint@@UAEPAXI@Z 10135c00 f i Physics_AF.obj
 0001:00134c00       ??_EidAFConstraint_UniversalJointFriction@@UAEPAXI@Z 10135c00 f i Physics_AF.obj
 0001:00134c00       ??_GidAFConstraint_Fixed@@UAEPAXI@Z 10135c00 f i Physics_AF.obj
 0001:00134c00       ??_GidAFConstraint_HingeSteering@@UAEPAXI@Z 10135c00 f i Physics_AF.obj
 0001:00134c00       ??_GidAFConstraint_ContactFriction@@UAEPAXI@Z 10135c00 f i Physics_AF.obj
 0001:00134c00       ??_GidAFConstraint_Spring@@UAEPAXI@Z 10135c00 f i Physics_AF.obj
 0001:00134c00       ??_EidAFConstraint_PyramidLimit@@UAEPAXI@Z 10135c00 f i Physics_AF.obj
 0001:00134c00       ??_EidAFConstraint@@UAEPAXI@Z 10135c00 f i Physics_AF.obj
 0001:00134c00       ??_GidAFConstraint_Suspension@@UAEPAXI@Z 10135c00 f i Physics_AF.obj
 0001:00134c00       ??_GidAFConstraint_HingeFriction@@UAEPAXI@Z 10135c00 f i Physics_AF.obj
 0001:00134c00       ??_EidAFConstraint_Suspension@@UAEPAXI@Z 10135c00 f i Physics_AF.obj
 0001:00134c00       ??_EidAFConstraint_Fixed@@UAEPAXI@Z 10135c00 f i Physics_AF.obj
 0001:00134c00       ??_EidAFConstraint_ConeLimit@@UAEPAXI@Z 10135c00 f i Physics_AF.obj
 0001:00134c20       ?Evaluate@idAFConstraint_Suspension@@MAEXM@Z 10135c20 f   Physics_AF.obj
 0001:00135e20       ??0idAFBody@@QAE@XZ        10136e20 f   Physics_AF.obj
 0001:00135f40       ??0idAFBody@@QAE@ABVidStr@@PAVidClipModel@@M@Z 10136f40 f   Physics_AF.obj
 0001:00136110       ??1idAFBody@@QAE@XZ        10137110 f   Physics_AF.obj
 0001:00136350       ?SortBodies_r@idAFTree@@QAEXAAV?$idList@PAVidAFBody@@@@PAVidAFBody@@@Z 10137350 f   Physics_AF.obj
 0001:001364d0       ?SortBodies@idAFTree@@QAEXXZ 101374d0 f   Physics_AF.obj
 0001:00136630       ?AddFrameConstraints@idPhysics_AF@@AAEXXZ 10137630 f   Physics_AF.obj
 0001:001367f0       ?RemoveFrameConstraints@idPhysics_AF@@AAEXXZ 101377f0 f   Physics_AF.obj
 0001:001368e0       ?EvaluateContacts@idPhysics_AF@@UAE_NXZ 101378e0 f   Physics_AF.obj
 0001:001371d0       ?SetupContactConstraints@idPhysics_AF@@AAEXXZ 101381d0 f   Physics_AF.obj
 0001:001374b0       ?GetBounds@idPhysics_AF@@UBEABVidBounds@@H@Z 101384b0 f   Physics_AF.obj
 0001:00137890       ?GetAbsBounds@idPhysics_AF@@UBEABVidBounds@@H@Z 10138890 f   Physics_AF.obj
 0001:00137a10       ?DebugDraw@idPhysics_AF@@AAEXXZ 10138a10 f   Physics_AF.obj
 0001:001382e0       ??0idPhysics_AF@@QAE@XZ    101392e0 f   Physics_AF.obj
 0001:00138630       ?Restore@idPhysics_AF@@QAEXPAVidRestoreGame@@@Z 10139630 f   Physics_AF.obj
 0001:001389b0       ?AddBody@idPhysics_AF@@QAEHPAVidAFBody@@@Z 101399b0 f   Physics_AF.obj
 0001:00138bc0       ?AddConstraint@idPhysics_AF@@QAEXPAVidAFConstraint@@@Z 10139bc0 f   Physics_AF.obj
 0001:00138e10       ?AddFrameConstraint@idPhysics_AF@@QAEXPAVidAFConstraint@@@Z 10139e10 f   Physics_AF.obj
 0001:00138fa0       ?DeleteBody@idPhysics_AF@@QAEXH@Z 10139fa0 f   Physics_AF.obj
 0001:001390b0       ?DeleteConstraint@idPhysics_AF@@QAEXPBD@Z 1013a0b0 f   Physics_AF.obj
 0001:00139170       ?SetMaster@idPhysics_AF@@UAEXPAVidEntity@@_N@Z 1013a170 f   Physics_AF.obj
 0001:001393e0       ?CreateInstance@idPhysics_AF@@SAPAVidClass@@XZ 1013a3e0 f   Physics_AF.obj
 0001:00139480       ?Add@idAFConstraint_BallAndSocketJointFriction@@QAE_NPAVidPhysics_AF@@M@Z 1013a480 f   Physics_AF.obj
 0001:00139760       ?Add@idAFConstraint_UniversalJointFriction@@QAE_NPAVidPhysics_AF@@M@Z 1013a760 f   Physics_AF.obj
 0001:00139c20       ?Add@idAFConstraint_HingeFriction@@QAE_NPAVidPhysics_AF@@M@Z 1013ac20 f   Physics_AF.obj
 0001:00139fe0       ?Add@idAFConstraint_HingeSteering@@QAE_NPAVidPhysics_AF@@M@Z 1013afe0 f   Physics_AF.obj
 0001:0013a2b0       ?Add@idAFConstraint_ContactFriction@@QAE_NPAVidPhysics_AF@@M@Z 1013b2b0 f   Physics_AF.obj
 0001:0013b1e0       ?Add@idAFConstraint_ConeLimit@@QAE_NPAVidPhysics_AF@@M@Z 1013c1e0 f   Physics_AF.obj
 0001:0013bac0       ?Add@idAFConstraint_PyramidLimit@@QAE_NPAVidPhysics_AF@@M@Z 1013cac0 f   Physics_AF.obj
 0001:0013c6d0       ?EvaluateConstraints@idPhysics_AF@@AAEXM@Z 1013d6d0 f   Physics_AF.obj
 0001:0013c9c0       ?CheckForCollisions@idPhysics_AF@@AAEXM@Z 1013d9c0 f   Physics_AF.obj
 0001:0013cd60       ?Evaluate@idAFConstraint_BallAndSocketJoint@@MAEXM@Z 1013dd60 f   Physics_AF.obj
 0001:0013d440       ?ApplyFriction@idAFConstraint_BallAndSocketJoint@@MAEXM@Z 1013e440 f   Physics_AF.obj
 0001:0013d6a0       ?Evaluate@idAFConstraint_UniversalJoint@@MAEXM@Z 1013e6a0 f   Physics_AF.obj
 0001:0013e540       ?ApplyFriction@idAFConstraint_UniversalJoint@@MAEXM@Z 1013f540 f   Physics_AF.obj
 0001:0013e7a0       ?Evaluate@idAFConstraint_Hinge@@MAEXM@Z 1013f7a0 f   Physics_AF.obj
 0001:0013f4b0       ?ApplyFriction@idAFConstraint_Hinge@@MAEXM@Z 101404b0 f   Physics_AF.obj
 0001:0013f710       ?ApplyFriction@idAFConstraint_Contact@@MAEXM@Z 10140710 f   Physics_AF.obj
 0001:0013fd60       ??1idPhysics_AF@@UAE@XZ    10140d60 f   Physics_AF.obj
 0001:001400a0       ?BuildTrees@idPhysics_AF@@AAEXXZ 101410a0 f   Physics_AF.obj
 0001:00141520       ?Evaluate@idPhysics_AF@@UAE_NHH@Z 10142520 f   Physics_AF.obj
 0001:00141f40       ??_EidPhysics_AF@@UAEPAXI@Z 10142f40 f i Physics_AF.obj
 0001:00141f40       ??_GidPhysics_AF@@UAEPAXI@Z 10142f40 f i Physics_AF.obj
 0001:00141f60       ?GetType@idPhysics_Base@@UBEPAVidTypeInfo@@XZ 10142f60 f   Physics_Base.obj
 0001:00141f70       ?GetMass@idPhysics_Parametric@@UBEMH@Z 10142f70 f   Physics_Parametric.obj
 0001:00141f70       ?GetMass@idPhysics_StaticMulti@@UBEMH@Z 10142f70 f   Physics_StaticMulti.obj
 0001:00141f70       ?GetMass@idPhysics_Base@@UBEMH@Z 10142f70 f   Physics_Base.obj
 0001:00141f70       ?GetMass@idPhysics_Static@@UBEMH@Z 10142f70 f   Physics_Static.obj
 0001:00141f80       ?SetClipMask@idPhysics_Base@@UAEXHH@Z 10142f80 f   Physics_Base.obj
 0001:00141f90       ?GetClipMask@idPhysics_Base@@UBEHH@Z 10142f90 f   Physics_Base.obj
 0001:00141fa0       ?GetAbsBounds@idPhysics_Base@@UBEABVidBounds@@H@Z 10142fa0 f   Physics_Base.obj
 0001:00141fa0       ?GetBounds@idPhysics_Base@@UBEABVidBounds@@H@Z 10142fa0 f   Physics_Base.obj
 0001:00141fb0       ?GetImpactInfo@idPhysics_Base@@UBEXHABVidVec3@@PAUimpactInfo_s@@@Z 10142fb0 f   Physics_Base.obj
 0001:00141fb0       ?GetImpactInfo@idPhysics_StaticMulti@@UBEXHABVidVec3@@PAUimpactInfo_s@@@Z 10142fb0 f   Physics_StaticMulti.obj
 0001:00141fb0       ?GetImpactInfo@idPhysics_Static@@UBEXHABVidVec3@@PAUimpactInfo_s@@@Z 10142fb0 f   Physics_Static.obj
 0001:00141fd0       ?GetAxis@idPhysics_Base@@UBEABVidMat3@@H@Z 10142fd0 f   Physics_Base.obj
 0001:00141fe0       ?GetGravity@idPhysics_Base@@UBEABVidVec3@@XZ 10142fe0 f   Physics_Base.obj
 0001:00141ff0       ?GetGravityNormal@idPhysics_Base@@UBEABVidVec3@@XZ 10142ff0 f   Physics_Base.obj
 0001:00142000       ?ClipRotation@idPhysics_Base@@UBEXAAUtrace_s@@ABVidRotation@@PBVidClipModel@@@Z 10143000 f   Physics_Base.obj
 0001:00142000       ?ClipTranslation@idPhysics_Base@@UBEXAAUtrace_s@@ABVidVec3@@PBVidClipModel@@@Z 10143000 f   Physics_Base.obj
 0001:00142020       ?GetBlockingEntity@idPhysics_Base@@UBEPAVidEntity@@XZ 10143020 f   Physics_Base.obj
 0001:00142020       ?GetNumContacts@idPhysics_Static@@UBEHXZ 10143020 f   Physics_Static.obj
 0001:00142020       ?GetAngularEndTime@idPhysics_Static@@UBEHXZ 10143020 f   Physics_Static.obj
 0001:00142020       ?GetTime@idPhysics_Static@@UBEHXZ 10143020 f   Physics_Static.obj
 0001:00142020       ?GetLinearEndTime@idPhysics_Base@@UBEHXZ 10143020 f   Physics_Base.obj
 0001:00142020       ?GetTime@idPhysics_Base@@UBEHXZ 10143020 f   Physics_Base.obj
 0001:00142020       ?GetAngularEndTime@idPhysics_StaticMulti@@UBEHXZ 10143020 f   Physics_StaticMulti.obj
 0001:00142020       ?GetTime@idPhysics_StaticMulti@@UBEHXZ 10143020 f   Physics_StaticMulti.obj
 0001:00142020       ?GetBlockingInfo@idPhysics_Base@@UBEPBUtrace_s@@XZ 10143020 f   Physics_Base.obj
 0001:00142020       ?GetNumClipModels@idPhysics_Base@@UBEHXZ 10143020 f   Physics_Base.obj
 0001:00142020       ?GetAnimator@idEntity@@UAEPAVidAnimator@@XZ 10143020 f   Entity.obj
 0001:00142020       ?GetLinearEndTime@idPhysics_StaticMulti@@UBEHXZ 10143020 f   Physics_StaticMulti.obj
 0001:00142020       ?GetRestStartTime@idPhysics_Base@@UBEHXZ 10143020 f   Physics_Base.obj
 0001:00142020       ?GetBlockingEntity@idPhysics_Static@@UBEPAVidEntity@@XZ 10143020 f   Physics_Static.obj
 0001:00142020       ?GetAngularEndTime@idPhysics_Base@@UBEHXZ 10143020 f   Physics_Base.obj
 0001:00142020       ?GetLinearEndTime@idPhysics_Static@@UBEHXZ 10143020 f   Physics_Static.obj
 0001:00142020       ?GetNumContacts@idPhysics_StaticMulti@@UBEHXZ 10143020 f   Physics_StaticMulti.obj
 0001:00142020       ?GetBlockingInfo@idPhysics_StaticMulti@@UBEPBUtrace_s@@XZ 10143020 f   Physics_StaticMulti.obj
 0001:00142020       ?GetRestStartTime@idPhysics_Static@@UBEHXZ 10143020 f   Physics_Static.obj
 0001:00142020       ?GetBlockingEntity@idPhysics_StaticMulti@@UBEPAVidEntity@@XZ 10143020 f   Physics_StaticMulti.obj
 0001:00142020       ?GetBlockingInfo@idPhysics_Static@@UBEPBUtrace_s@@XZ 10143020 f   Physics_Static.obj
 0001:00142020       ?GetRestStartTime@idPhysics_StaticMulti@@UBEHXZ 10143020 f   Physics_StaticMulti.obj
 0001:00142030       ?Save@idPhysics_Base@@QBEXPAVidSaveGame@@@Z 10143030 f   Physics_Base.obj
 0001:001420d0       ?SetGravity@idPhysics_Base@@UAEXABVidVec3@@@Z 101430d0 f   Physics_Base.obj
 0001:001421a0       ?Size@idTypeDef@@QBEHXZ    101431a0 f   Script_Program.obj
 0001:001421a0       ?GetNumContacts@idPhysics_Base@@UBEHXZ 101431a0 f   Physics_Base.obj
 0001:001421b0       ?GetContact@idPhysics_Base@@UBEABUcontactInfo_t@@H@Z 101431b0 f   Physics_Base.obj
 0001:001421d0       ?RemoveContactEntity@idPhysics_Base@@UAEXPAVidEntity@@@Z 101431d0 f   Physics_Base.obj
 0001:00142280       ?HasGroundContacts@idPhysics_Base@@UBE_NXZ 10143280 f   Physics_Base.obj
 0001:00142310       ?IsGroundEntity@idPhysics_Base@@UBE_NH@Z 10143310 f   Physics_Base.obj
 0001:001423a0       ?IsGroundClipModel@idPhysics_Base@@UBE_NHH@Z 101433a0 f   Physics_Base.obj
 0001:00142440       ?AddContactEntitiesForContacts@idPhysics_Base@@IAEXXZ 10143440 f   Physics_Base.obj
 0001:00142490       ?ActivateContactEntities@idPhysics_Base@@IAEXXZ 10143490 f   Physics_Base.obj
 0001:00142510       ?IsOutsideWorld@idPhysics_Base@@IBE_NXZ 10143510 f   Physics_Base.obj
 0001:001425e0       ?DrawVelocity@idPhysics_Base@@IBEXHMM@Z 101435e0 f   Physics_Base.obj
 0001:00142da0       ?AddContactEntity@idPhysics_Base@@UAEXPAVidEntity@@@Z 10143da0 f   Physics_Base.obj
 0001:00142f90       ?Restore@idPhysics_Base@@QAEXPAVidRestoreGame@@@Z 10143f90 f   Physics_Base.obj
 0001:001431c0       ?ClearContacts@idPhysics_Base@@UAEXXZ 101441c0 f   Physics_Base.obj
 0001:00143220       ?AddGroundContacts@idPhysics_Base@@IAEXPBVidClipModel@@@Z 10144220 f   Physics_Base.obj
 0001:001434a0       ??0idPhysics_Base@@QAE@XZ  101444a0 f   Physics_Base.obj
 0001:00143520       ??1idPhysics_Base@@UAE@XZ  10144520 f   Physics_Base.obj
 0001:001435e0       ?CreateInstance@idPhysics_Base@@SAPAVidClass@@XZ 101445e0 f   Physics_Base.obj
 0001:00143680       ??_EidPhysics_Base@@UAEPAXI@Z 10144680 f i Physics_Base.obj
 0001:00143680       ??_GidPhysics_Base@@UAEPAXI@Z 10144680 f i Physics_Base.obj
 0001:001436a0       ?GetType@idPhysics_Monster@@UBEPAVidTypeInfo@@XZ 101446a0 f   Physics_Monster.obj
 0001:001436b0       ?Activate@idPhysics_Monster@@UAEXXZ 101446b0 f   Physics_Monster.obj
 0001:001436d0       ?Save@idPhysics_Monster@@QBEXPAVidSaveGame@@@Z 101446d0 f   Physics_Monster.obj
 0001:00143810       ?Restore@idPhysics_Monster@@QAEXPAVidRestoreGame@@@Z 10144810 f   Physics_Monster.obj
 0001:00143930       ?SetMaxStepHeight@idPhysics_Monster@@QAEXM@Z 10144930 f   Physics_Monster.obj
 0001:00143940       ?OnGround@idPhysics_Monster@@QBE_NXZ 10144940 f   Physics_Monster.obj
 0001:00143950       ?GetSlideMoveEntity@idPhysics_Monster@@QBEPAVidEntity@@XZ 10144950 f   Physics_Monster.obj
 0001:00143960       ?GetMoveResult@idPhysics_Monster@@QBE?AW4monsterMoveResult_t@@XZ 10144960 f   Physics_Monster.obj
 0001:00143970       ?ForceDeltaMove@idPhysics_Monster@@QAEX_N@Z 10144970 f   Physics_Monster.obj
 0001:00143980       ?UseFlyMove@idPhysics_Monster@@QAEX_N@Z 10144980 f   Physics_Monster.obj
 0001:00143990       ?UseVelocityMove@idPhysics_Monster@@QAEX_N@Z 10144990 f   Physics_Monster.obj
 0001:001439a0       ?DisableImpact@idPhysics_Monster@@QAEXXZ 101449a0 f   Physics_Monster.obj
 0001:001439b0       ?IsAtRest@idPhysics_Monster@@UBE_NXZ 101449b0 f   Physics_Monster.obj
 0001:001439c0       ?SetAxis@idPhysics_Monster@@UAEXABVidMat3@@H@Z 101449c0 f   Physics_Monster.obj
 0001:001439f0       ?GetLinearVelocity@idPhysics_Monster@@UBEABVidVec3@@H@Z 101449f0 f   Physics_Monster.obj
 0001:00143a00       ?GetPushedLinearVelocity@idPhysics_Monster@@UBEABVidVec3@@H@Z 10144a00 f   Physics_Monster.obj
 0001:00143a10       ?PutToRest@idPhysics_Monster@@UAEXXZ 10144a10 f   Physics_Monster.obj
 0001:00143a10       ?Rest@idPhysics_Monster@@AAEXXZ 10144a10 f   Physics_Monster.obj
 0001:00143a40       ?SetDelta@idPhysics_Monster@@QAEXABVidVec3@@@Z 10144a40 f   Physics_Monster.obj
 0001:00143ab0       ?GetImpactInfo@idPhysics_Monster@@UBEXHABVidVec3@@PAUimpactInfo_s@@@Z 10144ab0 f   Physics_Monster.obj
 0001:00143b00       ?ApplyImpulse@idPhysics_Monster@@UAEXHABVidVec3@@0@Z 10144b00 f   Physics_Monster.obj
 0001:00143b80       ?SaveState@idPhysics_Monster@@UAEXXZ 10144b80 f   Physics_Monster.obj
 0001:00143c30       ?RestoreState@idPhysics_Monster@@UAEXXZ 10144c30 f   Physics_Monster.obj
 0001:00143d10       ?SetOrigin@idPhysics_Monster@@UAEXABVidVec3@@H@Z 10144d10 f   Physics_Monster.obj
 0001:00143e30       ?Translate@idPhysics_Monster@@UAEXABVidVec3@@H@Z 10144e30 f   Physics_Monster.obj
 0001:00143eb0       ?Rotate@idPhysics_Monster@@UAEXABVidRotation@@H@Z 10144eb0 f   Physics_Monster.obj
 0001:00144180       ?SetLinearVelocity@idPhysics_Monster@@UAEXABVidVec3@@H@Z 10145180 f   Physics_Monster.obj
 0001:001441b0       ?SetPushed@idPhysics_Monster@@UAEXH@Z 101451b0 f   Physics_Monster.obj
 0001:00144260       ?SetMaster@idPhysics_Monster@@UAEXPAVidEntity@@_N@Z 10145260 f   Physics_Monster.obj
 0001:00144380       ?WriteToSnapshot@idPhysics_Monster@@UBEXAAVidBitMsgDelta@@@Z 10145380 f   Physics_Monster.obj
 0001:00144610       ?ReadFromSnapshot@idPhysics_Monster@@UAEXABVidBitMsgDelta@@@Z 10145610 f   Physics_Monster.obj
 0001:00144830       ?SlideMove@idPhysics_Monster@@AAE?AW4monsterMoveResult_t@@AAVidVec3@@0ABV3@@Z 10145830 f   Physics_Monster.obj
 0001:00144a40       ?StepMove@idPhysics_Monster@@AAE?AW4monsterMoveResult_t@@AAVidVec3@@0ABV3@@Z 10145a40 f   Physics_Monster.obj
 0001:00145050       ??0idPhysics_Monster@@QAE@XZ 10146050 f   Physics_Monster.obj
 0001:00145140       ?CreateInstance@idPhysics_Monster@@SAPAVidClass@@XZ 10146140 f   Physics_Monster.obj
 0001:001451e0       ?CheckGround@idPhysics_Monster@@AAEXAAUmonsterPState_s@@@Z 101461e0 f   Physics_Monster.obj
 0001:001454b0       ?Evaluate@idPhysics_Monster@@UAE_NHH@Z 101464b0 f   Physics_Monster.obj
 0001:00145ab0       ?GetType@idPhysics_Parametric@@UBEPAVidTypeInfo@@XZ 10146ab0 f   Physics_Parametric.obj
 0001:00145ac0       ?Activate@idPhysics_Parametric@@UAEXXZ 10146ac0 f   Physics_Parametric.obj
 0001:00145ae0       ?SetPusher@idPhysics_Parametric@@QAEXH@Z 10146ae0 f   Physics_Parametric.obj
 0001:00145b00       ?IsPusher@idPhysics_Parametric@@QBE_NXZ 10146b00 f   Physics_Parametric.obj
 0001:00145b10       ?GetSpline@idPhysics_Parametric@@QBEPAV?$idCurve_Spline@VidVec3@@@@XZ 10146b10 f   Physics_Parametric.obj
 0001:00145b20       ?UsingSplineAngles@idPhysics_Parametric@@QBE_NXZ 10146b20 f   Physics_Parametric.obj
 0001:00145b30       ?SetClipModel@idPhysics_Parametric@@UAEXPAVidClipModel@@MH_N@Z 10146b30 f   Physics_Parametric.obj
 0001:00145b90       ?GetClipModel@idPhysics_Parametric@@UBEPAVidClipModel@@H@Z 10146b90 f   Physics_Parametric.obj
 0001:00145ba0       ?GetNumClipModels@idPhysics_Parametric@@UBEHXZ 10146ba0 f   Physics_Parametric.obj
 0001:00145bb0       ?SetContents@idPhysics_Parametric@@UAEXHH@Z 10146bb0 f   Physics_Parametric.obj
 0001:00145bd0       ?GetContents@idPhysics_Parametric@@UBEHH@Z 10146bd0 f   Physics_Parametric.obj
 0001:00145bf0       ?GetBounds@idPhysics_Parametric@@UBEABVidBounds@@H@Z 10146bf0 f   Physics_Parametric.obj
 0001:00145c10       ?GetAbsBounds@idPhysics_Parametric@@UBEABVidBounds@@H@Z 10146c10 f   Physics_Parametric.obj
 0001:00145c30       ?GetRestStartTime@idPhysics_RigidBody@@UBEHXZ 10146c30 f   Physics_RigidBody.obj
 0001:00145c30       ?GetTime@idPhysics_Parametric@@UBEHXZ 10146c30 f   Physics_Parametric.obj
 0001:00145c40       ?IsAtRest@idPhysics_Parametric@@UBE_NXZ 10146c40 f   Physics_Parametric.obj
 0001:00145c50       ?GetRestStartTime@idPhysics_Parametric@@UBEHXZ 10146c50 f   Physics_Parametric.obj
 0001:00145c50       ?GetName@idEntity@@QBEPBDXZ 10146c50 f   Entity.obj
 0001:00145c60       ?GetOrigin@idPhysics_Parametric@@UBEABVidVec3@@H@Z 10146c60 f   Physics_Parametric.obj
 0001:00145c70       ?GetAxis@idPhysics_Parametric@@UBEABVidMat3@@H@Z 10146c70 f   Physics_Parametric.obj
 0001:00145c80       ?DisableClip@idPhysics_Parametric@@UAEXXZ 10146c80 f   Physics_Parametric.obj
 0001:00145c90       ?EnableClip@idPhysics_Parametric@@UAEXXZ 10146c90 f   Physics_Parametric.obj
 0001:00145ca0       ?UnlinkClip@idPhysics_Parametric@@UAEXXZ 10146ca0 f   Physics_Parametric.obj
 0001:00145cb0       ?LinkClip@idPhysics_Parametric@@UAEXXZ 10146cb0 f   Physics_Parametric.obj
 0001:00145ce0       ?GetBlockingInfo@idPhysics_Parametric@@UBEPBUtrace_s@@XZ 10146ce0 f   Physics_Parametric.obj
 0001:00145d00       ?GetBlockingEntity@idPhysics_Parametric@@UBEPAVidEntity@@XZ 10146d00 f   Physics_Parametric.obj
 0001:00145d20       ?RombergIntegral@?$idCurve@VidVec3@@@@IBEMMMH@Z 10146d20 f i Physics_Parametric.obj
 0001:001461f0       ?TestIfAtRest@idPhysics_Parametric@@ABE_NXZ 101471f0 f   Physics_Parametric.obj
 0001:00146330       ??4?$idExtrapolate@VidAngles@@@@QAEAAV0@ABV0@@Z 10147330 f i Physics_Parametric.obj
 0001:00146330       ??4?$idExtrapolate@VidVec3@@@@QAEAAV0@ABV0@@Z 10147330 f i Physics_Parametric.obj
 0001:001463a0       ??1idPhysics_Parametric@@UAE@XZ 101473a0 f   Physics_Parametric.obj
 0001:00146430       ?idPhysics_Parametric_SavePState@@YAXPAVidSaveGame@@ABUparametricPState_s@@@Z 10147430 f   Physics_Parametric.obj
 0001:001466a0       ?Save@idPhysics_Parametric@@QBEXPAVidSaveGame@@@Z 101476a0 f   Physics_Parametric.obj
 0001:00146730       ?SetLinearExtrapolation@idPhysics_Parametric@@QAEXW4extrapolation_t@@HHABVidVec3@@11@Z 10147730 f   Physics_Parametric.obj
 0001:00146800       ?GetLinearExtrapolationType@idPhysics_Parametric@@QBE?AW4extrapolation_t@@XZ 10147800 f   Physics_Parametric.obj
 0001:00146810       ?GetAngularExtrapolationType@idPhysics_Parametric@@QBE?AW4extrapolation_t@@XZ 10147810 f   Physics_Parametric.obj
 0001:00146820       ?SetLinearInterpolation@idPhysics_Parametric@@QAEXHHHHABVidVec3@@0@Z 10147820 f   Physics_Parametric.obj
 0001:00146ad0       ?GetSplineAcceleration@idPhysics_Parametric@@QBEHXZ 10147ad0 f   Physics_Parametric.obj
 0001:00146ae0       ?GetSplineDeceleration@idPhysics_Parametric@@QBEHXZ 10147ae0 f   Physics_Parametric.obj
 0001:00146af0       ?GetLocalOrigin@idPhysics_Parametric@@QBEXAAVidVec3@@@Z 10147af0 f   Physics_Parametric.obj
 0001:00146b20       ?GetLocalAngles@idPhysics_Parametric@@QBEXAAVidAngles@@@Z 10147b20 f   Physics_Parametric.obj
 0001:00146b50       ?GetAngles@idPhysics_Parametric@@QBEXAAVidAngles@@@Z 10147b50 f   Physics_Parametric.obj
 0001:00146b70       ?SetLinearVelocity@idPhysics_Parametric@@UAEXABVidVec3@@H@Z 10147b70 f   Physics_Parametric.obj
 0001:00146c00       ?GetLinearVelocity@idPhysics_Parametric@@UBEABVidVec3@@H@Z 10147c00 f   Physics_Parametric.obj
 0001:00146f30       ?GetAngularEndTime@idPhysics_Parametric@@UBEHXZ 10147f30 f   Physics_Parametric.obj
 0001:00146fd0       ?WriteToSnapshot@idPhysics_Parametric@@UBEXAAVidBitMsgDelta@@@Z 10147fd0 f   Physics_Parametric.obj
 0001:00147750       ??_GidPhysics_Parametric@@UAEPAXI@Z 10148750 f i Physics_Parametric.obj
 0001:00147750       ??_EidPhysics_Parametric@@UAEPAXI@Z 10148750 f i Physics_Parametric.obj
 0001:00147770       ??0parametricPState_s@@QAE@XZ 10148770 f i Physics_Parametric.obj
 0001:00147a40       ??4parametricPState_s@@QAEAAU0@ABU0@@Z 10148a40 f i Physics_Parametric.obj
 0001:00147c40       ?idPhysics_Parametric_RestorePState@@YAXPAVidRestoreGame@@AAUparametricPState_s@@@Z 10148c40 f   Physics_Parametric.obj
 0001:001485a0       ?Restore@idPhysics_Parametric@@QAEXPAVidRestoreGame@@@Z 101495a0 f   Physics_Parametric.obj
 0001:00148630       ?SetAngularExtrapolation@idPhysics_Parametric@@QAEXW4extrapolation_t@@HHABVidAngles@@11@Z 10149630 f   Physics_Parametric.obj
 0001:00148700       ?SaveState@idPhysics_Parametric@@UAEXXZ 10149700 f   Physics_Parametric.obj
 0001:00148710       ?RestoreState@idPhysics_Parametric@@UAEXXZ 10149710 f   Physics_Parametric.obj
 0001:00148750       ?SetOrigin@idPhysics_Parametric@@UAEXABVidVec3@@H@Z 10149750 f   Physics_Parametric.obj
 0001:00148fd0       ?SetAngularVelocity@idPhysics_Parametric@@UAEXABVidVec3@@H@Z 10149fd0 f   Physics_Parametric.obj
 0001:00149190       ?GetAngularVelocity@idPhysics_Parametric@@UBEABVidVec3@@H@Z 1014a190 f   Physics_Parametric.obj
 0001:00149420       ?SetMaster@idPhysics_Parametric@@UAEXPAVidEntity@@_N@Z 1014a420 f   Physics_Parametric.obj
 0001:00149740       ?GetLinearEndTime@idPhysics_Parametric@@UBEHXZ 1014a740 f   Physics_Parametric.obj
 0001:00149820       ?ReadFromSnapshot@idPhysics_Parametric@@UAEXABVidBitMsgDelta@@@Z 1014a820 f   Physics_Parametric.obj
 0001:0014a640       ?SetStartTime@?$idInterpolateAccelDecelLinear@VidAngles@@@@QAEXM@Z 1014b640 f i Physics_Parametric.obj
 0001:0014a640       ?SetStartTime@?$idInterpolateAccelDecelLinear@VidVec3@@@@QAEXM@Z 1014b640 f i Physics_Parametric.obj
 0001:0014a6b0       ?SetStartValue@?$idInterpolateAccelDecelLinear@VidAngles@@@@QAEXABVidAngles@@@Z 1014b6b0 f i Physics_Parametric.obj
 0001:0014a6b0       ?SetStartValue@?$idInterpolateAccelDecelLinear@VidVec3@@@@QAEXABVidVec3@@@Z 1014b6b0 f i Physics_Parametric.obj
 0001:0014a730       ??0idPhysics_Parametric@@QAE@XZ 1014b730 f   Physics_Parametric.obj
 0001:0014aae0       ?SetSpline@idPhysics_Parametric@@QAEXPAV?$idCurve_Spline@VidVec3@@@@HH_N@Z 1014bae0 f   Physics_Parametric.obj
 0001:0014adf0       ?Evaluate@idPhysics_Parametric@@UAE_NHH@Z 1014bdf0 f   Physics_Parametric.obj
 0001:0014da10       ?UpdateTime@idPhysics_Parametric@@UAEXH@Z 1014ea10 f   Physics_Parametric.obj
 0001:0014db30       ?SetAxis@idPhysics_Parametric@@UAEXABVidMat3@@H@Z 1014eb30 f   Physics_Parametric.obj
 0001:0014e370       ?CreateInstance@idPhysics_Parametric@@SAPAVidClass@@XZ 1014f370 f   Physics_Parametric.obj
 0001:0014e410       ?GetType@idPhysics_Player@@UBEPAVidTypeInfo@@XZ 1014f410 f   Physics_Player.obj
 0001:0014e420       ?CmdScale@idPhysics_Player@@ABEMABVusercmd_t@@@Z 1014f420 f   Physics_Player.obj
 0001:0014e540       ?CheckJump@idPhysics_Player@@AAE_NXZ 1014f540 f   Physics_Player.obj
 0001:0014e740       ?CheckWaterJump@idPhysics_Player@@AAE_NXZ 1014f740 f   Physics_Player.obj
 0001:0014eac0       ?DropTimers@idPhysics_Player@@AAEXXZ 1014fac0 f   Physics_Player.obj
 0001:0014eb00       ?GetWaterLevel@idPhysics_Player@@QBE?AW4waterLevel_t@@XZ 1014fb00 f   Physics_Player.obj
 0001:0014eb10       ?HasJumped@idPhysics_Player@@QBE_NXZ 1014fb10 f   Physics_Player.obj
 0001:0014eb20       ?HasSteppedUp@idPhysics_Player@@QBE_NXZ 1014fb20 f   Physics_Player.obj
 0001:0014eb30       ?GetStepUp@idPhysics_Player@@QBEMXZ 1014fb30 f   Physics_Player.obj
 0001:0014eb40       ?IsCrouching@idPhysics_Player@@QBE_NXZ 1014fb40 f   Physics_Player.obj
 0001:0014eb50       ?OnLadder@idPhysics_Player@@QBE_NXZ 1014fb50 f   Physics_Player.obj
 0001:0014eb60       ??4playerPState_s@@QAEAAU0@ABU0@@Z 1014fb60 f i Physics_Player.obj
 0001:0014ebd0       ?idPhysics_Player_SavePState@@YAXPAVidSaveGame@@ABUplayerPState_s@@@Z 1014fbd0 f   Physics_Player.obj
 0001:0014ec40       ?idPhysics_Player_RestorePState@@YAXPAVidRestoreGame@@AAUplayerPState_s@@@Z 1014fc40 f   Physics_Player.obj
 0001:0014ecb0       ?Save@idPhysics_Player@@QBEXPAVidSaveGame@@@Z 1014fcb0 f   Physics_Player.obj
 0001:0014ee10       ?Restore@idPhysics_Player@@QAEXPAVidRestoreGame@@@Z 1014fe10 f   Physics_Player.obj
 0001:0014ef60       ?SetSpeed@idPhysics_Player@@QAEXMM@Z 1014ff60 f   Physics_Player.obj
 0001:0014ef80       ?SetMaxStepHeight@idPhysics_Player@@QAEXM@Z 1014ff80 f   Physics_Player.obj
 0001:0014ef90       ?SetMaxJumpHeight@idPhysics_Player@@QAEXM@Z 1014ff90 f   Physics_Player.obj
 0001:0014efa0       ?SetMovementType@idPhysics_Player@@QAEXW4pmtype_t@@@Z 1014ffa0 f   Physics_Player.obj
 0001:0014efb0       ?SetKnockBack@idPhysics_Player@@QAEXH@Z 1014ffb0 f   Physics_Player.obj
 0001:0014efd0       ?SetDebugLevel@idPhysics_Player@@QAEX_N@Z 1014ffd0 f   Physics_Player.obj
 0001:0014efe0       ?ApplyImpulse@idPhysics_Player@@UAEXHABVidVec3@@0@Z 1014ffe0 f   Physics_Player.obj
 0001:0014f050       ?GetRestStartTime@idPhysics_Player@@UBEHXZ 10150050 f   Physics_Player.obj
 0001:0014f060       ?SaveState@idPhysics_Player@@UAEXXZ 10150060 f   Physics_Player.obj
 0001:0014f080       ?RestoreState@idPhysics_Player@@UAEXXZ 10150080 f   Physics_Player.obj
 0001:0014f0c0       ?PlayerGetOrigin@idPhysics_Player@@QBEABVidVec3@@XZ 101500c0 f   Physics_Player.obj
 0001:0014f0d0       ?SetAxis@idPhysics_Player@@UAEXABVidMat3@@H@Z 101500d0 f   Physics_Player.obj
 0001:0014f100       ?Translate@idPhysics_Player@@UAEXABVidVec3@@H@Z 10150100 f   Physics_Player.obj
 0001:0014f170       ?SetLinearVelocity@idPhysics_Player@@UAEXABVidVec3@@H@Z 10150170 f   Physics_Player.obj
 0001:0014f1a0       ?GetLinearVelocity@idPhysics_Player@@UBEABVidVec3@@H@Z 101501a0 f   Physics_Player.obj
 0001:0014f1b0       ?SetPushed@idPhysics_Player@@UAEXH@Z 101501b0 f   Physics_Player.obj
 0001:0014f2f0       ?GetPushedLinearVelocity@idPhysics_Player@@UBEABVidVec3@@H@Z 101502f0 f   Physics_Player.obj
 0001:0014f300       ?ClearPushedVelocity@idPhysics_Player@@QAEXXZ 10150300 f   Physics_Player.obj
 0001:0014f320       ?Accelerate@idPhysics_Player@@AAEXABVidVec3@@MM@Z 10150320 f   Physics_Player.obj
 0001:0014f410       ?Friction@idPhysics_Player@@AAEXXZ 10150410 f   Physics_Player.obj
 0001:0014f740       ?DeadMove@idPhysics_Player@@AAEXXZ 10150740 f   Physics_Player.obj
 0001:0014f910       ?NoclipMove@idPhysics_Player@@AAEXXZ 10150910 f   Physics_Player.obj
 0001:0014fd40       ?CorrectAllSolid@idPhysics_Player@@AAEXAAUtrace_s@@H@Z 10150d40 f   Physics_Player.obj
 0001:0014fe40       ?SetWaterLevel@idPhysics_Player@@AAEXXZ 10150e40 f   Physics_Player.obj
 0001:001500a0       ?SetPlayerInput@idPhysics_Player@@QAEXABVusercmd_t@@ABVidAngles@@@Z 101510a0 f   Physics_Player.obj
 0001:001500e0       ?GetImpactInfo@idPhysics_Player@@UBEXHABVidVec3@@PAUimpactInfo_s@@@Z 101510e0 f   Physics_Player.obj
 0001:00150130       ?SetOrigin@idPhysics_Player@@UAEXABVidVec3@@H@Z 10151130 f   Physics_Player.obj
 0001:00150240       ?Rotate@idPhysics_Player@@UAEXABVidRotation@@H@Z 10151240 f   Physics_Player.obj
 0001:00150500       ?SetMaster@idPhysics_Player@@UAEXPAVidEntity@@_N@Z 10151500 f   Physics_Player.obj
 0001:00150620       ?WriteToSnapshot@idPhysics_Player@@UBEXAAVidBitMsgDelta@@@Z 10151620 f   Physics_Player.obj
 0001:001508e0       ?ReadFromSnapshot@idPhysics_Player@@UAEXABVidBitMsgDelta@@@Z 101518e0 f   Physics_Player.obj
 0001:00150b80       ?CheckGround@idPhysics_Player@@AAEXXZ 10151b80 f   Physics_Player.obj
 0001:00151180       ?CheckDuck@idPhysics_Player@@AAEXXZ 10152180 f   Physics_Player.obj
 0001:00151380       ?CheckLadder@idPhysics_Player@@AAEXXZ 10152380 f   Physics_Player.obj
 0001:00151730       ??0idPhysics_Player@@QAE@XZ 10152730 f   Physics_Player.obj
 0001:00151850       ??_GidPhysics_Player@@UAEPAXI@Z 10152850 f i Physics_Player.obj
 0001:00151850       ??_GidPhysics_Monster@@UAEPAXI@Z 10152850 f i Physics_Monster.obj
 0001:00151850       ??_EidPhysics_Player@@UAEPAXI@Z 10152850 f i Physics_Player.obj
 0001:00151850       ??_EidPhysics_Monster@@UAEPAXI@Z 10152850 f i Physics_Monster.obj
 0001:00151870       ?CreateInstance@idPhysics_Player@@SAPAVidClass@@XZ 10152870 f   Physics_Player.obj
 0001:00151910       ?SlideMove@idPhysics_Player@@AAE_N_N000@Z 10152910 f   Physics_Player.obj
 0001:00152fc0       ?WaterJumpMove@idPhysics_Player@@AAEXXZ 10153fc0 f   Physics_Player.obj
 0001:00153080       ?WaterMove@idPhysics_Player@@AAEXXZ 10154080 f   Physics_Player.obj
 0001:00153600       ?AirMove@idPhysics_Player@@AAEXXZ 10154600 f   Physics_Player.obj
 0001:00153b80       ?WalkMove@idPhysics_Player@@AAEXXZ 10154b80 f   Physics_Player.obj
 0001:00154560       ?SpectatorMove@idPhysics_Player@@AAEXXZ 10155560 f   Physics_Player.obj
 0001:00154770       ?LadderMove@idPhysics_Player@@AAEXXZ 10155770 f   Physics_Player.obj
 0001:00155100       ?MovePlayer@idPhysics_Player@@AAEXH@Z 10156100 f   Physics_Player.obj
 0001:00155480       ?Evaluate@idPhysics_Player@@UAE_NHH@Z 10156480 f   Physics_Player.obj
 0001:001556b0       ?GetType@idPhysics_RigidBody@@UBEPAVidTypeInfo@@XZ 101566b0 f   Physics_RigidBody.obj
 0001:001556c0       ?idPhysics_RigidBody_SavePState@@YAXPAVidSaveGame@@ABUrigidBodyPState_s@@@Z 101566c0 f   Physics_RigidBody.obj
 0001:00155750       ?idPhysics_RigidBody_RestorePState@@YAXPAVidRestoreGame@@AAUrigidBodyPState_s@@@Z 10156750 f   Physics_RigidBody.obj
 0001:001557e0       ?Save@idPhysics_RigidBody@@QBEXPAVidSaveGame@@@Z 101567e0 f   Physics_RigidBody.obj
 0001:00155900       ?Restore@idPhysics_RigidBody@@QAEXPAVidRestoreGame@@@Z 10156900 f   Physics_RigidBody.obj
 0001:00155a10       ?GetClipModel@idPhysics_RigidBody@@UBEPAVidClipModel@@H@Z 10156a10 f   Physics_RigidBody.obj
 0001:00155a20       ?GetMass@idPhysics_RigidBody@@UBEMH@Z 10156a20 f   Physics_RigidBody.obj
 0001:00155a30       ?SetFriction@idPhysics_RigidBody@@QAEXMMM@Z 10156a30 f   Physics_RigidBody.obj
 0001:00155aa0       ?SetBouncyness@idPhysics_RigidBody@@QAEXM@Z 10156aa0 f   Physics_RigidBody.obj
 0001:00155ad0       ?DropToFloor@idPhysics_RigidBody@@QAEXXZ 10156ad0 f   Physics_RigidBody.obj
 0001:00155ae0       ?NoContact@idPhysics_RigidBody@@QAEXXZ 10156ae0 f   Physics_RigidBody.obj
 0001:00155af0       ?Activate@idPhysics_RigidBody@@UAEXXZ 10156af0 f   Physics_RigidBody.obj
 0001:00155b10       ?EnableImpact@idPhysics_RigidBody@@QAEXXZ 10156b10 f   Physics_RigidBody.obj
 0001:00155b20       ?DisableImpact@idPhysics_RigidBody@@QAEXXZ 10156b20 f   Physics_RigidBody.obj
 0001:00155b30       ?SetContents@idPhysics_RigidBody@@UAEXHH@Z 10156b30 f   Physics_RigidBody.obj
 0001:00155b40       ?GetContents@idPhysics_RigidBody@@UBEHH@Z 10156b40 f   Physics_RigidBody.obj
 0001:00155b50       ?GetBounds@idPhysics_RigidBody@@UBEABVidBounds@@H@Z 10156b50 f   Physics_RigidBody.obj
 0001:00155b60       ?GetAbsBounds@idPhysics_RigidBody@@UBEABVidBounds@@H@Z 10156b60 f   Physics_RigidBody.obj
 0001:00155b70       ?IsAtRest@idPhysics_RigidBody@@UBE_NXZ 10156b70 f   Physics_RigidBody.obj
 0001:00155b80       ?IsPushable@idPhysics_RigidBody@@UBE_NXZ 10156b80 f   Physics_RigidBody.obj
 0001:00155ba0       ?Translate@idPhysics_RigidBody@@UAEXABVidVec3@@H@Z 10156ba0 f   Physics_RigidBody.obj
 0001:00155c10       ?GetOrigin@idPhysics_RigidBody@@UBEABVidVec3@@H@Z 10156c10 f   Physics_RigidBody.obj
 0001:00155c20       ?GetAxis@idPhysics_RigidBody@@UBEABVidMat3@@H@Z 10156c20 f   Physics_RigidBody.obj
 0001:00155c30       ?SetLinearVelocity@idPhysics_RigidBody@@UAEXABVidVec3@@H@Z 10156c30 f   Physics_RigidBody.obj
 0001:00155c90       ?GetLinearVelocity@idPhysics_RigidBody@@UBEABVidVec3@@H@Z 10156c90 f   Physics_RigidBody.obj
 0001:00155d10       ?ClipTranslation@idPhysics_RigidBody@@UBEXAAUtrace_s@@ABVidVec3@@PBVidClipModel@@@Z 10156d10 f   Physics_RigidBody.obj
 0001:00155e00       ?ClipRotation@idPhysics_RigidBody@@UBEXAAUtrace_s@@ABVidRotation@@PBVidClipModel@@@Z 10156e00 f   Physics_RigidBody.obj
 0001:00155e80       ?ClipContents@idPhysics_RigidBody@@UBEHPBVidClipModel@@@Z 10156e80 f   Physics_RigidBody.obj
 0001:00155ee0       ?DisableClip@idPhysics_RigidBody@@UAEXXZ 10156ee0 f   Physics_RigidBody.obj
 0001:00155ef0       ?EnableClip@idPhysics_RigidBody@@UAEXXZ 10156ef0 f   Physics_RigidBody.obj
 0001:00155f00       ?UnlinkClip@idPhysics_RigidBody@@UAEXXZ 10156f00 f   Physics_RigidBody.obj
 0001:00155f10       ?LinkClip@idPhysics_RigidBody@@UAEXXZ 10156f10 f   Physics_RigidBody.obj
 0001:00155f40       ?RigidBodyDerivatives@@YAXMPBXPBMPAM@Z 10156f40 f   Physics_RigidBody.obj
 0001:00156520       ?Integrate@idPhysics_RigidBody@@AAEXMAAUrigidBodyPState_s@@@Z 10157520 f   Physics_RigidBody.obj
 0001:00156b20       ?ContactFriction@idPhysics_RigidBody@@AAEXM@Z 10157b20 f   Physics_RigidBody.obj
 0001:00157820       ?TestIfAtRest@idPhysics_RigidBody@@ABE_NXZ 10158820 f   Physics_RigidBody.obj
 0001:00158270       ?DebugDraw@idPhysics_RigidBody@@AAEXXZ 10159270 f   Physics_RigidBody.obj
 0001:00158440       ??4rididBodyIState_s@@QAEAAU0@ABU0@@Z 10159440 f i Physics_RigidBody.obj
 0001:001584c0       ??1idPhysics_RigidBody@@UAE@XZ 101594c0 f   Physics_RigidBody.obj
 0001:00158550       ?SetMass@idPhysics_RigidBody@@UAEXMH@Z 10159550 f   Physics_RigidBody.obj
 0001:00158720       ?PutToRest@idPhysics_RigidBody@@UAEXXZ 10159720 f   Physics_RigidBody.obj
 0001:00158720       ?Rest@idPhysics_RigidBody@@AAEXXZ 10159720 f   Physics_RigidBody.obj
 0001:00158760       ?GetImpactInfo@idPhysics_RigidBody@@UBEXHABVidVec3@@PAUimpactInfo_s@@@Z 10159760 f   Physics_RigidBody.obj
 0001:00158d20       ?ApplyImpulse@idPhysics_RigidBody@@UAEXHABVidVec3@@0@Z 10159d20 f   Physics_RigidBody.obj
 0001:00158eb0       ?AddForce@idPhysics_RigidBody@@UAEXHABVidVec3@@0@Z 10159eb0 f   Physics_RigidBody.obj
 0001:00159040       ?SetOrigin@idPhysics_RigidBody@@UAEXABVidVec3@@H@Z 1015a040 f   Physics_RigidBody.obj
 0001:00159160       ?SetAxis@idPhysics_RigidBody@@UAEXABVidMat3@@H@Z 1015a160 f   Physics_RigidBody.obj
 0001:00159380       ?Rotate@idPhysics_RigidBody@@UAEXABVidRotation@@H@Z 1015a380 f   Physics_RigidBody.obj
 0001:001597f0       ?SetAngularVelocity@idPhysics_RigidBody@@UAEXABVidVec3@@H@Z 1015a7f0 f   Physics_RigidBody.obj
 0001:00159890       ?GetAngularVelocity@idPhysics_RigidBody@@UBEABVidVec3@@H@Z 1015a890 f   Physics_RigidBody.obj
 0001:00159c40       ?SetPushed@idPhysics_RigidBody@@UAEXH@Z 1015ac40 f   Physics_RigidBody.obj
 0001:00159f40       ?GetPushedLinearVelocity@idPhysics_RigidBody@@UBEABVidVec3@@H@Z 1015af40 f   Physics_RigidBody.obj
 0001:00159f50       ?GetPushedAngularVelocity@idPhysics_RigidBody@@UBEABVidVec3@@H@Z 1015af50 f   Physics_RigidBody.obj
 0001:00159f60       ?SetMaster@idPhysics_RigidBody@@UAEXPAVidEntity@@_N@Z 1015af60 f   Physics_RigidBody.obj
 0001:0015a230       ?WriteToSnapshot@idPhysics_RigidBody@@UBEXAAVidBitMsgDelta@@@Z 1015b230 f   Physics_RigidBody.obj
 0001:0015a800       ?ReadFromSnapshot@idPhysics_RigidBody@@UAEXABVidBitMsgDelta@@@Z 1015b800 f   Physics_RigidBody.obj
 0001:0015ad90       ?CollisionImpulse@idPhysics_RigidBody@@AAE_NABUtrace_s@@AAVidVec3@@@Z 1015bd90 f   Physics_RigidBody.obj
 0001:0015b750       ?CheckForCollisions@idPhysics_RigidBody@@AAE_NMAAUrigidBodyPState_s@@AAUtrace_s@@@Z 1015c750 f   Physics_RigidBody.obj
 0001:0015b9c0       ??_GidPhysics_RigidBody@@UAEPAXI@Z 1015c9c0 f i Physics_RigidBody.obj
 0001:0015b9c0       ??_EidPhysics_RigidBody@@UAEPAXI@Z 1015c9c0 f i Physics_RigidBody.obj
 0001:0015b9e0       ??4rigidBodyPState_s@@QAEAAU0@ABU0@@Z 1015c9e0 f i Physics_RigidBody.obj
 0001:0015baa0       ?SetClipModel@idPhysics_RigidBody@@UAEXPAVidClipModel@@MH_N@Z 1015caa0 f   Physics_RigidBody.obj
 0001:0015bfd0       ?SaveState@idPhysics_RigidBody@@UAEXXZ 1015cfd0 f   Physics_RigidBody.obj
 0001:0015bfe0       ?RestoreState@idPhysics_RigidBody@@UAEXXZ 1015cfe0 f   Physics_RigidBody.obj
 0001:0015c030       ?DropToFloorAndRest@idPhysics_RigidBody@@AAEXXZ 1015d030 f   Physics_RigidBody.obj
 0001:0015c260       ??0idPhysics_RigidBody@@QAE@XZ 1015d260 f   Physics_RigidBody.obj
 0001:0015c4f0       ?Evaluate@idPhysics_RigidBody@@UAE_NHH@Z 1015d4f0 f   Physics_RigidBody.obj
 0001:0015ce40       ?EvaluateContacts@idPhysics_RigidBody@@UAE_NXZ 1015de40 f   Physics_RigidBody.obj
 0001:0015d260       ?CreateInstance@idPhysics_RigidBody@@SAPAVidClass@@XZ 1015e260 f   Physics_RigidBody.obj
 0001:0015d300       ?GetType@idPhysics_Static@@UBEPAVidTypeInfo@@XZ 1015e300 f   Physics_Static.obj
 0001:0015d310       ?Save@idPhysics_Static@@QBEXPAVidSaveGame@@@Z 1015e310 f   Physics_Static.obj
 0001:0015d380       ?Restore@idPhysics_Static@@QAEXPAVidRestoreGame@@@Z 1015e380 f   Physics_Static.obj
 0001:0015d3f0       ?SetSelf@idPhysics_Static@@UAEXPAVidEntity@@@Z 1015e3f0 f   Physics_Static.obj
 0001:0015d3f0       ?SetEntity@idAnimator@@QAEXPAVidEntity@@@Z 1015e3f0 f   Anim_Blend.obj
 0001:0015d3f0       ?SetSelf@idPhysics_StaticMulti@@UAEXPAVidEntity@@@Z 1015e3f0 f   Physics_StaticMulti.obj
 0001:0015d3f0       ?SetSelf@idPhysics_Base@@UAEXPAVidEntity@@@Z 1015e3f0 f   Physics_Base.obj
 0001:0015d3f0       ?SetMaxIterations@idLCP@@UAEXH@Z 1015e3f0 f   idLib:Lcp.obj
 0001:0015d400       ?SetClipModel@idPhysics_Static@@UAEXPAVidClipModel@@MH_N@Z 1015e400 f   Physics_Static.obj
 0001:0015d460       ?GetClipModel@idPhysics_Static@@UBEPAVidClipModel@@H@Z 1015e460 f   Physics_Static.obj
 0001:0015d470       ?GetNumClipModels@idPhysics_Static@@UBEHXZ 1015e470 f   Physics_Static.obj
 0001:0015d480       ?SetContents@idPhysics_Static@@UAEXHH@Z 1015e480 f   Physics_Static.obj
 0001:0015d4a0       ?GetContents@idPhysics_Static@@UBEHH@Z 1015e4a0 f   Physics_Static.obj
 0001:0015d4c0       ?GetClipMask@idPhysics_Static@@UBEHH@Z 1015e4c0 f   Physics_Static.obj
 0001:0015d4c0       ?ClipContents@idPhysics_Base@@UBEHPBVidClipModel@@@Z 1015e4c0 f   Physics_Base.obj
 0001:0015d4c0       ?GetClipModel@idPhysics_Base@@UBEPAVidClipModel@@H@Z 1015e4c0 f   Physics_Base.obj
 0001:0015d4c0       ?GetContents@idPhysics_Base@@UBEHH@Z 1015e4c0 f   Physics_Base.obj
 0001:0015d4c0       ?GetClipMask@idPhysics_StaticMulti@@UBEHH@Z 1015e4c0 f   Physics_StaticMulti.obj
 0001:0015d4d0       ?GetBounds@idPhysics_Static@@UBEABVidBounds@@H@Z 1015e4d0 f   Physics_Static.obj
 0001:0015d4f0       ?Spawn@idSplinePath@@QAEXXZ 1015e4f0 f   Mover.obj
 0001:0015d4f0       ?Event_DropToFloor@idMoveableItem@@IAEXXZ 1015e4f0 f   Item.obj
 0001:0015d4f0       ?SaveState@idPhysics_Static@@UAEXXZ 1015e4f0 f   Physics_Static.obj
 0001:0015d4f0       ?RestoreState@idPhysics_Static@@UAEXXZ 1015e4f0 f   Physics_Static.obj
 0001:0015d4f0       ?LowQuality@FullscreenFX@@UAEXXZ 1015e4f0 f   PlayerView.obj
 0001:0015d4f0       ?Event_Gibbed@idPlayer@@AAEXXZ 1015e4f0 f   Player.obj
 0001:0015d4f0       ?FreeLightDef@idEntity@@UAEXXZ 1015e4f0 f   Entity.obj
 0001:0015d4f0       ?FindUninitializedMemory@idClass@@QAEXXZ 1015e4f0 f   Class.obj
 0001:0015d4f0       ?ClearContacts@idPhysics_StaticMulti@@UAEXXZ 1015e4f0 f   Physics_StaticMulti.obj
 0001:0015d4f0       ?Spawn@idLiquid@@QAEXXZ    1015e4f0 f   Misc.obj
 0001:0015d4f0       ?DisableClip@idPhysics_Base@@UAEXXZ 1015e4f0 f   Physics_Base.obj
 0001:0015d4f0       ?ShowEditingDialog@idEntity@@UAEXXZ 1015e4f0 f   Entity.obj
 0001:0015d4f0       ?Spawn@idGuidedProjectile@@QAEXXZ 1015e4f0 f   Projectile.obj
 0001:0015d4f0       ?SaveState@idPhysics_StaticMulti@@UAEXXZ 1015e4f0 f   Physics_StaticMulti.obj
 0001:0015d4f0       ?SaveState@idPhysics_Base@@UAEXXZ 1015e4f0 f   Physics_Base.obj
 0001:0015d4f0       ?PostBind@idEntity@@UAEXXZ 1015e4f0 f   Entity.obj
 0001:0015d4f0       ?Spawn@idClass@@QAEXXZ     1015e4f0 f   Class.obj
 0001:0015d4f0       ?Activate@idPhysics_Static@@UAEXXZ 1015e4f0 f   Physics_Static.obj
 0001:0015d4f0       ?PutToRest@idPhysics_Static@@UAEXXZ 1015e4f0 f   Physics_Static.obj
 0001:0015d4f0       ?PutToRest@idPhysics_Base@@UAEXXZ 1015e4f0 f   Physics_Base.obj
 0001:0015d4f0       ?RevBytesNoSwap@@YAXPAXHH@Z 1015e4f0 f   idLib:Lib.obj
 0001:0015d4f0       ?DormantBegin@idEntity@@UAEXXZ 1015e4f0 f   Entity.obj
 0001:0015d4f0       ?LinkClip@idPhysics_Base@@UAEXXZ 1015e4f0 f   Physics_Base.obj
 0001:0015d4f0       ?Initialize@FullscreenFX_InfluenceVision@@UAEXXZ 1015e4f0 f   PlayerView.obj
 0001:0015d4f0       ?Spawn@idFuncSplat@@QAEXXZ 1015e4f0 f   Misc.obj
 0001:0015d4f0       ?Spawn@idPathCorner@@QAEXXZ 1015e4f0 f   Misc.obj
 0001:0015d4f0       ??1?$idStaticList@UspawnSpot_t@@$0BAAA@@@QAE@XZ 1015e4f0 f   Game_local.obj
 0001:0015d4f0       ?PutToRest@idPhysics_StaticMulti@@UAEXXZ 1015e4f0 f   Physics_StaticMulti.obj
 0001:0015d4f0       ?RevBitFieldNoSwap@@YAXPAXH@Z 1015e4f0 f   idLib:Lib.obj
 0001:0015d4f0       ?Evaluate@idIK@@UAEXXZ     1015e4f0 f   IK.obj
 0001:0015d4f0       ?Spawn@idTarget_GiveEmail@@QAEXXZ 1015e4f0 f   Target.obj
 0001:0015d4f0       ?UnlinkClip@idPhysics_Base@@UAEXXZ 1015e4f0 f   Physics_Base.obj
 0001:0015d4f0       ??1element_s@?$idBlockAlloc@UentityState_s@@$0BAA@@@QAE@XZ 1015e4f0 f   Game_local.obj
 0001:0015d4f0       ?Mem_EnableLeakTest@@YAXPBD@Z 1015e4f0 f   idLib:Heap.obj
 0001:0015d4f0       ?Spawn@idSpawnableEntity@@QAEXXZ 1015e4f0 f   Misc.obj
 0001:0015d4f0       ?PreBind@idEntity@@UAEXXZ  1015e4f0 f   Entity.obj
 0001:0015d4f0       ?Spawn@idItemRemover@@QAEXXZ 1015e4f0 f   Item.obj
 0001:0015d4f0       ?PostUnbind@idEntity@@UAEXXZ 1015e4f0 f   Entity.obj
 0001:0015d4f0       ?EnableClip@idPhysics_Base@@UAEXXZ 1015e4f0 f   Physics_Base.obj
 0001:0015d4f0       ?ClearContacts@idPhysics_Static@@UAEXXZ 1015e4f0 f   Physics_Static.obj
 0001:0015d4f0       ?DebugDraw@idAFConstraint@@UAEXXZ 1015e4f0 f   Physics_AF.obj
 0001:0015d4f0       ?PreUnbind@idEntity@@UAEXXZ 1015e4f0 f   Entity.obj
 0001:0015d4f0       ?Think@idWeapon@@UAEXXZ    1015e4f0 f   Weapon.obj
 0001:0015d4f0       ?Spawn@idCamera@@QAEXXZ    1015e4f0 f   Camera.obj
 0001:0015d4f0       ?RestoreState@idPhysics_StaticMulti@@UAEXXZ 1015e4f0 f   Physics_StaticMulti.obj
 0001:0015d4f0       ?DebugDraw@idAFConstraint_ContactFriction@@UAEXXZ 1015e4f0 f   Physics_AF.obj
 0001:0015d4f0       ?Activate@idPhysics_StaticMulti@@UAEXXZ 1015e4f0 f   Physics_StaticMulti.obj
 0001:0015d4f0       ?RestoreState@idPhysics_Base@@UAEXXZ 1015e4f0 f   Physics_Base.obj
 0001:0015d4f0       ??1?$idStaticList@PAVidEntity@@$0BAAA@@@QAE@XZ 1015e4f0 f   Game_local.obj
 0001:0015d4f0       ?Activate@idPhysics_Base@@UAEXXZ 1015e4f0 f   Physics_Base.obj
 0001:0015d4f0       ?Spawn@idCursor3D@@QAEXXZ  1015e4f0 f   GameEdit.obj
 0001:0015d4f0       ?Spawn@idTarget_Tip@@QAEXXZ 1015e4f0 f   Target.obj
 0001:0015d4f0       ?Spawn@idVideoCDItem@@QAEXXZ 1015e4f0 f   Item.obj
 0001:0015d4f0       ?DormantEnd@idEntity@@UAEXXZ 1015e4f0 f   Entity.obj
 0001:0015d500       ?GetOrigin@idPhysics_Static@@UBEABVidVec3@@H@Z 1015e500 f   Physics_Static.obj
 0001:0015d510       ?GetAxis@idPhysics_Static@@UBEABVidMat3@@H@Z 1015e510 f   Physics_Static.obj
 0001:0015d520       ?ClipRotation@idPhysics_Static@@UBEXAAUtrace_s@@ABVidRotation@@PBVidClipModel@@@Z 1015e520 f   Physics_Static.obj
 0001:0015d590       ?ClipContents@idPhysics_Static@@UBEHPBVidClipModel@@@Z 1015e590 f   Physics_Static.obj
 0001:0015d600       ?DisableClip@idPhysics_Static@@UAEXXZ 1015e600 f   Physics_Static.obj
 0001:0015d610       ?EnableClip@idPhysics_Static@@UAEXXZ 1015e610 f   Physics_Static.obj
 0001:0015d620       ?UnlinkClip@idPhysics_Static@@UAEXXZ 1015e620 f   Physics_Static.obj
 0001:0015d630       ?LinkClip@idPhysics_Static@@UAEXXZ 1015e630 f   Physics_Static.obj
 0001:0015d660       ?ShouldConstructScriptObjectAtSpawn@idActor@@UBE_NXZ 1015e660 f   Actor.obj
 0001:0015d660       ?IsPushable@idPhysics_Parametric@@UBE_NXZ 1015e660 f   Physics_Parametric.obj
 0001:0015d660       ?ShouldConstructScriptObjectAtSpawn@idWeapon@@UBE_NXZ 1015e660 f   Weapon.obj
 0001:0015d660       ?EvaluateContacts@idPhysics_Static@@UAE_NXZ 1015e660 f   Physics_Static.obj
 0001:0015d660       ?IsPushable@idPhysics_Static@@UBE_NXZ 1015e660 f   Physics_Static.obj
 0001:0015d660       ?UpdateAnimationControllers@idEntity@@UAE_NXZ 1015e660 f   Entity.obj
 0001:0015d660       ?IsAtRest@idPhysics_Player@@UBE_NXZ 1015e660 f   Physics_Player.obj
 0001:0015d660       ?ShouldConstructScriptObjectAtSpawn@idTestModel@@UBE_NXZ 1015e660 f   Anim_Testmodel.obj
 0001:0015d660       ?HasGroundContacts@idPhysics_StaticMulti@@UBE_NXZ 1015e660 f   Physics_StaticMulti.obj
 0001:0015d660       ?IsPushable@idPhysics_StaticMulti@@UBE_NXZ 1015e660 f   Physics_StaticMulti.obj
 0001:0015d660       ?EvaluateContacts@idPhysics_Base@@UAE_NXZ 1015e660 f   Physics_Base.obj
 0001:0015d660       ?HasGroundContacts@idPhysics_Static@@UBE_NXZ 1015e660 f   Physics_Static.obj
 0001:0015d660       ?HasAccum@FullscreenFX@@UAE_NXZ 1015e660 f   PlayerView.obj
 0001:0015d660       ?EvaluateContacts@idPhysics_StaticMulti@@UAE_NXZ 1015e660 f   Physics_StaticMulti.obj
 0001:0015d660       ?OnLadder@idActor@@UBE_NXZ 1015e660 f   Actor.obj
 0001:0015d670       ?GetPhysicsToVisualTransform@idEntity@@UAE_NAAVidVec3@@AAVidMat3@@@Z 1015e670 f   Entity.obj
 0001:0015d670       ?HandleSingleGuiCommand@idEntity@@UAE_NPAV1@PAVidLexer@@@Z 1015e670 f   Entity.obj
 0001:0015d670       ?Collide@idEntity@@UAE_NABUtrace_s@@ABVidVec3@@@Z 1015e670 f   Entity.obj
 0001:0015d670       ?Evaluate@idPhysics_Base@@UAE_NHH@Z 1015e670 f   Physics_Base.obj
 0001:0015d670       ?IsGroundClipModel@idPhysics_Static@@UBE_NHH@Z 1015e670 f   Physics_Static.obj
 0001:0015d670       ?IsGroundClipModel@idPhysics_StaticMulti@@UBE_NHH@Z 1015e670 f   Physics_StaticMulti.obj
 0001:0015d680       ??1idPhysics_Static@@UAE@XZ 1015e680 f   Physics_Static.obj
 0001:0015d710       ?GetAbsBounds@idPhysics_Static@@UBEABVidBounds@@H@Z 1015e710 f   Physics_Static.obj
 0001:0015d780       ?Evaluate@idPhysics_Static@@UAE_NHH@Z 1015e780 f   Physics_Static.obj
 0001:0015db70       ?SetOrigin@idPhysics_Static@@UAEXABVidVec3@@H@Z 1015eb70 f   Physics_Static.obj
 0001:0015dc70       ?SetAxis@idPhysics_Static@@UAEXABVidMat3@@H@Z 1015ec70 f   Physics_Static.obj
 0001:0015de80       ?Translate@idPhysics_Static@@UAEXABVidVec3@@H@Z 1015ee80 f   Physics_Static.obj
 0001:0015dee0       ?Rotate@idPhysics_Static@@UAEXABVidRotation@@H@Z 1015eee0 f   Physics_Static.obj
 0001:0015e330       ?GetGravity@idPhysics_Static@@UBEABVidVec3@@XZ 1015f330 f   Physics_Static.obj
 0001:0015e370       ?GetGravityNormal@idPhysics_Static@@UBEABVidVec3@@XZ 1015f370 f   Physics_Static.obj
 0001:0015e3b0       ?ClipTranslation@idPhysics_Static@@UBEXAAUtrace_s@@ABVidVec3@@PBVidClipModel@@@Z 1015f3b0 f   Physics_Static.obj
 0001:0015e470       ?SetMaster@idPhysics_Static@@UAEXPAVidEntity@@_N@Z 1015f470 f   Physics_Static.obj
 0001:0015e6d0       ?WriteToSnapshot@idPhysics_Static@@UBEXAAVidBitMsgDelta@@@Z 1015f6d0 f   Physics_Static.obj
 0001:0015e880       ?ReadFromSnapshot@idPhysics_Static@@UAEXABVidBitMsgDelta@@@Z 1015f880 f   Physics_Static.obj
 0001:0015ea30       ??0idPhysics_Static@@QAE@XZ 1015fa30 f   Physics_Static.obj
 0001:0015eb00       ??_EidPhysics_Static@@UAEPAXI@Z 1015fb00 f i Physics_Static.obj
 0001:0015eb00       ??_GidPhysics_Static@@UAEPAXI@Z 1015fb00 f i Physics_Static.obj
 0001:0015eb20       ?GetContact@idPhysics_Static@@UBEABUcontactInfo_t@@H@Z 1015fb20 f   Physics_Static.obj
 0001:0015eb50       ?CreateInstance@idPhysics_Static@@SAPAVidClass@@XZ 1015fb50 f   Physics_Static.obj
 0001:0015ebc0       ?GetType@idPhysics_StaticMulti@@UBEPAVidTypeInfo@@XZ 1015fbc0 f   Physics_StaticMulti.obj
 0001:0015ebd0       ?SetAngularVelocity@idPhysics_StaticMulti@@UAEXABVidVec3@@H@Z 1015fbd0 f   Physics_StaticMulti.obj
 0001:0015ebd0       ?HandleMainMenuCommands@idGameLocal@@UAEXPBDPAVidUserInterface@@@Z 1015fbd0 f   Game_local.obj
 0001:0015ebd0       ?SetMass@idPhysics_Static@@UAEXMH@Z 1015fbd0 f   Physics_Static.obj
 0001:0015ebd0       ?Event_Touch@idLiquid@@AAEXPAVidEntity@@PAUtrace_s@@@Z 1015fbd0 f   Misc.obj
 0001:0015ebd0       ?SetLinearVelocity@idPhysics_Base@@UAEXABVidVec3@@H@Z 1015fbd0 f   Physics_Base.obj
 0001:0015ebd0       ?SetMass@idPhysics_Parametric@@UAEXMH@Z 1015fbd0 f   Physics_Parametric.obj
 0001:0015ebd0       ?Rotate@idPhysics_Base@@UAEXABVidRotation@@H@Z 1015fbd0 f   Physics_Base.obj
 0001:0015ebd0       ?Rotate@idPhysics_Parametric@@UAEXABVidRotation@@H@Z 1015fbd0 f   Physics_Parametric.obj
 0001:0015ebd0       ?SetLinearVelocity@idPhysics_StaticMulti@@UAEXABVidVec3@@H@Z 1015fbd0 f   Physics_StaticMulti.obj
 0001:0015ebd0       ?SetAngularVelocity@idPhysics_Base@@UAEXABVidVec3@@H@Z 1015fbd0 f   Physics_Base.obj
 0001:0015ebd0       ?SetAxis@idPhysics_Base@@UAEXABVidMat3@@H@Z 1015fbd0 f   Physics_Base.obj
 0001:0015ebd0       ?SetOrigin@idPhysics_Base@@UAEXABVidVec3@@H@Z 1015fbd0 f   Physics_Base.obj
 0001:0015ebd0       ?SetLinearVelocity@idPhysics_Static@@UAEXABVidVec3@@H@Z 1015fbd0 f   Physics_Static.obj
 0001:0015ebd0       ?SetContents@idPhysics_Base@@UAEXHH@Z 1015fbd0 f   Physics_Base.obj
 0001:0015ebd0       ?SetMaster@idPhysics_Base@@UAEXPAVidEntity@@_N@Z 1015fbd0 f   Physics_Base.obj
 0001:0015ebd0       ?SetAngularVelocity@idPhysics_Static@@UAEXABVidVec3@@H@Z 1015fbd0 f   Physics_Static.obj
 0001:0015ebd0       ?Translate@idPhysics_Base@@UAEXABVidVec3@@H@Z 1015fbd0 f   Physics_Base.obj
 0001:0015ebd0       ?Translate@idPhysics_Parametric@@UAEXABVidVec3@@H@Z 1015fbd0 f   Physics_Parametric.obj
 0001:0015ebd0       ?SetClipMask@idPhysics_StaticMulti@@UAEXHH@Z 1015fbd0 f   Physics_StaticMulti.obj
 0001:0015ebd0       ?Event_TeamBlocked@idMover_Periodic@@IAEXPAVidEntity@@0@Z 1015fbd0 f   Mover.obj
 0001:0015ebd0       ?SetMass@idPhysics_Base@@UAEXMH@Z 1015fbd0 f   Physics_Base.obj
 0001:0015ebd0       ?SetClipMask@idPhysics_Static@@UAEXHH@Z 1015fbd0 f   Physics_Static.obj
 0001:0015ebd0       ?SetMass@idPhysics_StaticMulti@@UAEXMH@Z 1015fbd0 f   Physics_StaticMulti.obj
 0001:0015ebe0       ?AddForce@idPhysics_StaticMulti@@UAEXHABVidVec3@@0@Z 1015fbe0 f   Physics_StaticMulti.obj
 0001:0015ebe0       ?AddForce@idPhysics_Static@@UAEXHABVidVec3@@0@Z 1015fbe0 f   Physics_Static.obj
 0001:0015ebe0       ?DamageFeedback@idEntity@@UAEXPAV1@0AAH@Z 1015fbe0 f   Entity.obj
 0001:0015ebe0       ?ApplyImpulse@idPhysics_Static@@UAEXHABVidVec3@@0@Z 1015fbe0 f   Physics_Static.obj
 0001:0015ebe0       ?ApplyImpulse@idPhysics_Base@@UAEXHABVidVec3@@0@Z 1015fbe0 f   Physics_Base.obj
 0001:0015ebe0       ?AddForce@idPhysics_Base@@UAEXHABVidVec3@@0@Z 1015fbe0 f   Physics_Base.obj
 0001:0015ebe0       ?ApplyImpulse@idPhysics_StaticMulti@@UAEXHABVidVec3@@0@Z 1015fbe0 f   Physics_StaticMulti.obj
 0001:0015ebf0       ?IsAtRest@idPhysics_Static@@UBE_NXZ 1015fbf0 f   Physics_Static.obj
 0001:0015ebf0       ?IsPushable@idPhysics_Base@@UBE_NXZ 1015fbf0 f   Physics_Base.obj
 0001:0015ebf0       ?HasAccum@FullscreenFX_Helltime@@UAE_NXZ 1015fbf0 f   PlayerView.obj
 0001:0015ebf0       ?IsAtRest@idPhysics_StaticMulti@@UBE_NXZ 1015fbf0 f   Physics_StaticMulti.obj
 0001:0015ebf0       ?ShouldConstructScriptObjectAtSpawn@idEntity@@UBE_NXZ 1015fbf0 f   Entity.obj
 0001:0015ebf0       ?IsAtRest@idPhysics_Base@@UBE_NXZ 1015fbf0 f   Physics_Base.obj
 0001:0015ebf0       ?CanPlayChatterSounds@idEntity@@UBE_NXZ 1015fbf0 f   Entity.obj
 0001:0015ebf0       ?HasAccum@FullscreenFX_Multiplayer@@UAE_NXZ 1015fbf0 f   PlayerView.obj
 0001:0015ec00       ?GetPushedLinearVelocity@idPhysics_Base@@UBEABVidVec3@@H@Z 1015fc00 f   Physics_Base.obj
 0001:0015ec00       ?GetLinearVelocity@idPhysics_Static@@UBEABVidVec3@@H@Z 1015fc00 f   Physics_Static.obj
 0001:0015ec00       ?GetOrigin@idPhysics_Base@@UBEABVidVec3@@H@Z 1015fc00 f   Physics_Base.obj
 0001:0015ec00       ?GetAngularVelocity@idPhysics_Base@@UBEABVidVec3@@H@Z 1015fc00 f   Physics_Base.obj
 0001:0015ec00       ?GetPushedAngularVelocity@idPhysics_Base@@UBEABVidVec3@@H@Z 1015fc00 f   Physics_Base.obj
 0001:0015ec00       ?GetLinearVelocity@idPhysics_Base@@UBEABVidVec3@@H@Z 1015fc00 f   Physics_Base.obj
 0001:0015ec00       ?GetAngularVelocity@idPhysics_StaticMulti@@UBEABVidVec3@@H@Z 1015fc00 f   Physics_StaticMulti.obj
 0001:0015ec00       ?GetPushedLinearVelocity@idPhysics_Static@@UBEABVidVec3@@H@Z 1015fc00 f   Physics_Static.obj
 0001:0015ec00       ?GetPushedAngularVelocity@idPhysics_Static@@UBEABVidVec3@@H@Z 1015fc00 f   Physics_Static.obj
 0001:0015ec00       ?GetAngularVelocity@idPhysics_Static@@UBEABVidVec3@@H@Z 1015fc00 f   Physics_Static.obj
 0001:0015ec00       ?GetPushedAngularVelocity@idPhysics_StaticMulti@@UBEABVidVec3@@H@Z 1015fc00 f   Physics_StaticMulti.obj
 0001:0015ec00       ?GetPushedLinearVelocity@idPhysics_StaticMulti@@UBEABVidVec3@@H@Z 1015fc00 f   Physics_StaticMulti.obj
 0001:0015ec00       ?GetLinearVelocity@idPhysics_StaticMulti@@UBEABVidVec3@@H@Z 1015fc00 f   Physics_StaticMulti.obj
 0001:0015ec10       ?ClipTranslation@idPhysics_StaticMulti@@UBEXAAUtrace_s@@ABVidVec3@@PBVidClipModel@@@Z 1015fc10 f   Physics_StaticMulti.obj
 0001:0015ec40       ?ClipRotation@idPhysics_StaticMulti@@UBEXAAUtrace_s@@ABVidRotation@@PBVidClipModel@@@Z 1015fc40 f   Physics_StaticMulti.obj
 0001:0015ec70       ?IsGroundEntity@idPhysics_StaticMulti@@UBE_NH@Z 1015fc70 f   Physics_StaticMulti.obj
 0001:0015ec70       ?IsGroundEntity@idPhysics_Static@@UBE_NH@Z 1015fc70 f   Physics_Static.obj
 0001:0015ec80       ??4staticPState_s@@QAEAAU0@ABU0@@Z 1015fc80 f i Physics_StaticMulti.obj
 0001:0015ed20       ?Save@idPhysics_StaticMulti@@QBEXPAVidSaveGame@@@Z 1015fd20 f   Physics_StaticMulti.obj
 0001:0015ede0       ?GetClipModel@idPhysics_StaticMulti@@UBEPAVidClipModel@@H@Z 1015fde0 f   Physics_StaticMulti.obj
 0001:0015ee10       ?SetContents@idPhysics_StaticMulti@@UAEXHH@Z 1015fe10 f   Physics_StaticMulti.obj
 0001:0015ee70       ?GetContents@idPhysics_StaticMulti@@UBEHH@Z 1015fe70 f   Physics_StaticMulti.obj
 0001:0015eec0       ?GetBounds@idPhysics_StaticMulti@@UBEABVidBounds@@H@Z 1015fec0 f   Physics_StaticMulti.obj
 0001:0015f0a0       ?GetAbsBounds@idPhysics_StaticMulti@@UBEABVidBounds@@H@Z 101600a0 f   Physics_StaticMulti.obj
 0001:0015f1f0       ?Evaluate@idPhysics_StaticMulti@@UAE_NHH@Z 101601f0 f   Physics_StaticMulti.obj
 0001:0015f4a0       ?SetOrigin@idPhysics_StaticMulti@@UAEXABVidVec3@@H@Z 101604a0 f   Physics_StaticMulti.obj
 0001:0015f6f0       ?Translate@idPhysics_StaticMulti@@UAEXABVidVec3@@H@Z 101606f0 f   Physics_StaticMulti.obj
 0001:0015f810       ?Rotate@idPhysics_StaticMulti@@UAEXABVidRotation@@H@Z 10160810 f   Physics_StaticMulti.obj
 0001:00160140       ?GetOrigin@idPhysics_StaticMulti@@UBEABVidVec3@@H@Z 10161140 f   Physics_StaticMulti.obj
 0001:00160170       ?GetAxis@idPhysics_StaticMulti@@UBEABVidMat3@@H@Z 10161170 f   Physics_StaticMulti.obj
 0001:001601b0       ?GetGravity@idPhysics_StaticMulti@@UBEABVidVec3@@XZ 101611b0 f   Physics_StaticMulti.obj
 0001:001601f0       ?GetGravityNormal@idPhysics_StaticMulti@@UBEABVidVec3@@XZ 101611f0 f   Physics_StaticMulti.obj
 0001:00160230       ?ClipContents@idPhysics_StaticMulti@@UBEHPBVidClipModel@@@Z 10161230 f   Physics_StaticMulti.obj
 0001:001602e0       ?DisableClip@idPhysics_StaticMulti@@UAEXXZ 101612e0 f   Physics_StaticMulti.obj
 0001:00160310       ?EnableClip@idPhysics_StaticMulti@@UAEXXZ 10161310 f   Physics_StaticMulti.obj
 0001:00160340       ?UnlinkClip@idPhysics_StaticMulti@@UAEXXZ 10161340 f   Physics_StaticMulti.obj
 0001:00160370       ?LinkClip@idPhysics_StaticMulti@@UAEXXZ 10161370 f   Physics_StaticMulti.obj
 0001:001603c0       ?SetMaster@idPhysics_StaticMulti@@UAEXPAVidEntity@@_N@Z 101613c0 f   Physics_StaticMulti.obj
 0001:00160660       ?WriteToSnapshot@idPhysics_StaticMulti@@UBEXAAVidBitMsgDelta@@@Z 10161660 f   Physics_StaticMulti.obj
 0001:00160850       ?ReadFromSnapshot@idPhysics_StaticMulti@@UAEXABVidBitMsgDelta@@@Z 10161850 f   Physics_StaticMulti.obj
 0001:00160a60       ??1idPhysics_StaticMulti@@UAE@XZ 10161a60 f   Physics_StaticMulti.obj
 0001:00160b40       ?RemoveIndex@idPhysics_StaticMulti@@QAEXH_N@Z 10161b40 f   Physics_StaticMulti.obj
 0001:00160bf0       ?SetAxis@idPhysics_StaticMulti@@UAEXABVidMat3@@H@Z 10161bf0 f   Physics_StaticMulti.obj
 0001:00161310       ?GetContact@idPhysics_StaticMulti@@UBEABUcontactInfo_t@@H@Z 10162310 f   Physics_StaticMulti.obj
 0001:00161340       ??0idPhysics_StaticMulti@@QAE@XZ 10162340 f   Physics_StaticMulti.obj
 0001:00161570       ??_EidPhysics_StaticMulti@@UAEPAXI@Z 10162570 f i Physics_StaticMulti.obj
 0001:00161570       ??_GidPhysics_StaticMulti@@UAEPAXI@Z 10162570 f i Physics_StaticMulti.obj
 0001:00161590       ?Restore@idPhysics_StaticMulti@@QAEXPAVidRestoreGame@@@Z 10162590 f   Physics_StaticMulti.obj
 0001:001617a0       ?SetClipModel@idPhysics_StaticMulti@@UAEXPAVidClipModel@@MH_N@Z 101627a0 f   Physics_StaticMulti.obj
 0001:00161b10       ?CreateInstance@idPhysics_StaticMulti@@SAPAVidClass@@XZ 10162b10 f   Physics_StaticMulti.obj
 0001:00161bb0       ?InitSavingPushedEntityPositions@idPush@@QAEXXZ 10162bb0 f   Push.obj
 0001:00161bc0       ?RestorePushedEntityPositions@idPush@@QAEXXZ 10162bc0 f   Push.obj
 0001:00161c20       ?DiscardEntities@idPush@@AAEHQAPAVidEntity@@HHPAV2@@Z 10162c20 f   Push.obj
 0001:00161d20       ?SaveEntityPosition@idPush@@AAEXPAVidEntity@@@Z 10162d20 f   Push.obj
 0001:00161dd0       ?TryTranslatePushEntity@idPush@@AAEHAAUtrace_s@@PAVidEntity@@PAVidClipModel@@HABVidVec3@@3@Z 10162dd0 f   Push.obj
 0001:001620a0       ?RotateEntityToAxial@idPush@@AAE_NPAVidEntity@@VidVec3@@@Z 101630a0 f   Push.obj
 0001:001623c0       ?TryRotatePushEntity@idPush@@AAEHAAUtrace_s@@PAVidEntity@@PAVidClipModel@@HABVidMat3@@ABVidRotation@@@Z 101633c0 f   Push.obj
 0001:00162920       ?ClipTranslationalPush@idPush@@QAEMAAUtrace_s@@PAVidEntity@@HABVidVec3@@2@Z 10163920 f   Push.obj
 0001:00163050       ?ClipRotationalPush@idPush@@QAEMAAUtrace_s@@PAVidEntity@@HABVidMat3@@ABVidRotation@@@Z 10164050 f   Push.obj
 0001:001636f0       ?ClipPush@idPush@@QAEMAAUtrace_s@@PAVidEntity@@HABVidVec3@@ABVidMat3@@AAV4@AAV5@@Z 101646f0 f   Push.obj
 0001:001644c0       ??0idCompiler@@QAE@XZ      101654c0 f   Script_Compiler.obj
 0001:001645c0       ?Error@idCompiler@@ABAXPBDZZ 101655c0 f   Script_Compiler.obj
 0001:00164630       ?FindImmediate@idCompiler@@ABEPAVidVarDef@@PBVidTypeDef@@PBTeval_s@@PBD@Z 10165630 f   Script_Compiler.obj
 0001:00164750       ?GetImmediate@idCompiler@@AAEPAVidVarDef@@PAVidTypeDef@@PBTeval_s@@PBD@Z 10165750 f   Script_Compiler.obj
 0001:001647c0       ?OptimizeOpcode@idCompiler@@AAEPAVidVarDef@@PBUopcode_s@@PAV2@1@Z 101657c0 f   Script_Compiler.obj
 0001:00164fa0       ?EmitOpcode@idCompiler@@AAEPAVidVarDef@@PBUopcode_s@@PAV2@1@Z 10165fa0 f   Script_Compiler.obj
 0001:001650a0       ?EmitPush@idCompiler@@AAE_NPAVidVarDef@@PBVidTypeDef@@@Z 101660a0 f   Script_Compiler.obj
 0001:00165160       ?NextToken@idCompiler@@AAEXXZ 10166160 f   Script_Compiler.obj
 0001:001655e0       ?ExpectToken@idCompiler@@AAEXPBD@Z 101665e0 f   Script_Compiler.obj
 0001:00165620       ?CheckToken@idCompiler@@AAE_NPBD@Z 10166620 f   Script_Compiler.obj
 0001:00165650       ?CheckType@idCompiler@@AAEPAVidTypeDef@@XZ 10166650 f   Script_Compiler.obj
 0001:00165790       ?ParseType@idCompiler@@AAEPAVidTypeDef@@XZ 10166790 f   Script_Compiler.obj
 0001:00165810       ?ParseImmediate@idCompiler@@AAEPAVidVarDef@@XZ 10166810 f   Script_Compiler.obj
 0001:00165840       ?ParseName@idCompiler@@AAEXAAVidStr@@@Z 10166840 f   Script_Compiler.obj
 0001:001658a0       ?EmitFunctionParms@idCompiler@@AAEPAVidVarDef@@HPAV2@HH0@Z 101668a0 f   Script_Compiler.obj
 0001:00165cc0       ?ParseObjectCall@idCompiler@@AAEPAVidVarDef@@PAV2@0@Z 10166cc0 f   Script_Compiler.obj
 0001:00165d20       ?ParseEventCall@idCompiler@@AAEPAVidVarDef@@PAV2@0@Z 10166d20 f   Script_Compiler.obj
 0001:00165dd0       ?ParseSysObjectCall@idCompiler@@AAEPAVidVarDef@@PAV2@@Z 10166dd0 f   Script_Compiler.obj
 0001:00165e70       ?LookupDef@idCompiler@@AAEPAVidVarDef@@PBDPBV2@@Z 10166e70 f   Script_Compiler.obj
 0001:00166170       ?ParseValue@idCompiler@@AAEPAVidVarDef@@XZ 10167170 f   Script_Compiler.obj
 0001:00166390       ?GetTerm@idCompiler@@AAEPAVidVarDef@@XZ 10167390 f   Script_Compiler.obj
 0001:001666f0       ?PatchLoop@idCompiler@@AAEXHH@Z 101676f0 f   Script_Compiler.obj
 0001:00166870       ?ParseFunctionCall@idCompiler@@AAEPAVidVarDef@@PAV2@@Z 10167870 f   Script_Compiler.obj
 0001:00166990       ?GetExpression@idCompiler@@AAEPAVidVarDef@@H@Z 10167990 f   Script_Compiler.obj
 0001:00166f30       ?ParseReturnStatement@idCompiler@@AAEXXZ 10167f30 f   Script_Compiler.obj
 0001:00167100       ?ParseWhileStatement@idCompiler@@AAEXXZ 10168100 f   Script_Compiler.obj
 0001:001673b0       ?ParseForStatement@idCompiler@@AAEXXZ 101683b0 f   Script_Compiler.obj
 0001:001677c0       ?ParseDoWhileStatement@idCompiler@@AAEXXZ 101687c0 f   Script_Compiler.obj
 0001:00167950       ?ParseIfStatement@idCompiler@@AAEXXZ 10168950 f   Script_Compiler.obj
 0001:00167c10       ?ParseStatement@idCompiler@@AAEXXZ 10168c10 f   Script_Compiler.obj
 0001:00167dc0       ??1idTypeDef@@QAE@XZ       10168dc0 f i Script_Compiler.obj
 0001:00167e80       ?ParseFunction@idCompiler@@AAEPAVidTypeDef@@PAV2@PBD@Z 10168e80 f   Script_Compiler.obj
 0001:001680d0       ?ParseFunctionDef@idCompiler@@AAEXPAVidTypeDef@@PBD@Z 101690d0 f   Script_Compiler.obj
 0001:001686d0       ?ParseVariableDef@idCompiler@@AAEXPAVidTypeDef@@PBD@Z 101696d0 f   Script_Compiler.obj
 0001:00168a60       ?ParseEventDef@idCompiler@@AAEXPAVidTypeDef@@PBD@Z 10169a60 f   Script_Compiler.obj
 0001:00168fa0       ?ParseObjectDef@idCompiler@@AAEXPBD@Z 10169fa0 f   Script_Compiler.obj
 0001:00169370       ?ParseDefs@idCompiler@@AAEXXZ 1016a370 f   Script_Compiler.obj
 0001:001695b0       ?ParseNamespace@idCompiler@@AAEXPAVidVarDef@@@Z 1016a5b0 f   Script_Compiler.obj
 0001:00169660       ?CompileFile@idCompiler@@QAEXPBD0_N@Z 1016a660 f   Script_Compiler.obj
 0001:00169940       ?SetThread@idInterpreter@@QAEXPAVidThread@@@Z 1016a940 f   Script_Interpreter.obj
 0001:00169950       ?MultiFrameEventInProgress@idInterpreter@@QBE_NXZ 1016a950 f   Script_Interpreter.obj
 0001:00169960       ??0idInterpreter@@QAE@XZ   1016a960 f   Script_Interpreter.obj
 0001:001699e0       ?Save@idInterpreter@@QBEXPAVidSaveGame@@@Z 1016a9e0 f   Script_Interpreter.obj
 0001:00169b70       ?Restore@idInterpreter@@QAEXPAVidRestoreGame@@@Z 1016ab70 f   Script_Interpreter.obj
 0001:00169d50       ?CurrentLine@idInterpreter@@QBEHXZ 1016ad50 f   Script_Interpreter.obj
 0001:00169d70       ?CurrentFile@idInterpreter@@QBEPBDXZ 1016ad70 f   Script_Interpreter.obj
 0001:00169da0       ?StackTrace@idInterpreter@@QBEXXZ 1016ada0 f   Script_Interpreter.obj
 0001:00169e80       ?Error@idInterpreter@@QBAXPADZZ 1016ae80 f   Script_Interpreter.obj
 0001:00169f50       ?Warning@idInterpreter@@QBAXPADZZ 1016af50 f   Script_Interpreter.obj
 0001:0016a010       ?BeginMultiFrameEvent@idInterpreter@@QAE_NPAVidEntity@@PBVidEventDef@@@Z 1016b010 f   Script_Interpreter.obj
 0001:0016a070       ?EndMultiFrameEvent@idInterpreter@@QAEXPAVidEntity@@PBVidEventDef@@@Z 1016b070 f   Script_Interpreter.obj
 0001:0016a0a0       ?EnterFunction@idInterpreter@@QAEXPBVfunction_t@@_N@Z 1016b0a0 f   Script_Interpreter.obj
 0001:0016a2a0       ?LeaveFunction@idInterpreter@@AAEXPAVidVarDef@@@Z 1016b2a0 f   Script_Interpreter.obj
 0001:0016a4a0       ?CallEvent@idInterpreter@@AAEXPBVfunction_t@@H@Z 1016b4a0 f   Script_Interpreter.obj
 0001:0016a870       ?CallSysEvent@idInterpreter@@AAEXPBVfunction_t@@H@Z 1016b870 f   Script_Interpreter.obj
 0001:0016aa90       ?Execute@idInterpreter@@QAE_NXZ 1016ba90 f   Script_Interpreter.obj
 0001:0016dd20       ?ThreadCall@idInterpreter@@QAEXPAV1@PBVfunction_t@@H@Z 1016ed20 f   Script_Interpreter.obj
 0001:0016dde0       ?EnterObjectFunction@idInterpreter@@QAEXPAVidEntity@@PBVfunction_t@@_N@Z 1016ede0 f   Script_Interpreter.obj
 0001:0016deb0       ?Inherits@idTypeDef@@QBE_NPBV1@@Z 1016eeb0 f   Script_Program.obj
 0001:0016dee0       ?SetName@idTypeDef@@QAEXPBD@Z 1016eee0 f   Script_Program.obj
 0001:0016def0       ?SetObject@idVarDef@@QAEXPAVidScriptObject@@@Z 1016eef0 f   Script_Program.obj
 0001:0016df00       ?SetString@idVarDef@@QAEXPBD_N@Z 1016ef00 f   Script_Program.obj
 0001:0016df30       ?RemoveDef@idVarDefName@@QAEXPAVidVarDef@@@Z 1016ef30 f   Script_Program.obj
 0001:0016df80       ??0idScriptObject@@QAE@XZ  1016ef80 f   Script_Program.obj
 0001:0016df90       ?ClearObject@idScriptObject@@QAEXXZ 1016ef90 f   Script_Program.obj
 0001:0016dfb0       ?HasObject@idScriptObject@@QBE_NXZ 1016efb0 f   Script_Program.obj
 0001:0016dfc0       ?ReturnEntity@idProgram@@QAEXPAVidEntity@@@Z 1016efc0 f   Script_Program.obj
 0001:0016dff0       ?MatchesType@idTypeDef@@QBE_NABV1@@Z 1016eff0 f   Script_Program.obj
 0001:0016e050       ?MatchesVirtualFunction@idTypeDef@@QBE_NABV1@@Z 1016f050 f   Script_Program.obj
 0001:0016e0d0       ?Name@idTypeDef@@QBEPBDXZ  1016f0d0 f   Script_Program.obj
 0001:0016e0d0       ?Length@idMD5Anim@@QBEHXZ  1016f0d0 f   Anim.obj
 0001:0016e0e0       ?SuperClass@idTypeDef@@QBEPAV1@XZ 1016f0e0 f   Script_Program.obj
 0001:0016e140       ?ReturnType@idTypeDef@@QBEPAV1@XZ 1016f140 f   Script_Program.obj
 0001:0016e1a0       ?FieldType@idTypeDef@@QBEPAV1@XZ 1016f1a0 f   Script_Program.obj
 0001:0016e200       ?SetFieldType@idTypeDef@@QAEXPAV1@@Z 1016f200 f   Script_Program.obj
 0001:0016e260       ?PointerType@idTypeDef@@QBEPAV1@XZ 1016f260 f   Script_Program.obj
 0001:0016e2c0       ?SetPointerType@idTypeDef@@QAEXPAV1@@Z 1016f2c0 f   Script_Program.obj
 0001:0016e320       ?GetParmType@idTypeDef@@QBEPAV1@H@Z 1016f320 f   Script_Program.obj
 0001:0016e330       ?GetParmName@idTypeDef@@QBEPBDH@Z 1016f330 f   Script_Program.obj
 0001:0016e350       ?NumFunctions@idTypeDef@@QBEHXZ 1016f350 f   Script_Program.obj
 0001:0016e360       ?GetFunctionNumber@idTypeDef@@QBEHPBVfunction_t@@@Z 1016f360 f   Script_Program.obj
 0001:0016e390       ?GetFunction@idTypeDef@@QBEPBVfunction_t@@H@Z 1016f390 f   Script_Program.obj
 0001:0016e3a0       ?Name@idVarDef@@QBEPBDXZ   1016f3a0 f   Script_Program.obj
 0001:0016e3b0       ?GlobalName@idVarDef@@QBEPBDXZ 1016f3b0 f   Script_Program.obj
 0001:0016e3e0       ?SetValue@idVarDef@@QAEXABTeval_s@@_N@Z 1016f3e0 f   Script_Program.obj
 0001:0016e530       ?PrintInfo@idVarDef@@QBEXPAVidFile@@H@Z 1016f530 f   Script_Program.obj
 0001:0016e7e0       ?Free@idScriptObject@@QAEXXZ 1016f7e0 f   Script_Program.obj
 0001:0016e7e0       ??1idScriptObject@@QAE@XZ  1016f7e0 f   Script_Program.obj
 0001:0016e810       ?Save@idScriptObject@@QBEXPAVidSaveGame@@@Z 1016f810 f   Script_Program.obj
 0001:0016e870       ?GetTypeName@idScriptObject@@QBEPBDXZ 1016f870 f   Script_Program.obj
 0001:0016e880       ?GetVariable@idScriptObject@@QBEPAEPBDW4etype_t@@@Z 1016f880 f   Script_Program.obj
 0001:0016ea90       ?FindType@idProgram@@QAEPAVidTypeDef@@PBD@Z 1016fa90 f   Script_Program.obj
 0001:0016eae0       ?AllocStatement@idProgram@@QAEPAUstatement_s@@XZ 1016fae0 f   Script_Program.obj
 0001:0016eb70       ?DisassembleStatement@idProgram@@QBEXPAVidFile@@H@Z 1016fb70 f   Script_Program.obj
 0001:0016ec40       ?Disassemble@idProgram@@QBEXXZ 1016fc40 f   Script_Program.obj
 0001:0016ecf0       ?FinishCompilation@idProgram@@QAEXXZ 1016fcf0 f   Script_Program.obj
 0001:0016ed60       ??1idCompiler@@QAE@XZ      1016fd60 f i Script_Program.obj
 0001:0016edb0       ?CalculateChecksum@idProgram@@QBEHXZ 1016fdb0 f   Script_Program.obj
 0001:0016ee80       ??0function_t@@QAE@XZ      1016fe80 f   Script_Program.obj
 0001:0016ef30       ?AddFunction@idTypeDef@@QAEXPBVfunction_t@@@Z 1016ff30 f   Script_Program.obj
 0001:0016f0c0       ?SetType@idScriptObject@@QAE_NPBD@Z 101700c0 f   Script_Program.obj
 0001:0016f190       ?GetDefList@idProgram@@QBEPAVidVarDef@@PBD@Z 10170190 f   Script_Program.obj
 0001:0016f240       ?AddDefToNameList@idProgram@@QAEXPAVidVarDef@@PBD@Z 10170240 f   Script_Program.obj
 0001:0016f550       ?GetDef@idProgram@@QBEPAVidVarDef@@PBVidTypeDef@@PBDPBV2@@Z 10170550 f   Script_Program.obj
 0001:0016f640       ?FreeDef@idProgram@@QAEXPAVidVarDef@@PBV2@@Z 10170640 f   Script_Program.obj
 0001:0016f7f0       ?FindFunction@idProgram@@QBEPAVfunction_t@@PBD@Z 101707f0 f   Script_Program.obj
 0001:0016f9b0       ?FindFunction@idProgram@@QBEPAVfunction_t@@PBDPBVidTypeDef@@@Z 101709b0 f   Script_Program.obj
 0001:0016fa50       ?AllocFunction@idProgram@@QAEAAVfunction_t@@PAVidVarDef@@@Z 10170a50 f   Script_Program.obj
 0001:0016fbc0       ?SetEntity@idProgram@@QAEXPBDPAVidEntity@@@Z 10170bc0 f   Script_Program.obj
 0001:0016fcd0       ?CompileStats@idProgram@@AAEXXZ 10170cd0 f   Script_Program.obj
 0001:0016ff10       ?Save@idProgram@@QBEXPAVidSaveGame@@@Z 10170f10 f   Script_Program.obj
 0001:0016ffe0       ??1function_t@@QAE@XZ      10170fe0 f i Script_Program.obj
 0001:00170040       ??0idTypeDef@@QAE@W4etype_t@@PAVidVarDef@@PBDHPAV0@@Z 10171040 f   Script_Program.obj
 0001:00170310       ??4idTypeDef@@QAEXABV0@@Z  10171310 f   Script_Program.obj
 0001:00170580       ?AddFunctionParm@idTypeDef@@QAEXPAV1@PBD@Z 10171580 f   Script_Program.obj
 0001:00170980       ?AddField@idTypeDef@@QAEXPAV1@PBD@Z 10171980 f   Script_Program.obj
 0001:00170de0       ?Restore@idScriptObject@@QAEXPAVidRestoreGame@@@Z 10171de0 f   Script_Program.obj
 0001:00170ec0       ?GetFunction@idScriptObject@@QBEPBVfunction_t@@PBD@Z 10171ec0 f   Script_Program.obj
 0001:00170ef0       ?AllocType@idProgram@@QAEPAVidTypeDef@@W4etype_t@@PAVidVarDef@@PBDHPAV2@@Z 10171ef0 f   Script_Program.obj
 0001:001710e0       ??1?$idStaticList@Vfunction_t@@$0OAA@@@QAE@XZ 101720e0 f i Script_Program.obj
 0001:00171100       ?GetConstructor@idScriptObject@@QBEPBVfunction_t@@XZ 10172100 f   Script_Program.obj
 0001:00171120       ?GetDestructor@idScriptObject@@QBEPBVfunction_t@@XZ 10172120 f   Script_Program.obj
 0001:00171140       ?AllocType@idProgram@@QAEPAVidTypeDef@@AAV2@@Z 10172140 f   Script_Program.obj
 0001:00171370       ?GetType@idProgram@@QAEPAVidTypeDef@@AAV2@_N@Z 10172370 f   Script_Program.obj
 0001:00171440       ?AllocDef@idProgram@@QAEPAVidVarDef@@PAVidTypeDef@@PBDPAV2@_N@Z 10172440 f   Script_Program.obj
 0001:001719c0       ?FindFreeResultDef@idProgram@@QAEPAVidVarDef@@PAVidTypeDef@@PBDPAV2@PBV2@3@Z 101729c0 f   Script_Program.obj
 0001:00171a20       ?FreeData@idProgram@@QAEXXZ 10172a20 f   Script_Program.obj
 0001:00171cb0       ?Restart@idProgram@@QAEXXZ 10172cb0 f   Script_Program.obj
 0001:00172110       ?GetFilenum@idProgram@@QAEHPBD@Z 10173110 f   Script_Program.obj
 0001:00172780       ??0idProgram@@QAE@XZ       10173780 f   Script_Program.obj
 0001:00172880       ??1idProgram@@QAE@XZ       10173880 f   Script_Program.obj
 0001:001729b0       ?BeginCompilation@idProgram@@QAEXXZ 101739b0 f   Script_Program.obj
 0001:00172a80       ?CompileText@idProgram@@QAE_NPBD0_N@Z 10173a80 f   Script_Program.obj
 0001:00172cd0       ?CompileFile@idProgram@@QAEXPBD@Z 10173cd0 f   Script_Program.obj
 0001:00172d60       ?Startup@idProgram@@QAEXPBD@Z 10173d60 f   Script_Program.obj
 0001:00172db0       ?Restore@idProgram@@QAE_NPAVidRestoreGame@@@Z 10173db0 f   Script_Program.obj
 0001:00172ee0       ?GetType@idThread@@UBEPAVidTypeInfo@@XZ 10173ee0 f   Script_Thread.obj
 0001:00172ef0       ?CurrentThread@idThread@@SAPAV1@XZ 10173ef0 f   Script_Thread.obj
 0001:00172f00       ?CurrentThreadNum@idThread@@SAHXZ 10173f00 f   Script_Thread.obj
 0001:00172f20       ?BeginMultiFrameEvent@idThread@@SA_NPAVidEntity@@PBVidEventDef@@@Z 10173f20 f   Script_Thread.obj
 0001:00172f60       ?EndMultiFrameEvent@idThread@@SAXPAVidEntity@@PBVidEventDef@@@Z 10173f60 f   Script_Thread.obj
 0001:00172fa0       ?ManualDelete@idThread@@QAEXXZ 10173fa0 f   Script_Thread.obj
 0001:00172fb0       ?Restore@idThread@@QAEXPAVidRestoreGame@@@Z 10173fb0 f   Script_Thread.obj
 0001:00173040       ?DelayedStart@idThread@@QAEXH@Z 10174040 f   Script_Thread.obj
 0001:00173070       ?IsWaiting@idThread@@QAE_NXZ 10174070 f   Script_Thread.obj
 0001:001730a0       ?ObjectMoveDone@idThread@@QAEXPAVidEntity@@@Z 101740a0 f   Script_Thread.obj
 0001:001730f0       ?Event_SetThreadName@idThread@@AAEXPBD@Z 101740f0 f   Script_Thread.obj
 0001:001730f0       ?SetThreadName@idThread@@QAEXPBD@Z 101740f0 f   Script_Thread.obj
 0001:00173100       ?Error@idThread@@QBAXPBDZZ 10174100 f   Script_Thread.obj
 0001:00173140       ?Warning@idThread@@QBAXPBDZZ 10174140 f   Script_Thread.obj
 0001:00173180       ?ReturnString@idThread@@SAXPBD@Z 10174180 f   Script_Thread.obj
 0001:001731a0       ?ReturnFloat@idThread@@SAXM@Z 101741a0 f   Script_Thread.obj
 0001:001731b0       ?ReturnInt@idThread@@SAXH@Z 101741b0 f   Script_Thread.obj
 0001:001731c0       ?ReturnEntity@idThread@@SAXPAVidEntity@@@Z 101741c0 f   Script_Thread.obj
 0001:001731d0       ?Event_WaitFrame@idThread@@AAEXXZ 101741d0 f   Script_Thread.obj
 0001:001731d0       ?WaitFrame@idThread@@QAEXXZ 101741d0 f   Script_Thread.obj
 0001:00173200       ?Event_Pause@idThread@@AAEXXZ 10174200 f   Script_Thread.obj
 0001:00173220       ?WaitSec@idThread@@QAEXM@Z 10174220 f   Script_Thread.obj
 0001:00173220       ?Event_Wait@idThread@@AAEXM@Z 10174220 f   Script_Thread.obj
 0001:00173260       ?Event_WaitFor@idThread@@AAEXPAVidEntity@@@Z 10174260 f   Script_Thread.obj
 0001:001732d0       ?Event_Print@idThread@@AAEXPBD@Z 101742d0 f   Script_Thread.obj
 0001:001732f0       ?Event_PrintLn@idThread@@AAEXPBD@Z 101742f0 f   Script_Thread.obj
 0001:00173310       ?Event_Say@idThread@@AAEXPBD@Z 10174310 f   Script_Thread.obj
 0001:00173340       ?Event_Trigger@idThread@@AAEXPAVidEntity@@@Z 10174340 f   Script_Thread.obj
 0001:00173390       ?Event_SetCvar@idThread@@ABEXPBD0@Z 10174390 f   Script_Thread.obj
 0001:001733b0       ?Event_GetCvar@idThread@@ABEXPBD@Z 101743b0 f   Script_Thread.obj
 0001:001733e0       ?Event_Random@idThread@@ABEXM@Z 101743e0 f   Script_Thread.obj
 0001:00173430       ?Event_RandomInt@idThread@@ABEXH@Z 10174430 f   Script_Thread.obj
 0001:00173480       ?Event_GetTime@idThread@@AAEXXZ 10174480 f   Script_Thread.obj
 0001:001734a0       ?Event_GetEntity@idThread@@AAEXPBD@Z 101744a0 f   Script_Thread.obj
 0001:00173510       ?Event_Spawn@idThread@@AAEXPBD@Z 10174510 f   Script_Thread.obj
 0001:00173560       ?Event_CopySpawnArgs@idThread@@AAEXPAVidEntity@@@Z 10174560 f   Script_Thread.obj
 0001:00173580       ?Event_SetSpawnArg@idThread@@AAEXPBD0@Z 10174580 f   Script_Thread.obj
 0001:00173590       ?Event_SpawnFloat@idThread@@AAEXPBDM@Z 10174590 f   Script_Thread.obj
 0001:001735e0       ?Event_ClearPersistantArgs@idThread@@AAEXXZ 101745e0 f   Script_Thread.obj
 0001:001735f0       ?Event_SetPersistantArg@idThread@@AAEXPBD0@Z 101745f0 f   Script_Thread.obj
 0001:00173600       ?Event_GetPersistantFloat@idThread@@AAEXPBD@Z 10174600 f   Script_Thread.obj
 0001:00173630       ?Event_GetSine@idThread@@AAEXM@Z 10174630 f   Script_Thread.obj
 0001:00173660       ?Event_GetCosine@idThread@@AAEXM@Z 10174660 f   Script_Thread.obj
 0001:00173690       ?Event_GetArcSine@idThread@@AAEXM@Z 10174690 f   Script_Thread.obj
 0001:00173700       ?Event_GetArcCosine@idThread@@AAEXM@Z 10174700 f   Script_Thread.obj
 0001:00173760       ?Event_GetSquareRoot@idThread@@AAEXM@Z 10174760 f   Script_Thread.obj
 0001:001737f0       ?Event_VecDotProduct@idThread@@AAEXAAVidVec3@@0@Z 101747f0 f   Script_Thread.obj
 0001:00173830       ?Event_OnSignal@idThread@@AAEXHPAVidEntity@@PBD@Z 10174830 f   Script_Thread.obj
 0001:001738a0       ?Event_ClearSignalThread@idThread@@AAEXHPAVidEntity@@@Z 101748a0 f   Script_Thread.obj
 0001:001738f0       ?Event_SetCamera@idThread@@AAEXPAVidEntity@@@Z 101748f0 f   Script_Thread.obj
 0001:00173950       ?Event_FirstPerson@idThread@@AAEXXZ 10174950 f   Script_Thread.obj
 0001:00173960       ?Event_TracePoint@idThread@@AAEXABVidVec3@@0HPAVidEntity@@@Z 10174960 f   Script_Thread.obj
 0001:001739a0       ?Event_GetTraceFraction@idThread@@AAEXXZ 101749a0 f   Script_Thread.obj
 0001:001739c0       ?Event_GetTraceEntity@idThread@@AAEXXZ 101749c0 f   Script_Thread.obj
 0001:00173a00       ?Event_GetTraceJoint@idThread@@AAEXXZ 10174a00 f   Script_Thread.obj
 0001:00173aa0       ?Event_SetShaderParm@idThread@@AAEXHM@Z 10174aa0 f   Script_Thread.obj
 0001:00173ad0       ?Event_StartMusic@idThread@@AAEXPBD@Z 10174ad0 f   Script_Thread.obj
 0001:00173af0       ?Event_Warning@idThread@@AAEXPBD@Z 10174af0 f   Script_Thread.obj
 0001:00173b10       ?Event_Error@idThread@@AAEXPBD@Z 10174b10 f   Script_Thread.obj
 0001:00173b30       ?Event_StrLen@idThread@@AAEXPBD@Z 10174b30 f   Script_Thread.obj
 0001:00173b60       ?Event_StrRight@idThread@@AAEXPBDH@Z 10174b60 f   Script_Thread.obj
 0001:00173be0       ?Event_StrSkip@idThread@@AAEXPBDH@Z 10174be0 f   Script_Thread.obj
 0001:00173c60       ?Event_StrToFloat@idThread@@AAEXPBD@Z 10174c60 f   Script_Thread.obj
 0001:00173c90       ?Event_RadiusDamage@idThread@@AAEXABVidVec3@@PAVidEntity@@11PBDM@Z 10174c90 f   Script_Thread.obj
 0001:00173cc0       ?Event_IsClient@idThread@@AAEXXZ 10174cc0 f   Script_Thread.obj
 0001:00173ce0       ?Event_IsMultiplayer@idThread@@AAEXXZ 10174ce0 f   Script_Thread.obj
 0001:00173d00       ?Event_GetFrameTime@idThread@@AAEXXZ 10174d00 f   Script_Thread.obj
 0001:00173d20       ?Event_GetTicsPerSecond@idThread@@AAEXXZ 10174d20 f   Script_Thread.obj
 0001:00173d40       ?Event_CacheSoundShader@idEntity@@AAEXPBD@Z 10174d40 f   Entity.obj
 0001:00173d40       ?Event_CacheSoundShader@idThread@@AAEXPBD@Z 10174d40 f   Script_Thread.obj
 0001:00173d60       ?Event_DebugLine@idThread@@AAEXABVidVec3@@00M@Z 10174d60 f   Script_Thread.obj
 0001:00173dd0       ?Event_DebugArrow@idThread@@AAEXABVidVec3@@00HM@Z 10174dd0 f   Script_Thread.obj
 0001:00173e40       ?Event_DebugCircle@idThread@@AAEXABVidVec3@@00MHM@Z 10174e40 f   Script_Thread.obj
 0001:00173eb0       ?Event_DrawText@idThread@@AAEXPBDABVidVec3@@M1HM@Z 10174eb0 f   Script_Thread.obj
 0001:00173f50       ?Event_InfluenceActive@idThread@@AAEXXZ 10174f50 f   Script_Thread.obj
 0001:00173f90       ?Save@idThread@@QBEXPAVidSaveGame@@@Z 10174f90 f   Script_Thread.obj
 0001:00174020       ?GetThread@idThread@@SAPAV1@H@Z 10175020 f   Script_Thread.obj
 0001:00174060       ?ListThreads_f@idThread@@SAXABVidCmdArgs@@@Z 10175060 f   Script_Thread.obj
 0001:001740d0       ?Restart@idThread@@SAXXZ   101750d0 f   Script_Thread.obj
 0001:00174150       ?ObjectMoveDone@idThread@@SAXHPAVidEntity@@@Z 10175150 f   Script_Thread.obj
 0001:00174190       ?KillThread@idThread@@SAXPBD@Z 10175190 f   Script_Thread.obj
 0001:00174210       ?KillThread@idThread@@SAXH@Z 10175210 f   Script_Thread.obj
 0001:00174270       ?Execute@idThread@@QAE_NXZ 10175270 f   Script_Thread.obj
 0001:00174340       ?CallFunction@idThread@@QAEXPBVfunction_t@@_N@Z 10175340 f   Script_Thread.obj
 0001:00174360       ?CallFunction@idThread@@QAEXPAVidEntity@@PBVfunction_t@@_N@Z 10175360 f   Script_Thread.obj
 0001:00174380       ?ReturnVector@idThread@@SAXABVidVec3@@@Z 10175380 f   Script_Thread.obj
 0001:001743a0       ?Event_Execute@idThread@@AAEXXZ 101753a0 f   Script_Thread.obj
 0001:001743b0       ?Event_TerminateThread@idThread@@AAEXH@Z 101753b0 f   Script_Thread.obj
 0001:001743f0       ?Event_WaitForThread@idThread@@AAEXH@Z 101753f0 f   Script_Thread.obj
 0001:00174460       ?Event_KillThread@idThread@@AAEXPBD@Z 10175460 f   Script_Thread.obj
 0001:00174470       ?Event_SpawnString@idThread@@AAEXPBD0@Z 10175470 f   Script_Thread.obj
 0001:001744b0       ?Event_SpawnVector@idThread@@AAEXPBDAAVidVec3@@@Z 101754b0 f   Script_Thread.obj
 0001:00174520       ?Event_GetPersistantString@idThread@@AAEXPBD@Z 10175520 f   Script_Thread.obj
 0001:00174560       ?Event_GetPersistantVector@idThread@@AAEXPBD@Z 10175560 f   Script_Thread.obj
 0001:001745a0       ?Event_AngToForward@idThread@@AAEXAAVidAngles@@@Z 101755a0 f   Script_Thread.obj
 0001:001745d0       ?Event_AngToRight@idThread@@AAEXAAVidAngles@@@Z 101755d0 f   Script_Thread.obj
 0001:00174610       ?Event_AngToUp@idThread@@AAEXAAVidAngles@@@Z 10175610 f   Script_Thread.obj
 0001:00174650       ?Event_VecNormalize@idThread@@AAEXAAVidVec3@@@Z 10175650 f   Script_Thread.obj
 0001:00174730       ?Event_VecLength@idThread@@AAEXAAVidVec3@@@Z 10175730 f   Script_Thread.obj
 0001:001747e0       ?Event_VecCrossProduct@idThread@@AAEXAAVidVec3@@0@Z 101757e0 f   Script_Thread.obj
 0001:00174840       ?Event_VecToAngles@idThread@@AAEXAAVidVec3@@@Z 10175840 f   Script_Thread.obj
 0001:00174890       ?Event_VecToOrthoBasisAngles@idThread@@AAEXAAVidVec3@@@Z 10175890 f   Script_Thread.obj
 0001:00174ac0       ?Event_RotateVector@idThread@@AAEXAAVidVec3@@0@Z 10175ac0 f   Script_Thread.obj
 0001:00174b70       ?Event_Trace@idThread@@AAEXABVidVec3@@000HPAVidEntity@@@Z 10175b70 f   Script_Thread.obj
 0001:00174cb0       ?Event_GetTraceEndPos@idThread@@AAEXXZ 10175cb0 f   Script_Thread.obj
 0001:00174ce0       ?Event_GetTraceNormal@idThread@@AAEXXZ 10175ce0 f   Script_Thread.obj
 0001:00174d40       ?Event_GetTraceBody@idThread@@AAEXXZ 10175d40 f   Script_Thread.obj
 0001:00174de0       ?Event_FadeIn@idThread@@AAEXAAVidVec3@@M@Z 10175de0 f   Script_Thread.obj
 0001:00174e60       ?Event_FadeOut@idThread@@AAEXAAVidVec3@@M@Z 10175e60 f   Script_Thread.obj
 0001:00174ee0       ?Event_FadeTo@idThread@@AAEXAAVidVec3@@MM@Z 10175ee0 f   Script_Thread.obj
 0001:00174f60       ?Event_StrLeft@idThread@@AAEXPBDH@Z 10175f60 f   Script_Thread.obj
 0001:001750c0       ?Event_StrMid@idThread@@AAEXPBDHH@Z 101760c0 f   Script_Thread.obj
 0001:00175210       ?Event_DebugBounds@idThread@@AAEXABVidVec3@@00M@Z 10176210 f   Script_Thread.obj
 0001:001752a0       ?Init@idThread@@AAEXXZ     101762a0 f   Script_Thread.obj
 0001:001754a0       ?Start@idThread@@QAE_NXZ   101764a0 f   Script_Thread.obj
 0001:001754c0       ??0idThread@@QAE@XZ        101764c0 f   Script_Thread.obj
 0001:00175680       ??0idThread@@QAE@PBVfunction_t@@@Z 10176680 f   Script_Thread.obj
 0001:00175840       ??0idThread@@QAE@PAVidInterpreter@@PBVfunction_t@@H@Z 10176840 f   Script_Thread.obj
 0001:001759f0       ??0idThread@@QAE@PAVidInterpreter@@PAVidEntity@@PBVfunction_t@@H@Z 101769f0 f   Script_Thread.obj
 0001:00175bc0       ??1idThread@@UAE@XZ        10176bc0 f   Script_Thread.obj
 0001:00175d60       ?CreateInstance@idThread@@SAPAVidClass@@XZ 10176d60 f   Script_Thread.obj
 0001:00175e00       ??_EidThread@@UAEPAXI@Z    10176e00 f i Script_Thread.obj
 0001:00175e00       ??_GidThread@@UAEPAXI@Z    10176e00 f i Script_Thread.obj
 0001:00175e20       ?InverseFastSelf@idMat6@@QAE_NXZ 10176e20 f   idLib:Matrix.obj
 0001:00176920       ?InverseFastSelf@idMat2@@QAE_NXZ 10177920 f   idLib:Matrix.obj
 0001:00176980       ?ToAngles@idMat3@@QBE?AVidAngles@@XZ 10177980 f   idLib:Matrix.obj
 0001:00176a70       ?ToQuat@idMat3@@QBE?AVidQuat@@XZ 10177a70 f   idLib:Matrix.obj
 0001:00176c70       ?ToCQuat@idMat3@@QBE?AVidCQuat@@XZ 10177c70 f   idLib:Matrix.obj
 0001:00176cd0       ?ToRotation@idMat3@@QBE?AVidRotation@@XZ 10177cd0 f   idLib:Matrix.obj
 0001:00177280       ?ToAngularVelocity@idMat3@@QBE?AVidVec3@@XZ 10178280 f   idLib:Matrix.obj
 0001:001772d0       ?InverseSelf@idMat3@@QAE_NXZ 101782d0 f   idLib:Matrix.obj
 0001:001772d0       ?InverseFastSelf@idMat3@@QAE_NXZ 101782d0 f   idLib:Matrix.obj
 0001:00177420       ?ToString@idMat3@@QBEPBDH@Z 10178420 f   idLib:Matrix.obj
 0001:00177440       ?ToString@idMat4@@QBEPBDH@Z 10178440 f   idLib:Matrix.obj
 0001:00177460       ?InverseFastSelf@idMat5@@QAE_NXZ 10178460 f   idLib:Matrix.obj
 0001:00177a70       ?ToString@idMat5@@QBEPBDH@Z 10178a70 f   idLib:Matrix.obj
 0001:00177a90       ?ToString@idMat6@@QBEPBDH@Z 10178a90 f   idLib:Matrix.obj
 0001:00177ab0       ?ChangeSize@idMatX@@QAEXHH_N@Z 10178ab0 f   idLib:Matrix.obj
 0001:00177e70       ?ToString@idMatX@@QBEPBDH@Z 10178e70 f   idLib:Matrix.obj
 0001:00177e90       ?LU_Factor@idMatX@@QAE_NPAHPAM@Z 10178e90 f   idLib:Matrix.obj
 0001:00178250       ?LU_Solve@idMatX@@QBEXAAVidVecX@@ABV2@PBH@Z 10179250 f   idLib:Matrix.obj
 0001:00178430       ?InverseSelfGeneric@idMatX@@AAE_NXZ 10179430 f   idLib:Matrix.obj
 0001:00178650       ?InverseFastSelf@idMat4@@QAE_NXZ 10179650 f   idLib:Matrix.obj
 0001:001789a0       ?BitsToFloat@idMath@@SAMHHH@Z 101799a0 f   idLib:Math.obj
 0001:00178a10       ?Init@idMath@@SAXXZ        10179a10 f   idLib:Math.obj
 0001:00178a80       ?FloatToBits@idMath@@SAHMHH@Z 10179a80 f   idLib:Math.obj
 0001:00178c40       ?ColorForIndex@idStr@@SAAAVidVec4@@H@Z 10179c40 f   idLib:Str.obj
 0001:00178c50       ?FindChar@idStr@@SAHPBDDHH@Z 10179c50 f   idLib:Str.obj
 0001:00178c90       ?FindText@idStr@@SAHPBD0_NHH@Z 10179c90 f   idLib:Str.obj
 0001:00178d50       ?BackSlashesToSlashes@idStr@@QAEAAV1@XZ 10179d50 f   idLib:Str.obj
 0001:00178d80       ?StripFileExtension@idStr@@QAEAAV1@XZ 10179d80 f   idLib:Str.obj
 0001:00178db0       ?IsNumeric@idStr@@SA_NPBD@Z 10179db0 f   idLib:Str.obj
 0001:00178df0       ?Cmp@idStr@@SAHPBD0@Z      10179df0 f   idLib:Str.obj
 0001:00178e30       ?Cmpn@idStr@@SAHPBD0H@Z    10179e30 f   idLib:Str.obj
 0001:00178e70       ?Icmp@idStr@@SAHPBD0@Z     10179e70 f   idLib:Str.obj
 0001:00178ec0       ?Icmpn@idStr@@SAHPBD0H@Z   10179ec0 f   idLib:Str.obj
 0001:00178f20       ?IcmpPath@idStr@@SAHPBD0@Z 10179f20 f   idLib:Str.obj
 0001:00178fe0       ?Copynz@idStr@@SAXPADPBDH@Z 10179fe0 f   idLib:Str.obj
 0001:00179040       ?Append@idStr@@SAXPADHPBD@Z 1017a040 f   idLib:Str.obj
 0001:00179090       ?snPrintf@idStr@@SAHPADHPBDZZ 1017a090 f   idLib:Str.obj
 0001:00179150       ?vsnPrintf@idStr@@SAHPADHPBD0@Z 1017a150 f   idLib:Str.obj
 0001:00179190       ?va@@YAPADPBDZZ            1017a190 f   idLib:Str.obj
 0001:001791d0       ?Shutdown@?$idBlockAlloc@V?$idBTreeNode@V?$idDynamicBlock@D@@H@@$0IA@@@QAEXXZ 1017a1d0 f i idLib:Str.obj
 0001:001791d0       ?Shutdown@?$idBlockAlloc@V?$idBTreeNode@V?$idDynamicBlock@E@@H@@$0IA@@@QAEXXZ 1017a1d0 f i Event.obj
 0001:00179220       ?Alloc@?$idBlockAlloc@V?$idBTreeNode@V?$idDynamicBlock@E@@H@@$0IA@@@QAEPAV?$idBTreeNode@V?$idDynamicBlock@E@@H@@XZ 1017a220 f i Event.obj
 0001:00179220       ?Alloc@?$idBlockAlloc@V?$idBTreeNode@V?$idDynamicBlock@D@@H@@$0IA@@@QAEPAV?$idBTreeNode@V?$idDynamicBlock@D@@H@@XZ 1017a220 f i idLib:Str.obj
 0001:00179290       ?FloatArrayToString@idStr@@SAPBDPBMHH@Z 1017a290 f   idLib:Str.obj
 0001:001793b0       ?StripLeading@idStr@@QAEXPBD@Z 1017a3b0 f   idLib:Str.obj
 0001:00179430       ?StripLeadingOnce@idStr@@QAE_NPBD@Z 1017a430 f   idLib:Str.obj
 0001:001794c0       ?StripTrailing@idStr@@QAEXD@Z 1017a4c0 f   idLib:Str.obj
 0001:001794f0       ?StripTrailing@idStr@@QAEXPBD@Z 1017a4f0 f   idLib:Str.obj
 0001:00179580       ?StripTrailingWhitespace@idStr@@QAEXXZ 1017a580 f   idLib:Str.obj
 0001:001795b0       ?StripFilename@idStr@@QAEAAV1@XZ 1017a5b0 f   idLib:Str.obj
 0001:001795f0       ?IcmpNoColor@idStr@@SAHPBD0@Z 1017a5f0 f   idLib:Str.obj
 0001:00179670       ?RemoveColors@idStr@@SAPADPAD@Z 1017a670 f   idLib:Str.obj
 0001:001796b0       ??1?$idBlockAlloc@V?$idBTreeNode@V?$idDynamicBlock@E@@H@@$0IA@@@QAE@XZ 1017a6b0 f i Event.obj
 0001:001796b0       ??1?$idBlockAlloc@V?$idBTreeNode@V?$idDynamicBlock@D@@H@@$0IA@@@QAE@XZ 1017a6b0 f i idLib:Str.obj
 0001:001796c0       ?InitMemory@idStr@@SAXXZ   1017a6c0 f   idLib:Str.obj
 0001:001796f0       ?AllocInternal@?$idDynamicBlockAlloc@D$0EAAAA@$0IA@@@AAEPAV?$idDynamicBlock@D@@H@Z 1017a6f0 f i idLib:Str.obj
 0001:00179a20       ?FreeInternal@?$idDynamicBlockAlloc@D$0EAAAA@$0IA@@@AAEXPAV?$idDynamicBlock@D@@@Z 1017aa20 f i idLib:Str.obj
 0001:00179a20       ?FreeInternal@?$idDynamicBlockAlloc@E$0EAAA@$0BAA@@@AAEXPAV?$idDynamicBlock@E@@@Z 1017aa20 f i Event.obj
 0001:0017a530       ?Shutdown@?$idDynamicBlockAlloc@E$0EAAA@$0BAA@@@QAEXXZ 1017b530 f i Event.obj
 0001:0017a530       ?Shutdown@?$idDynamicBlockAlloc@D$0EAAAA@$0IA@@@QAEXXZ 1017b530 f i idLib:Str.obj
 0001:0017a600       ?ResizeInternal@?$idDynamicBlockAlloc@D$0EAAAA@$0IA@@@AAEPAV?$idDynamicBlock@D@@PAV2@H@Z 1017b600 f i idLib:Str.obj
 0001:0017a990       ?FreeData@idStr@@QAEXXZ    1017b990 f   idLib:Str.obj
 0001:0017a9e0       ?ShutdownMemory@idStr@@SAXXZ 1017b9e0 f   idLib:Str.obj
 0001:0017a9f0       ?ReAllocate@idStr@@QAEXH_N@Z 1017b9f0 f   idLib:Str.obj
 0001:0017aad0       ??4idStr@@QAEXPBD@Z        1017bad0 f   idLib:Str.obj
 0001:0017ab80       ?Replace@idStr@@QAEXPBD0@Z 1017bb80 f   idLib:Str.obj
 0001:0017ade0       ?Mid@idStr@@QBEPBDHHAAV1@@Z 1017bde0 f   idLib:Str.obj
 0001:0017ae90       ?Mid@idStr@@QBE?AV1@HH@Z   1017be90 f   idLib:Str.obj
 0001:0017b050       ?SetFileExtension@idStr@@QAEAAV1@PBD@Z 1017c050 f   idLib:Str.obj
 0001:0017b100       ?DefaultFileExtension@idStr@@QAEAAV1@PBD@Z 1017c100 f   idLib:Str.obj
 0001:0017b1b0       ?AppendPath@idStr@@QAEXPBD@Z 1017c1b0 f   idLib:Str.obj
 0001:0017b240       ?sprintf@@YAHAAVidStr@@PBDZZ 1017c240 f   idLib:Str.obj
 0001:0017b2b0       ?vsprintf@@YAHAAVidStr@@PBDPAD@Z 1017c2b0 f   idLib:Str.obj
 0001:0017b320       ?Filter@idStr@@SA_NPBD0_N@Z 1017c320 f   idLib:Str.obj
 0001:0017b7a0       ?StripPath@idStr@@QAEAAV1@XZ 1017c7a0 f   idLib:Str.obj
 0001:0017b880       ?ExtractFilePath@idStr@@QBEXAAV1@@Z 1017c880 f   idLib:Str.obj
 0001:0017b8c0       ?ExtractFileExtension@idStr@@QBEXAAV1@@Z 1017c8c0 f   idLib:Str.obj
 0001:0017b960       ?Init@idHashIndex@@AAEXHH@Z 1017c960 f   idLib:HashIndex.obj
 0001:0017b990       ?Free@idHashIndex@@QAEXXZ  1017c990 f   idLib:HashIndex.obj
 0001:0017b9d0       ?ResizeIndex@idHashIndex@@QAEXH@Z 1017c9d0 f   idLib:HashIndex.obj
 0001:0017ba60       ?Allocate@idHashIndex@@AAEXHH@Z 1017ca60 f   idLib:HashIndex.obj
 0001:0017bb20       ?Print@idDict@@QBEXXZ      1017cb20 f   idLib:Dict.obj
 0001:0017bb70       ?Allocated@idDict@@QBEIXZ  1017cb70 f   idLib:Dict.obj
 0001:0017bbd0       ?Init@idDict@@SAXXZ        1017cbd0 f   idLib:Dict.obj
 0001:0017bbf0       ?Clear@idDict@@QAEXXZ      1017cbf0 f   idLib:Dict.obj
 0001:0017c130       ?FindKey@idDict@@QBEPBVidKeyValue@@PBD@Z 1017d130 f   idLib:Dict.obj
 0001:0017c1e0       ?FindKeyIndex@idDict@@QBEHPBD@Z 1017d1e0 f   idLib:Dict.obj
 0001:0017c290       ?Delete@idDict@@QAEXPBD@Z  1017d290 f   idLib:Dict.obj
 0001:0017c910       ?MatchPrefix@idDict@@QBEPBVidKeyValue@@PBDPBV2@@Z 1017d910 f   idLib:Dict.obj
 0001:0017c9b0       ?RandomPrefix@idDict@@QBEPBDPBDAAVidRandom@@@Z 1017d9b0 f   idLib:Dict.obj
 0001:0017caa0       ??4idDict@@QAEAAV0@ABV0@@Z 1017daa0 f   idLib:Dict.obj
 0001:0017d360       ?Copy@idDict@@QAEXABV1@@Z  1017e360 f   idLib:Dict.obj
 0001:0017e340       ?TransferKeyValues@idDict@@QAEXAAV1@@Z 1017f340 f   idLib:Dict.obj
 0001:0017e550       ?SetDefaults@idDict@@QAEXPBV1@@Z 1017f550 f   idLib:Dict.obj
 0001:0017ee60       ?Set@idDict@@QAEXPBD0@Z    1017fe60 f   idLib:Dict.obj
 0001:0017fd00       ?GetFloat@idDict@@QBE_NPBD0AAM@Z 10180d00 f   idLib:Dict.obj
 0001:0017fd50       ?GetInt@idDict@@QBE_NPBD0AAH@Z 10180d50 f   idLib:Dict.obj
 0001:0017fda0       ?GetBool@idDict@@QBE_NPBD0AA_N@Z 10180da0 f   idLib:Dict.obj
 0001:0017fde0       ?GetVector@idDict@@QBE_NPBD0AAVidVec3@@@Z 10180de0 f   idLib:Dict.obj
 0001:0017fde0       ?GetAngles@idDict@@QBE_NPBD0AAVidAngles@@@Z 10180de0 f   idLib:Dict.obj
 0001:0017fe40       ?GetVec4@idDict@@QBE_NPBD0AAVidVec4@@@Z 10180e40 f   idLib:Dict.obj
 0001:0017fea0       ?GetMatrix@idDict@@QBE_NPBD0AAVidMat3@@@Z 10180ea0 f   idLib:Dict.obj
 0001:0017ff60       ?Shutdown@idDict@@SAXXZ    10180f60 f   idLib:Dict.obj
 0001:00180080       ?CreatePunctuationTable@idLexer@@AAEXPBUpunctuation_s@@@Z 10181080 f   idLib:Lexer.obj
 0001:00180240       ?GetPunctuationFromId@idLexer@@QAEPBDH@Z 10181240 f   idLib:Lexer.obj
 0001:00180270       ?GetPunctuationId@idLexer@@QAEHPBD@Z 10181270 f   idLib:Lexer.obj
 0001:001802c0       ?SetPunctuations@idLexer@@QAEXPBUpunctuation_s@@@Z 101812c0 f   idLib:Lexer.obj
 0001:001802f0       ?EndOfFile@idLexer@@QAEHXZ 101812f0 f   idLib:Lexer.obj
 0001:00180300       ?LoadMemory@idLexer@@QAEHPBDH0H@Z 10181300 f   idLib:Lexer.obj
 0001:00180380       ?Error@idLexer@@QAAXPBDZZ  10181380 f   idLib:Lexer.obj
 0001:00180400       ?Warning@idLexer@@QAAXPBDZZ 10181400 f   idLib:Lexer.obj
 0001:00180460       ?ReadWhiteSpace@idLexer@@AAEHXZ 10181460 f   idLib:Lexer.obj
 0001:00180530       ?ReadEscapeCharacter@idLexer@@AAEHPAD@Z 10181530 f   idLib:Lexer.obj
 0001:001807d0       ?ReadString@idLexer@@AAEHPAVidToken@@H@Z 101817d0 f   idLib:Lexer.obj
 0001:001809a0       ?ReadName@idLexer@@AAEHPAVidToken@@@Z 101819a0 f   idLib:Lexer.obj
 0001:00180a40       ?ReadNumber@idLexer@@AAEHPAVidToken@@@Z 10181a40 f   idLib:Lexer.obj
 0001:00181020       ?ReadPunctuation@idLexer@@AAEHPAVidToken@@@Z 10182020 f   idLib:Lexer.obj
 0001:001810e0       ?LoadFile@idLexer@@QAEHPBD_N@Z 101820e0 f   idLib:Lexer.obj
 0001:001812b0       ?FreeSource@idLexer@@QAEXXZ 101822b0 f   idLib:Lexer.obj
 0001:00181320       ??0idLexer@@QAE@XZ         10182320 f   idLib:Lexer.obj
 0001:001813d0       ??0idLexer@@QAE@H@Z        101823d0 f   idLib:Lexer.obj
 0001:00181490       ??0idLexer@@QAE@PBDH_N@Z   10182490 f   idLib:Lexer.obj
 0001:00181540       ??0idLexer@@QAE@PBDH0H@Z   10182540 f   idLib:Lexer.obj
 0001:00181600       ??1idLexer@@QAE@XZ         10182600 f   idLib:Lexer.obj
 0001:00181660       ??4idToken@@QAEAAV0@ABV0@@Z 10182660 f i idLib:Lexer.obj
 0001:001816e0       ?ReadToken@idLexer@@QAEHPAVidToken@@@Z 101826e0 f   idLib:Lexer.obj
 0001:00181880       ?ExpectTokenString@idLexer@@QAEHPBD@Z 10182880 f   idLib:Lexer.obj
 0001:00181980       ?ExpectTokenType@idLexer@@QAEHHHPAVidToken@@@Z 10182980 f   idLib:Lexer.obj
 0001:00181ce0       ?CheckTokenString@idLexer@@QAEHPBD@Z 10182ce0 f   idLib:Lexer.obj
 0001:00181da0       ?CheckTokenType@idLexer@@QAEHHHPAVidToken@@@Z 10182da0 f   idLib:Lexer.obj
 0001:00181e70       ?SkipUntilString@idLexer@@QAEHPBD@Z 10182e70 f   idLib:Lexer.obj
 0001:00181f30       ?UnreadToken@idLexer@@QAEXPBVidToken@@@Z 10182f30 f   idLib:Lexer.obj
 0001:00181f70       ?ReadTokenOnLine@idLexer@@QAEHPAVidToken@@@Z 10182f70 f   idLib:Lexer.obj
 0001:00182060       ?ParseInt@idLexer@@QAEHXZ  10183060 f   idLib:Lexer.obj
 0001:001821b0       ?ParseFloat@idLexer@@QAEMPA_N@Z 101831b0 f   idLib:Lexer.obj
 0001:00182340       ?Parse1DMatrix@idLexer@@QAEHHPAM@Z 10183340 f   idLib:Lexer.obj
 0001:001823a0       ?Parse2DMatrix@idLexer@@QAEHHHPAM@Z 101833a0 f   idLib:Lexer.obj
 0001:00182450       ?Normalize360@idAngles@@QAEAAV1@XZ 10183450 f   idLib:Angles.obj
 0001:00182520       ?Normalize180@idAngles@@QAEAAV1@XZ 10183520 f   idLib:Angles.obj
 0001:00182570       ?ToVectors@idAngles@@QBEXPAVidVec3@@00@Z 10183570 f   idLib:Angles.obj
 0001:001826b0       ?ToForward@idAngles@@QBE?AVidVec3@@XZ 101836b0 f   idLib:Angles.obj
 0001:00182740       ?ToRotation@idAngles@@QBE?AVidRotation@@XZ 10183740 f   idLib:Angles.obj
 0001:00182d10       ?ToMat3@idAngles@@QBE?AVidMat3@@XZ 10183d10 f   idLib:Angles.obj
 0001:00182e40       ?ToAngularVelocity@idAngles@@QBE?AVidVec3@@XZ 10183e40 f   idLib:Angles.obj
 0001:00182e90       ?ToString@idVec2@@QBEPBDH@Z 10183e90 f   idLib:Vector.obj
 0001:00182eb0       ?ToYaw@idVec3@@QBEMXZ      10183eb0 f   idLib:Vector.obj
 0001:00182f10       ?ToPitch@idVec3@@QBEMXZ    10183f10 f   idLib:Vector.obj
 0001:00183020       ?ToAngles@idVec3@@QBE?AVidAngles@@XZ 10184020 f   idLib:Vector.obj
 0001:00183190       ?ToMat3@idVec3@@QBE?AVidMat3@@XZ 10184190 f   idLib:Vector.obj
 0001:001832b0       ?ToString@idAngles@@QBEPBDH@Z 101842b0 f   idLib:Angles.obj
 0001:001832b0       ?ToString@idVec3@@QBEPBDH@Z 101842b0 f   idLib:Vector.obj
 0001:001832d0       ?Lerp@idVec3@@QAEXABV1@0M@Z 101842d0 f   idLib:Vector.obj
 0001:001833a0       ?ToString@idQuat@@QBEPBDH@Z 101843a0 f   idLib:Quat.obj
 0001:001833a0       ?ToString@idMat2@@QBEPBDH@Z 101843a0 f   idLib:Matrix.obj
 0001:001833a0       ?ToString@idVec4@@QBEPBDH@Z 101843a0 f   idLib:Vector.obj
 0001:001833c0       ?Lerp@idVec4@@QAEXABV1@0M@Z 101843c0 f   idLib:Vector.obj
 0001:001834b0       ?ToString@idVec5@@QBEPBDH@Z 101844b0 f   idLib:Vector.obj
 0001:001834d0       ?ToString@idVec6@@QBEPBDH@Z 101844d0 f   idLib:Vector.obj
 0001:001834f0       ?ToString@idVecX@@QBEPBDH@Z 101844f0 f   idLib:Vector.obj
 0001:00183510       ?ToMat3@idRotation@@QBEABVidMat3@@XZ 10184510 f   idLib:Rotation.obj
 0001:00183690       ?ToAngularVelocity@idRotation@@QBE?AVidVec3@@XZ 10184690 f   idLib:Rotation.obj
 0001:001836d0       ?Normalize180@idRotation@@QAEXXZ 101846d0 f   idLib:Rotation.obj
 0001:00183760       ?ToAngles@idRotation@@QBE?AVidAngles@@XZ 10184760 f   idLib:Rotation.obj
 0001:00183780       ?InitOctahedron@idTraceModel@@AAEXXZ 10184780 f   idLib:TraceModel.obj
 0001:00183970       ?InitDodecahedron@idTraceModel@@AAEXXZ 10184970 f   idLib:TraceModel.obj
 0001:00183e10       ?InitBone@idTraceModel@@AAEXXZ 10184e10 f   idLib:TraceModel.obj
 0001:00183f90       ?SetupPolygon@idTraceModel@@QAEXPBVidVec3@@H@Z 10184f90 f   idLib:TraceModel.obj
 0001:00184580       ?SetupPolygon@idTraceModel@@QAEXABVidWinding@@@Z 10185580 f   idLib:TraceModel.obj
 0001:001845f0       ?GenerateEdgeNormals@idTraceModel@@QAEHXZ 101855f0 f   idLib:TraceModel.obj
 0001:00184960       ?Translate@idTraceModel@@QAEXABVidVec3@@@Z 10185960 f   idLib:TraceModel.obj
 0001:00184a90       ?Shrink@idTraceModel@@QAEXM@Z 10185a90 f   idLib:TraceModel.obj
 0001:00184d30       ?Compare@idTraceModel@@QBE_NABV1@@Z 10185d30 f   idLib:TraceModel.obj
 0001:00184eb0       ?ProjectionIntegrals@idTraceModel@@ABEXHHHAAUprojectionIntegrals_s@@@Z 10185eb0 f   idLib:TraceModel.obj
 0001:00185290       ?PolygonIntegrals@idTraceModel@@ABEXHHHHAAUpolygonIntegrals_s@@@Z 10186290 f   idLib:TraceModel.obj
 0001:001855c0       ?VolumeIntegrals@idTraceModel@@ABEXAAUvolumeIntegrals_s@@@Z 101865c0 f   idLib:TraceModel.obj
 0001:001857f0       ?InitBox@idTraceModel@@AAEXXZ 101867f0 f   idLib:TraceModel.obj
 0001:00185a60       ?SetupOctahedron@idTraceModel@@QAEXABVidBounds@@@Z 10186a60 f   idLib:TraceModel.obj
 0001:00185f40       ?SetupDodecahedron@idTraceModel@@QAEXABVidBounds@@@Z 10186f40 f   idLib:TraceModel.obj
 0001:001868f0       ?SetupCylinder@idTraceModel@@QAEXABVidBounds@@H@Z 101878f0 f   idLib:TraceModel.obj
 0001:00187010       ?SetupCone@idTraceModel@@QAEXABVidBounds@@H@Z 10188010 f   idLib:TraceModel.obj
 0001:001876d0       ?SetupBone@idTraceModel@@QAEXMM@Z 101886d0 f   idLib:TraceModel.obj
 0001:00187db0       ?SetupBox@idTraceModel@@QAEXABVidBounds@@@Z 10188db0 f   idLib:TraceModel.obj
 0001:001880a0       ?VolumeFromPolygon@idTraceModel@@ABEXAAV1@M@Z 101890a0 f   idLib:TraceModel.obj
 0001:00188400       ?GetMassProperties@idTraceModel@@QBEXMAAMAAVidVec3@@AAVidMat3@@@Z 10189400 f   idLib:TraceModel.obj
 0001:001886a0       ?GetRadius@idBounds@@QBEMXZ 101896a0 f   idLib:Bounds.obj
 0001:00188800       ?PlaneSide@idBounds@@QBEHABVidPlane@@M@Z 10189800 f   idLib:Bounds.obj
 0001:00188900       ?LineIntersection@idBounds@@QBE_NABVidVec3@@0@Z 10189900 f   idLib:Bounds.obj
 0001:00188bc0       ?RayIntersection@idBounds@@QBE_NABVidVec3@@0AAM@Z 10189bc0 f   idLib:Bounds.obj
 0001:00188e00       ?FromTransformedBounds@idBounds@@QAEXABV1@ABVidVec3@@ABVidMat3@@@Z 10189e00 f   idLib:Bounds.obj
 0001:00189020       ?FromPointTranslation@idBounds@@QAEXABVidVec3@@0@Z 1018a020 f   idLib:Bounds.obj
 0001:001890a0       ?FromBoundsTranslation@idBounds@@QAEXABV1@ABVidVec3@@ABVidMat3@@1@Z 1018a0a0 f   idLib:Bounds.obj
 0001:00189230       ?BoundsForPointRotation@@YA?AVidBounds@@ABVidVec3@@ABVidRotation@@@Z 1018a230 f   idLib:Bounds.obj
 0001:00189730       ?FromPointRotation@idBounds@@QAEXABVidVec3@@ABVidRotation@@@Z 1018a730 f   idLib:Bounds.obj
 0001:00189870       ?FromBoundsRotation@idBounds@@QAEXABV1@ABVidVec3@@ABVidMat3@@ABVidRotation@@@Z 1018a870 f   idLib:Bounds.obj
 0001:00189ca0       ?ShutDown@idLib@@SAXXZ     1018aca0 f   idLib:Lib.obj
 0001:00189cc0       ?PackColor@@YAIABVidVec4@@@Z 1018acc0 f   idLib:Lib.obj
 0001:00189df0       ?PackColor@@YAIABVidVec3@@@Z 1018adf0 f   idLib:Lib.obj
 0001:00189ed0       ?Error@idLib@@SAXPBDZZ     1018aed0 f   idLib:Lib.obj
 0001:00189f10       ?LittleRevBytes@@YAXPAXHH@Z 1018af10 f   idLib:Lib.obj
 0001:00189f20       ?LittleBitField@@YAXPAXH@Z 1018af20 f   idLib:Lib.obj
 0001:00189f30       ?ShortSwap@@YAFF@Z         1018af30 f   idLib:Lib.obj
 0001:00189f50       ?ShortNoSwap@@YAFF@Z       1018af50 f   idLib:Lib.obj
 0001:00189f60       ?LongSwap@@YAHH@Z          1018af60 f   idLib:Lib.obj
 0001:00189f90       ?LongNoSwap@@YAHH@Z        1018af90 f   idLib:Lib.obj
 0001:00189fa0       ?FloatSwap@@YAMM@Z         1018afa0 f   idLib:Lib.obj
 0001:00189fd0       ?FloatNoSwap@@YAMM@Z       1018afd0 f   idLib:Lib.obj
 0001:00189fe0       ?RevBytesSwap@@YAXPAXHH@Z  1018afe0 f   idLib:Lib.obj
 0001:0018a050       ?RevBitFieldSwap@@YAXPAXH@Z 1018b050 f   idLib:Lib.obj
 0001:0018a0a0       ?SixtetsForIntLittle@@YAXPAEH@Z 1018b0a0 f   idLib:Lib.obj
 0001:0018a0e0       ?SixtetsForIntBig@@YAXPAEH@Z 1018b0e0 f   idLib:Lib.obj
 0001:0018a110       ?IntForSixtetsLittle@@YAHPAE@Z 1018b110 f   idLib:Lib.obj
 0001:0018a170       ?IntForSixtetsBig@@YAHPAE@Z 1018b170 f   idLib:Lib.obj
 0001:0018a1a0       ?Swap_Init@@YAXXZ          1018b1a0 f   idLib:Lib.obj
 0001:0018a290       ?Init@idLib@@SAXXZ         1018b290 f   idLib:Lib.obj
 0001:0018a2c0       ?UnpackColor@@YAXIAAVidVec4@@@Z 1018b2c0 f   idLib:Lib.obj
 0001:0018a330       ?UnpackColor@@YAXIAAVidVec3@@@Z 1018b330 f   idLib:Lib.obj
 0001:0018a380       ?ReAllocate@idFixedWinding@@MAE_NH_N@Z 1018b380 f   idLib:Winding.obj
 0001:0018a3b0       ?ReAllocate@idWinding@@MAE_NH_N@Z 1018b3b0 f   idLib:Winding.obj
 0001:0018a420       ?ClipInPlace@idWinding@@QAE_NABVidPlane@@M_N@Z 1018b420 f   idLib:Winding.obj
 0001:0018a780       ?GetArea@idWinding@@QBEMXZ 1018b780 f   idLib:Winding.obj
 0001:0018a8e0       ?GetCenter@idWinding@@QBE?AVidVec3@@XZ 1018b8e0 f   idLib:Winding.obj
 0001:0018aa20       ?GetBounds@idWinding@@QBEXAAVidBounds@@@Z 1018ba20 f   idLib:Winding.obj
 0001:0018ab50       ?RemoveEqualPoints@idWinding@@QAEXM@Z 1018bb50 f   idLib:Winding.obj
 0001:0018ac30       ?AddToConvexHull@idWinding@@QAEXABVidVec3@@0M@Z 1018bc30 f   idLib:Winding.obj
 0001:0018b170       ?PointInside@idWinding@@QBE_NABVidVec3@@0M@Z 1018c170 f   idLib:Winding.obj
 0001:0018b290       ?Split@idFixedWinding@@QAEHPAV1@ABVidPlane@@M@Z 1018c290 f   idLib:Winding.obj
 0001:0018b880       ?Copy@idWinding@@QBEPAV1@XZ 1018c880 f   idLib:Winding.obj
 0001:0018b910       ?GetPlane@idWinding@@QBEXAAVidPlane@@@Z 1018c910 f   idLib:Winding.obj
 0001:0018bcd0       ??0idBitMsg@@QAE@XZ        1018ccd0 f   idLib:BitMsg.obj
 0001:0018bcf0       ?CheckOverflow@idBitMsg@@AAE_NH@Z 1018ccf0 f   idLib:BitMsg.obj
 0001:0018bd90       ?WriteBits@idBitMsg@@QAEXHH@Z 1018cd90 f   idLib:BitMsg.obj
 0001:0018beb0       ?WriteData@idBitMsg@@QAEXPBXH@Z 1018ceb0 f   idLib:BitMsg.obj
 0001:0018bf10       ?WriteDelta@idBitMsg@@AAEXHHH@Z 1018cf10 f   idLib:BitMsg.obj
 0001:0018c050       ?ReadBits@idBitMsg@@QBEHH@Z 1018d050 f   idLib:BitMsg.obj
 0001:0018c190       ?ReadData@idBitMsg@@QBEHPAXH@Z 1018d190 f   idLib:BitMsg.obj
 0001:0018c200       ?ReadDelta@idBitMsg@@ABEHHH@Z 1018d200 f   idLib:BitMsg.obj
 0001:0018c230       ?DirToBits@idBitMsg@@SAHABVidVec3@@H@Z 1018d230 f   idLib:BitMsg.obj
 0001:0018c320       ?BitsToDir@idBitMsg@@SA?AVidVec3@@HH@Z 1018d320 f   idLib:BitMsg.obj
 0001:0018c460       ?WriteBits@idBitMsgDelta@@QAEXHH@Z 1018d460 f   idLib:BitMsg.obj
 0001:0018c5f0       ?WriteDelta@idBitMsgDelta@@AAEXHHH@Z 1018d5f0 f   idLib:BitMsg.obj
 0001:0018c9d0       ?ReadBits@idBitMsgDelta@@QBEHH@Z 1018d9d0 f   idLib:BitMsg.obj
 0001:0018ca20       ?ReadDelta@idBitMsgDelta@@ABEHHH@Z 1018da20 f   idLib:BitMsg.obj
 0001:0018caa0       ?WriteString@idBitMsg@@QAEXPBDH_N@Z 1018daa0 f   idLib:BitMsg.obj
 0001:0018cba0       ?WriteDeltaDict@idBitMsg@@QAE_NABVidDict@@PBV2@@Z 1018dba0 f   idLib:BitMsg.obj
 0001:0018cd20       ?ReadString@idBitMsg@@QBEHPADH@Z 1018dd20 f   idLib:BitMsg.obj
 0001:0018cd90       ?ReadDeltaDict@idBitMsg@@QBE_NAAVidDict@@PBV2@@Z 1018dd90 f   idLib:BitMsg.obj
 0001:0018ced0       ?Shutdown@idSIMD@@SAXXZ    1018ded0 f   idLib:Simd.obj
 0001:0018cf10       ??4idDrawVert@@QAEAAV0@ABV0@@Z 1018df10 f i idLib:Simd.obj
 0001:0018cf90       ?Init@idSIMD@@SAXXZ        1018df90 f   idLib:Simd.obj
 0001:0018cfd0       ?InitProcessor@idSIMD@@SAXPBD_N@Z 1018dfd0 f   idLib:Simd.obj
 0001:0018d1d0       ?ToMat3@idQuat@@QBE?AVidMat3@@XZ 1018e1d0 f   idLib:Quat.obj
 0001:0018d2e0       ?Slerp@idQuat@@QAEAAV1@ABV1@0M@Z 1018e2e0 f   idLib:Quat.obj
 0001:0018d8c0       ?ToMat3@idCQuat@@QBE?AVidMat3@@XZ 1018e8c0 f   idLib:Quat.obj
 0001:0018d930       ?GetHashKey@idLangDict@@ABEHPBD@Z 1018e930 f   idLib:LangDict.obj
 0001:0018d960       ?GetString@idLangDict@@QBEPBDPBD@Z 1018e960 f   idLib:LangDict.obj
 0001:0018da10       ?InitBaseClockTicks@idTimer@@ABEXXZ 1018ea10 f   idLib:Timer.obj
 0001:0018daf0       ?Write@idMapPatch@@QBE_NPAVidFile@@HABVidVec3@@@Z 1018eaf0 f   idLib:MapFile.obj
 0001:0018dc50       ?GetGeometryCRC@idMapPatch@@QBEIXZ 1018ec50 f   idLib:MapFile.obj
 0001:0018de50       ?FindEntity@idMapFile@@QAEPAVidMapEntity@@PBD@Z 1018ee50 f   idLib:MapFile.obj
 0001:0018deb0       ?NeedsReload@idMapFile@@QAE_NXZ 1018eeb0 f   idLib:MapFile.obj
 0001:0018df00       ?Write@idMapBrush@@QBE_NPAVidFile@@HABVidVec3@@@Z 1018ef00 f   idLib:MapFile.obj
 0001:0018e030       ?GetGeometryCRC@idMapBrush@@QBEIXZ 1018f030 f   idLib:MapFile.obj
 0001:0018e0b0       ?Write@idMapEntity@@QBE_NPAVidFile@@H@Z 1018f0b0 f   idLib:MapFile.obj
 0001:0018e1a0       ?Write@idMapFile@@QAE_NPBD0_N@Z 1018f1a0 f   idLib:MapFile.obj
 0001:0018e300       ?SetGeometryCRC@idMapFile@@AAEXXZ 1018f300 f   idLib:MapFile.obj
 0001:0018e380       ?RemovePrimitiveData@idMapFile@@QAEXXZ 1018f380 f   idLib:MapFile.obj
 0001:0018e400       ??1idSurface_Patch@@QAE@XZ 1018f400 f i idLib:MapFile.obj
 0001:0018e4b0       ??0idMapPrimitive@@QAE@XZ  1018f4b0 f i idLib:MapFile.obj
 0001:0018e5d0       ??1idMapPrimitive@@UAE@XZ  1018f5d0 f i idLib:MapFile.obj
 0001:0018e650       ??_GidMapPrimitive@@UAEPAXI@Z 1018f650 f i idLib:MapFile.obj
 0001:0018e650       ??_EidMapPrimitive@@UAEPAXI@Z 1018f650 f i idLib:MapFile.obj
 0001:0018e6f0       ??0idMapBrush@@QAE@XZ      1018f6f0 f i idLib:MapFile.obj
 0001:0018e7b0       ??1idMapBrush@@UAE@XZ      1018f7b0 f i idLib:MapFile.obj
 0001:0018e8a0       ?AddSide@idMapBrush@@QAEHPAVidMapBrushSide@@@Z 1018f8a0 f i idLib:MapFile.obj
 0001:0018e9c0       ??_GidMapBrush@@UAEPAXI@Z  1018f9c0 f i idLib:MapFile.obj
 0001:0018e9c0       ??_EidMapBrush@@UAEPAXI@Z  1018f9c0 f i idLib:MapFile.obj
 0001:0018e9e0       ??1idMapPatch@@UAE@XZ      1018f9e0 f i idLib:MapFile.obj
 0001:0018eb00       ??_EidMapPatch@@UAEPAXI@Z  1018fb00 f i idLib:MapFile.obj
 0001:0018eb00       ??_GidMapPatch@@UAEPAXI@Z  1018fb00 f i idLib:MapFile.obj
 0001:0018eb20       ?AddPrimitive@idMapEntity@@QAEXPAVidMapPrimitive@@@Z 1018fb20 f i idLib:MapFile.obj
 0001:0018ec40       ?Parse@idMapPatch@@SAPAV1@AAVidLexer@@ABVidVec3@@_NM@Z 1018fc40 f   idLib:MapFile.obj
 0001:0018f2c0       ?Parse@idMapBrush@@SAPAV1@AAVidLexer@@ABVidVec3@@_NM@Z 101902c0 f   idLib:MapFile.obj
 0001:001902b0       ?ParseQ3@idMapBrush@@SAPAV1@AAVidLexer@@ABVidVec3@@@Z 101912b0 f   idLib:MapFile.obj
 0001:00190d50       ?Parse@idMapEntity@@SAPAV1@AAVidLexer@@_NM@Z 10191d50 f   idLib:MapFile.obj
 0001:001911f0       ?AddEntity@idMapFile@@QAEHPAVidMapEntity@@@Z 101921f0 f   idLib:MapFile.obj
 0001:00191310       ?RemoveEntity@idMapFile@@QAEXPAVidMapEntity@@@Z 10192310 f   idLib:MapFile.obj
 0001:00191370       ?RemoveEntities@idMapFile@@QAEXPBD@Z 10192370 f   idLib:MapFile.obj
 0001:00191410       ?Parse@idMapFile@@QAE_NPBD_N1@Z 10192410 f   idLib:MapFile.obj
 0001:00191c50       ?AllocDefragBlock@idHeap@@QAEXXZ 10192c50 f   idLib:Heap.obj
 0001:00191cc0       ?Allocate16@idHeap@@QAEPAXI@Z 10192cc0 f   idLib:Heap.obj
 0001:00191d60       ?Msize@idHeap@@QAEIPAX@Z   10192d60 f   idLib:Heap.obj
 0001:00191de0       ?AllocatePage@idHeap@@AAEPAUpage_s@1@I@Z 10192de0 f   idLib:Heap.obj
 0001:00191ec0       ?SmallAllocate@idHeap@@AAEPAXI@Z 10192ec0 f   idLib:Heap.obj
 0001:00191f80       ?MediumAllocateFromPage@idHeap@@AAEPAXPAUpage_s@1@I@Z 10192f80 f   idLib:Heap.obj
 0001:00192020       ?MediumAllocate@idHeap@@AAEPAXI@Z 10193020 f   idLib:Heap.obj
 0001:00192170       ?MediumFree@idHeap@@AAEXPAX@Z 10193170 f   idLib:Heap.obj
 0001:001922d0       ?LargeAllocate@idHeap@@AAEPAXI@Z 101932d0 f   idLib:Heap.obj
 0001:00192320       ?LargeFree@idHeap@@AAEXPAX@Z 10193320 f   idLib:Heap.obj
 0001:001923a0       ?Mem_UpdateAllocStats@@YAXH@Z 101933a0 f   idLib:Heap.obj
 0001:00192400       ?Mem_UpdateFreeStats@@YAXH@Z 10193400 f   idLib:Heap.obj
 0001:00192440       ?Mem_Alloc16@@YAPAXH@Z     10193440 f   idLib:Heap.obj
 0001:00192470       ?Mem_Free16@@YAXPAX@Z      10193470 f   idLib:Heap.obj
 0001:001924a0       ?Init@idHeap@@QAEXXZ       101934a0 f   idLib:Heap.obj
 0001:00192530       ??1idHeap@@QAE@XZ          10193530 f   idLib:Heap.obj
 0001:001926b0       ?Free@idHeap@@QAEXPAX@Z    101936b0 f   idLib:Heap.obj
 0001:00192760       ?Mem_Alloc@@YAPAXH@Z       10193760 f   idLib:Heap.obj
 0001:001927c0       ?Mem_Free@@YAXPAX@Z        101937c0 f   idLib:Heap.obj
 0001:00192800       ?Mem_ClearedAlloc@@YAPAXH@Z 10193800 f   idLib:Heap.obj
 0001:00192830       ?Mem_Init@@YAXXZ           10193830 f   idLib:Heap.obj
 0001:001928c0       ?Mem_Shutdown@@YAXXZ       101938c0 f   idLib:Heap.obj
 0001:001928f0       ?Args@idCmdArgs@@QBEPBDHH_N@Z 101938f0 f   idLib:CmdArgs.obj
 0001:00192a80       ?TokenizeString@idCmdArgs@@QAEXPBD_N@Z 10193a80 f   idLib:CmdArgs.obj
 0001:00192d40       ?GetBounds@idWinding2D@@QBEXQAVidVec2@@@Z 10193d40 f   idLib:Winding2D.obj
 0001:00192e00       ?GetAxialBevel@@YA_NABVidVec3@@0ABVidVec2@@AAV1@@Z 10193e00 f   idLib:Winding2D.obj
 0001:00192f00       ?ExpandForAxialBox@idWinding2D@@QAEXQBVidVec2@@@Z 10193f00 f   idLib:Winding2D.obj
 0001:00193390       ?Expand@idWinding2D@@QAEXM@Z 10194390 f   idLib:Winding2D.obj
 0001:00193840       ?PointInside@idWinding2D@@QBE_NABVidVec2@@M@Z 10194840 f   idLib:Winding2D.obj
 0001:001938e0       ?RayIntersection@idWinding2D@@QBE_NABVidVec2@@0AAM1PAH@Z 101948e0 f   idLib:Winding2D.obj
 0001:00193bd0       ?ToPoints@idBox@@QBEXQAVidVec3@@@Z 10194bd0 f   idLib:Box.obj
 0001:00193ef0       ?GetParallelProjectionSilhouetteVerts@idBox@@QBEHABVidVec3@@QAV2@@Z 10194ef0 f   idLib:Box.obj
 0001:00194000       ?ClearTokenWhiteSpace@idToken@@QAEXXZ 10195000 f   idLib:Token.obj
 0001:00194010       ?NumberValue@idToken@@QAEXXZ 10195010 f   idLib:Token.obj
 0001:00194340       ?AddDefineToHash@idParser@@AAEXPAUdefine_s@@PAPAU2@@Z 10195340 f   idLib:Parser.obj
 0001:001943a0       ?FindHashedDefine@idParser@@AAEPAUdefine_s@@PAPAU2@PBD@Z 101953a0 f   idLib:Parser.obj
 0001:00194420       ?Error@idParser@@QBAXPBDZZ 10195420 f   idLib:Parser.obj
 0001:00194470       ?Warning@idParser@@QBAXPBDZZ 10195470 f   idLib:Parser.obj
 0001:001944c0       ?Directive_else@idParser@@AAEHXZ 101954c0 f   idLib:Parser.obj
 0001:00194560       ?Directive_endif@idParser@@AAEHXZ 10195560 f   idLib:Parser.obj
 0001:001945b0       ?PC_OperatorPriority@@YAHH@Z 101955b0 f   idLib:Parser.obj
 0001:00194680       ?GetPunctuationId@idParser@@QAEHPBD@Z 10195680 f   idLib:Parser.obj
 0001:00194740       ?FindDefineParm@idParser@@AAEHPAUdefine_s@@PBD@Z 10195740 f   idLib:Parser.obj
 0001:00194780       ?PushScript@idParser@@AAEXPAVidLexer@@@Z 10195780 f   idLib:Parser.obj
 0001:001947e0       ?StringizeTokens@idParser@@AAEHPAVidToken@@0@Z 101957e0 f   idLib:Parser.obj
 0001:00194890       ?MergeTokens@idParser@@AAEHPAVidToken@@0@Z 10195890 f   idLib:Parser.obj
 0001:00194a10       ?EvaluateTokens@idParser@@AAEHPAVidToken@@PAJPANH@Z 10195a10 f   idLib:Parser.obj
 0001:00195420       ?SetFlags@idParser@@QAEXH@Z 10196420 f   idLib:Parser.obj
 0001:00195440       ??0idParser@@QAE@XZ        10196440 f   idLib:Parser.obj
 0001:00195490       ??0idParser@@QAE@H@Z       10196490 f   idLib:Parser.obj
 0001:001954e0       ?FreeDefine@idParser@@CAXPAUdefine_s@@@Z 101964e0 f   idLib:Parser.obj
 0001:00195540       ??0idToken@@QAE@ABV0@@Z    10196540 f i idLib:Parser.obj
 0001:001955d0       ?FreeSource@idParser@@QAEX_N@Z 101965d0 f   idLib:Parser.obj
 0001:00195730       ??1idParser@@QAE@XZ        10196730 f   idLib:Parser.obj
 0001:00195790       ?CopyDefine@idParser@@AAEPAUdefine_s@@PAU2@@Z 10196790 f   idLib:Parser.obj
 0001:00195970       ?ReadSourceToken@idParser@@AAEHPAVidToken@@@Z 10196970 f   idLib:Parser.obj
 0001:00195b20       ?UnreadSourceToken@idParser@@AAEHPAVidToken@@@Z 10196b20 f   idLib:Parser.obj
 0001:00195bb0       ?ReadDefineParms@idParser@@AAEHPAUdefine_s@@PAPAVidToken@@H@Z 10196bb0 f   idLib:Parser.obj
 0001:00195fd0       ?ExpandBuiltinDefine@idParser@@AAEHPAVidToken@@PAUdefine_s@@PAPAV2@2@Z 10196fd0 f   idLib:Parser.obj
 0001:001963e0       ?ExpandDefine@idParser@@AAEHPAVidToken@@PAUdefine_s@@PAPAV2@2@Z 101973e0 f   idLib:Parser.obj
 0001:00196820       ?ExpandDefineIntoSource@idParser@@AAEHPAVidToken@@PAUdefine_s@@@Z 10197820 f   idLib:Parser.obj
 0001:00196880       ?ReadLine@idParser@@AAEHPAVidToken@@@Z 10197880 f   idLib:Parser.obj
 0001:001968e0       ?Directive_include@idParser@@AAEHXZ 101978e0 f   idLib:Parser.obj
 0001:00196e30       ?Directive_undef@idParser@@AAEHXZ 10197e30 f   idLib:Parser.obj
 0001:00196fb0       ?AddGlobalDefinesToSource@idParser@@AAEXXZ 10197fb0 f   idLib:Parser.obj
 0001:00197030       ?Directive_if_def@idParser@@AAEHH@Z 10198030 f   idLib:Parser.obj
 0001:00197160       ?Evaluate@idParser@@AAEHPAJPANH@Z 10198160 f   idLib:Parser.obj
 0001:00197420       ?DollarEvaluate@idParser@@AAEHPAJPANH@Z 10198420 f   idLib:Parser.obj
 0001:00197720       ?Directive_elif@idParser@@AAEHXZ 10198720 f   idLib:Parser.obj
 0001:001977c0       ?Directive_if@idParser@@AAEHXZ 101987c0 f   idLib:Parser.obj
 0001:00197810       ?Directive_line@idParser@@AAEHXZ 10198810 f   idLib:Parser.obj
 0001:00197910       ?Directive_error@idParser@@AAEHXZ 10198910 f   idLib:Parser.obj
 0001:001979d0       ?Directive_warning@idParser@@AAEHXZ 101989d0 f   idLib:Parser.obj
 0001:00197a90       ?Directive_pragma@idParser@@AAEHXZ 10198a90 f   idLib:Parser.obj
 0001:00197b90       ?UnreadSignToken@idParser@@AAEXXZ 10198b90 f   idLib:Parser.obj
 0001:00197c70       ?Directive_eval@idParser@@AAEHXZ 10198c70 f   idLib:Parser.obj
 0001:00197de0       ?Directive_evalfloat@idParser@@AAEHXZ 10198de0 f   idLib:Parser.obj
 0001:00197f70       ?DollarDirective_evalint@idParser@@AAEHXZ 10198f70 f   idLib:Parser.obj
 0001:001980f0       ?DollarDirective_evalfloat@idParser@@AAEHXZ 101990f0 f   idLib:Parser.obj
 0001:00198290       ?ReadDollarDirective@idParser@@AAEHXZ 10199290 f   idLib:Parser.obj
 0001:001983e0       ?CheckTokenString@idParser@@QAEHPBD@Z 101993e0 f   idLib:Parser.obj
 0001:001984a0       ?UnreadToken@idParser@@QAEXPAVidToken@@@Z 101994a0 f   idLib:Parser.obj
 0001:00198520       ?LoadFile@idParser@@QAEHPBD_N@Z 10199520 f   idLib:Parser.obj
 0001:00198640       ?LoadMemory@idParser@@QAEHPBDH0@Z 10199640 f   idLib:Parser.obj
 0001:00198760       ?Directive_define@idParser@@AAEHXZ 10199760 f   idLib:Parser.obj
 0001:00198c30       ?ReadDirective@idParser@@AAEHXZ 10199c30 f   idLib:Parser.obj
 0001:00199120       ?ReadToken@idParser@@QAEHPAVidToken@@@Z 1019a120 f   idLib:Parser.obj
 0001:00199350       ?ExpectTokenString@idParser@@QAEHPBD@Z 1019a350 f   idLib:Parser.obj
 0001:00199450       ?ExpectTokenType@idParser@@QAEHHHPAVidToken@@@Z 1019a450 f   idLib:Parser.obj
 0001:001997b0       ?SkipBracedSection@idParser@@QAEH_N@Z 1019a7b0 f   idLib:Parser.obj
 0001:001998a0       ?ParseRestOfLine@idParser@@QAEPBDAAVidStr@@@Z 1019a8a0 f   idLib:Parser.obj
 0001:00199a40       ?ParseInt@idParser@@QAEHXZ 1019aa40 f   idLib:Parser.obj
 0001:00199b90       ??1idLCP@@UAE@XZ           1019ab90 f   idLib:Lcp.obj
 0001:00199ba0       ?FactorClamped@idLCP_Symmetric@@AAE_NXZ 1019aba0 f   idLib:Lcp.obj
 0001:00199c20       ?SolveClamped@idLCP_Symmetric@@AAEXAAVidVecX@@PBM@Z 1019ac20 f   idLib:Lcp.obj
 0001:00199cc0       ?Swap@idLCP_Symmetric@@AAEXHH@Z 1019acc0 f   idLib:Lcp.obj
 0001:00199de0       ?AddClamped@idLCP_Symmetric@@AAEXH_N@Z 1019ade0 f   idLib:Lcp.obj
 0001:00199fa0       ?RemoveClamped@idLCP_Symmetric@@AAEXH@Z 1019afa0 f   idLib:Lcp.obj
 0001:0019a6e0       ?GetMaxStep@idLCP_Symmetric@@ABEXHMAAMAAH1@Z 1019b6e0 f   idLib:Lcp.obj
 0001:0019ac00       ??_GidLCP@@UAEPAXI@Z       1019bc00 f i idLib:Lcp.obj
 0001:0019ac00       ??_EidLCP@@UAEPAXI@Z       1019bc00 f i idLib:Lcp.obj
 0001:0019ac20       ??0idLCP_Symmetric@@QAE@XZ 1019bc20 f i idLib:Lcp.obj
 0001:0019acc0       ??1idLCP_Symmetric@@UAE@XZ 1019bcc0 f i idLib:Lcp.obj
 0001:0019af40       ?Solve@idLCP_Symmetric@@UAE_NABVidMatX@@AAVidVecX@@ABV3@22PBH@Z 1019bf40 f   idLib:Lcp.obj
 0001:0019bef0       ?AllocSymmetric@idLCP@@SAPAV1@XZ 1019cef0 f   idLib:Lcp.obj
 0001:0019bf30       ??_GidLCP_Symmetric@@UAEPAXI@Z 1019cf30 f i idLib:Lcp.obj
 0001:0019bf30       ??_EidLCP_Symmetric@@UAEPAXI@Z 1019cf30 f i idLib:Lcp.obj
 0001:0019bf50       ?Evaluate@idODE_Euler@@UAEMPBMPAMMM@Z 1019cf50 f   idLib:Ode.obj
 0001:0019bfb0       ??1idODE@@UAE@XZ           1019cfb0 f i idLib:Ode.obj
 0001:0019bfc0       ??_GidODE@@UAEPAXI@Z       1019cfc0 f i idLib:Ode.obj
 0001:0019bfc0       ??_EidODE@@UAEPAXI@Z       1019cfc0 f i idLib:Ode.obj
 0001:0019bfe0       ??0idODE_Euler@@QAE@HQ6AXMPBXPBMPAM@Z0@Z 1019cfe0 f   idLib:Ode.obj
 0001:0019c050       ??_EidODE_Euler@@UAEPAXI@Z 1019d050 f i idLib:Ode.obj
 0001:0019c050       ??_GidODE_Euler@@UAEPAXI@Z 1019d050 f i idLib:Ode.obj
 0001:0019c560       ?MD4_Update@@YAXPAUMD4_CTX@@PBEI@Z 1019d560 f   idLib:MD4.obj
 0001:0019c600       ?MD4_Final@@YAXPAUMD4_CTX@@QAE@Z 1019d600 f   idLib:MD4.obj
 0001:0019c6c0       ?MD4_BlockChecksum@@YAKPBXH@Z 1019d6c0 f   idLib:MD4.obj
 0001:0019c730       ?Laguer@idPolynomial@@ABEHPBVidComplex@@HAAV2@@Z 1019d730 f   idLib:Polynomial.obj
 0001:0019dc70       ?GetRoots@idPolynomial@@QBEHPAVidComplex@@@Z 1019ec70 f   idLib:Polynomial.obj
 0001:0019e050       ?GetRoots@idPolynomial@@QBEHPAM@Z 1019f050 f   idLib:Polynomial.obj
 0001:0019eeb0       ?Test@idPolynomial@@SAXXZ  1019feb0 f   idLib:Polynomial.obj
 0001:0019f200       ?GetName@idSIMD_Generic@@UBIPBDXZ 101a0200 f   idLib:Simd_Generic.obj
 0001:0019f210       ?Add@idSIMD_Generic@@UAIXPAMMPBMH@Z 101a0210 f   idLib:Simd_Generic.obj
 0001:0019f2f0       ?Add@idSIMD_Generic@@UAIXPAMPBM1H@Z 101a02f0 f   idLib:Simd_Generic.obj
 0001:0019f420       ?Sub@idSIMD_Generic@@UAIXPAMMPBMH@Z 101a0420 f   idLib:Simd_Generic.obj
 0001:0019f500       ?Sub@idSIMD_Generic@@UAIXPAMPBM1H@Z 101a0500 f   idLib:Simd_Generic.obj
 0001:0019f630       ?Mul@idSIMD_Generic@@UAIXPAMMPBMH@Z 101a0630 f   idLib:Simd_Generic.obj
 0001:0019f710       ?Mul@idSIMD_Generic@@UAIXPAMPBM1H@Z 101a0710 f   idLib:Simd_Generic.obj
 0001:0019f840       ?Div@idSIMD_Generic@@UAIXPAMMPBMH@Z 101a0840 f   idLib:Simd_Generic.obj
 0001:0019f920       ?Div@idSIMD_Generic@@UAIXPAMPBM1H@Z 101a0920 f   idLib:Simd_Generic.obj
 0001:0019fa50       ?MulAdd@idSIMD_Generic@@UAIXPAMMPBMH@Z 101a0a50 f   idLib:Simd_Generic.obj
 0001:0019fb40       ?MulAdd@idSIMD_Generic@@UAIXPAMPBM1H@Z 101a0b40 f   idLib:Simd_Generic.obj
 0001:0019fc80       ?MulSub@idSIMD_Generic@@UAIXPAMMPBMH@Z 101a0c80 f   idLib:Simd_Generic.obj
 0001:0019fd90       ?MulSub@idSIMD_Generic@@UAIXPAMPBM1H@Z 101a0d90 f   idLib:Simd_Generic.obj
 0001:0019fee0       ?Dot@idSIMD_Generic@@UAIXAAMPBM1H@Z 101a0ee0 f   idLib:Simd_Generic.obj
 0001:001a0070       ?CmpGT@idSIMD_Generic@@UAIXPAEPBMMH@Z 101a1070 f   idLib:Simd_Generic.obj
 0001:001a0190       ?CmpGT@idSIMD_Generic@@UAIXPAEEPBMMH@Z 101a1190 f   idLib:Simd_Generic.obj
 0001:001a0300       ?CmpGE@idSIMD_Generic@@UAIXPAEPBMMH@Z 101a1300 f   idLib:Simd_Generic.obj
 0001:001a0420       ?CmpGE@idSIMD_Generic@@UAIXPAEEPBMMH@Z 101a1420 f   idLib:Simd_Generic.obj
 0001:001a0590       ?CmpLT@idSIMD_Generic@@UAIXPAEPBMMH@Z 101a1590 f   idLib:Simd_Generic.obj
 0001:001a06b0       ?CmpLT@idSIMD_Generic@@UAIXPAEEPBMMH@Z 101a16b0 f   idLib:Simd_Generic.obj
 0001:001a0820       ?CmpLE@idSIMD_Generic@@UAIXPAEPBMMH@Z 101a1820 f   idLib:Simd_Generic.obj
 0001:001a0940       ?CmpLE@idSIMD_Generic@@UAIXPAEEPBMMH@Z 101a1940 f   idLib:Simd_Generic.obj
 0001:001a0ab0       ?MinMax@idSIMD_Generic@@UAIXAAM0PBMH@Z 101a1ab0 f   idLib:Simd_Generic.obj
 0001:001a0bd0       ?Clamp@idSIMD_Generic@@UAIXPAMPBMMMH@Z 101a1bd0 f   idLib:Simd_Generic.obj
 0001:001a0d50       ?ClampMin@idSIMD_Generic@@UAIXPAMPBMMH@Z 101a1d50 f   idLib:Simd_Generic.obj
 0001:001a0e60       ?ClampMax@idSIMD_Generic@@UAIXPAMPBMMH@Z 101a1e60 f   idLib:Simd_Generic.obj
 0001:001a0f70       ?Memcpy@idSIMD_Generic@@UAIXPAXPBXH@Z 101a1f70 f   idLib:Simd_Generic.obj
 0001:001a0f90       ?Memset@idSIMD_Generic@@UAIXPAXHH@Z 101a1f90 f   idLib:Simd_Generic.obj
 0001:001a0fb0       ?Zero16@idSIMD_Generic@@UAIXPAMH@Z 101a1fb0 f   idLib:Simd_Generic.obj
 0001:001a0fd0       ?Negate16@idSIMD_Generic@@UAIXPAMH@Z 101a1fd0 f   idLib:Simd_Generic.obj
 0001:001a0ff0       ?Copy16@idSIMD_Generic@@UAIXPAMPBMH@Z 101a1ff0 f   idLib:Simd_Generic.obj
 0001:001a1070       ?Add16@idSIMD_Generic@@UAIXPAMPBM1H@Z 101a2070 f   idLib:Simd_Generic.obj
 0001:001a1120       ?Sub16@idSIMD_Generic@@UAIXPAMPBM1H@Z 101a2120 f   idLib:Simd_Generic.obj
 0001:001a11d0       ?Mul16@idSIMD_Generic@@UAIXPAMPBMMH@Z 101a21d0 f   idLib:Simd_Generic.obj
 0001:001a1250       ?AddAssign16@idSIMD_Generic@@UAIXPAMPBMH@Z 101a2250 f   idLib:Simd_Generic.obj
 0001:001a12e0       ?SubAssign16@idSIMD_Generic@@UAIXPAMPBMH@Z 101a22e0 f   idLib:Simd_Generic.obj
 0001:001a1370       ?MulAssign16@idSIMD_Generic@@UAIXPAMMH@Z 101a2370 f   idLib:Simd_Generic.obj
 0001:001a13e0       ?BlendJoints@idSIMD_Generic@@UAIXPAVidJointQuat@@PBV2@MPBHH@Z 101a23e0 f   idLib:Simd_Generic.obj
 0001:001a1450       ?DeriveUnsmoothedTangents@idSIMD_Generic@@UAIXPAVidDrawVert@@PBUdominantTri_s@@H@Z 101a2450 f   idLib:Simd_Generic.obj
 0001:001a1610       ?NormalizeTangents@idSIMD_Generic@@UAIXPAVidDrawVert@@H@Z 101a2610 f   idLib:Simd_Generic.obj
 0001:001a17c0       ?CreateTextureSpaceLightVectors@idSIMD_Generic@@UAIXPAVidVec3@@ABV2@PBVidDrawVert@@HPBHH@Z 101a27c0 f   idLib:Simd_Generic.obj
 0001:001a1ac0       ?CreateSpecularTextureCoords@idSIMD_Generic@@UAIXPAVidVec4@@ABVidVec3@@1PBVidDrawVert@@HPBHH@Z 101a2ac0 f   idLib:Simd_Generic.obj
 0001:001a1cd0       ?CreateShadowCache@idSIMD_Generic@@UAIHPAVidVec4@@PAHABVidVec3@@PBVidDrawVert@@H@Z 101a2cd0 f   idLib:Simd_Generic.obj
 0001:001a1eb0       ?CreateVertexProgramShadowCache@idSIMD_Generic@@UAIHPAVidVec4@@PBVidDrawVert@@H@Z 101a2eb0 f   idLib:Simd_Generic.obj
 0001:001a2040       ?UpSamplePCMTo44kHz@idSIMD_Generic@@UAIXPAMPBFHHH@Z 101a3040 f   idLib:Simd_Generic.obj
 0001:001a23d0       ?UpSampleOGGTo44kHz@idSIMD_Generic@@UAIXPAMPBQBMHHH@Z 101a33d0 f   idLib:Simd_Generic.obj
 0001:001a2a20       ?MixSoundTwoSpeakerMono@idSIMD_Generic@@UAIXPAMPBMHQBM2@Z 101a3a20 f   idLib:Simd_Generic.obj
 0001:001a2c40       ?MixSoundTwoSpeakerStereo@idSIMD_Generic@@UAIXPAMPBMHQBM2@Z 101a3c40 f   idLib:Simd_Generic.obj
 0001:001a2e80       ?MixSoundSixSpeakerMono@idSIMD_Generic@@UAIXPAMPBMHQBM2@Z 101a3e80 f   idLib:Simd_Generic.obj
 0001:001a2fc0       ?MixSoundSixSpeakerStereo@idSIMD_Generic@@UAIXPAMPBMHQBM2@Z 101a3fc0 f   idLib:Simd_Generic.obj
 0001:001a3110       ?MixedSoundToSamples@idSIMD_Generic@@UAIXPAFPBMH@Z 101a4110 f   idLib:Simd_Generic.obj
 0001:001a3180       ?Dot@idSIMD_Generic@@UAIXPAMABVidVec3@@PBV2@H@Z 101a4180 f   idLib:Simd_Generic.obj
 0001:001a3260       ?Dot@idSIMD_Generic@@UAIXPAMABVidVec3@@PBVidPlane@@H@Z 101a4260 f   idLib:Simd_Generic.obj
 0001:001a3380       ?Dot@idSIMD_Generic@@UAIXPAMABVidVec3@@PBVidDrawVert@@H@Z 101a4380 f   idLib:Simd_Generic.obj
 0001:001a3480       ?Dot@idSIMD_Generic@@UAIXPAMABVidPlane@@PBVidVec3@@H@Z 101a4480 f   idLib:Simd_Generic.obj
 0001:001a35a0       ?Dot@idSIMD_Generic@@UAIXPAMABVidPlane@@PBV2@H@Z 101a45a0 f   idLib:Simd_Generic.obj
 0001:001a36d0       ?Dot@idSIMD_Generic@@UAIXPAMABVidPlane@@PBVidDrawVert@@H@Z 101a46d0 f   idLib:Simd_Generic.obj
 0001:001a3800       ?Dot@idSIMD_Generic@@UAIXPAMPBVidVec3@@1H@Z 101a4800 f   idLib:Simd_Generic.obj
 0001:001a3910       ?MinMax@idSIMD_Generic@@UAIXAAVidVec2@@0PBV2@H@Z 101a4910 f   idLib:Simd_Generic.obj
 0001:001a3b20       ?MinMax@idSIMD_Generic@@UAIXAAVidVec3@@0PBV2@H@Z 101a4b20 f   idLib:Simd_Generic.obj
 0001:001a3e20       ?MinMax@idSIMD_Generic@@UAIXAAVidVec3@@0PBVidDrawVert@@H@Z 101a4e20 f   idLib:Simd_Generic.obj
 0001:001a4120       ?MinMax@idSIMD_Generic@@UAIXAAVidVec3@@0PBVidDrawVert@@PBHH@Z 101a5120 f   idLib:Simd_Generic.obj
 0001:001a4460       ?MatX_MultiplyVecX@idSIMD_Generic@@UAIXAAVidVecX@@ABVidMatX@@ABV2@@Z 101a5460 f   idLib:Simd_Generic.obj
 0001:001a4ab0       ?MatX_MultiplyAddVecX@idSIMD_Generic@@UAIXAAVidVecX@@ABVidMatX@@ABV2@@Z 101a5ab0 f   idLib:Simd_Generic.obj
 0001:001a5160       ?MatX_MultiplySubVecX@idSIMD_Generic@@UAIXAAVidVecX@@ABVidMatX@@ABV2@@Z 101a6160 f   idLib:Simd_Generic.obj
 0001:001a5850       ?MatX_TransposeMultiplyVecX@idSIMD_Generic@@UAIXAAVidVecX@@ABVidMatX@@ABV2@@Z 101a6850 f   idLib:Simd_Generic.obj
 0001:001a5f20       ?MatX_TransposeMultiplyAddVecX@idSIMD_Generic@@UAIXAAVidVecX@@ABVidMatX@@ABV2@@Z 101a6f20 f   idLib:Simd_Generic.obj
 0001:001a6690       ?MatX_TransposeMultiplySubVecX@idSIMD_Generic@@UAIXAAVidVecX@@ABVidMatX@@ABV2@@Z 101a7690 f   idLib:Simd_Generic.obj
 0001:001a6e30       ?MatX_MultiplyMatX@idSIMD_Generic@@UAIXAAVidMatX@@ABV2@1@Z 101a7e30 f   idLib:Simd_Generic.obj
 0001:001a85b0       ?MatX_TransposeMultiplyMatX@idSIMD_Generic@@UAIXAAVidMatX@@ABV2@1@Z 101a95b0 f   idLib:Simd_Generic.obj
 0001:001a9b40       ?MatX_LowerTriangularSolve@idSIMD_Generic@@UAIXABVidMatX@@PAMPBMHH@Z 101aab40 f   idLib:Simd_Generic.obj
 0001:001aa0f0       ?MatX_LowerTriangularSolveTranspose@idSIMD_Generic@@UAIXABVidMatX@@PAMPBMH@Z 101ab0f0 f   idLib:Simd_Generic.obj
 0001:001aa840       ?MatX_LDLTFactor@idSIMD_Generic@@UAI_NAAVidMatX@@AAVidVecX@@H@Z 101ab840 f   idLib:Simd_Generic.obj
 0001:001ab140       ?ConvertJointQuatsToJointMats@idSIMD_Generic@@UAIXPAVidJointMat@@PBVidJointQuat@@H@Z 101ac140 f   idLib:Simd_Generic.obj
 0001:001ab1c0       ?TransformJoints@idSIMD_Generic@@UAIXPAVidJointMat@@PBHHH@Z 101ac1c0 f   idLib:Simd_Generic.obj
 0001:001ab3a0       ?UntransformJoints@idSIMD_Generic@@UAIXPAVidJointMat@@PBHHH@Z 101ac3a0 f   idLib:Simd_Generic.obj
 0001:001ab590       ?TransformVerts@idSIMD_Generic@@UAIXPAVidDrawVert@@HPBVidJointMat@@PBVidVec4@@PBHH@Z 101ac590 f   idLib:Simd_Generic.obj
 0001:001ab720       ?TracePointCull@idSIMD_Generic@@UAIXPAEAAEMPBVidPlane@@PBVidDrawVert@@H@Z 101ac720 f   idLib:Simd_Generic.obj
 0001:001ab8a0       ?DecalPointCull@idSIMD_Generic@@UAIXPAEPBVidPlane@@PBVidDrawVert@@H@Z 101ac8a0 f   idLib:Simd_Generic.obj
 0001:001ab9d0       ?OverlayPointCull@idSIMD_Generic@@UAIXPAEPAVidVec2@@PBVidPlane@@PBVidDrawVert@@H@Z 101ac9d0 f   idLib:Simd_Generic.obj
 0001:001abd10       ?DeriveTriPlanes@idSIMD_Generic@@UAIXPAVidPlane@@PBVidDrawVert@@HPBHH@Z 101acd10 f   idLib:Simd_Generic.obj
 0001:001abed0       ?DeriveTangents@idSIMD_Generic@@UAIXPAVidPlane@@PAVidDrawVert@@HPBHH@Z 101aced0 f   idLib:Simd_Generic.obj
 0001:001ac400       ?ConvertJointMatsToJointQuats@idSIMD_Generic@@UAIXPAVidJointQuat@@PBVidJointMat@@H@Z 101ad400 f   idLib:Simd_Generic.obj
 0001:001ac460       ?GetName@idSIMD_MMX@@UBIPBDXZ 101ad460 f   idLib:Simd_MMX.obj
 0001:001ac470       ?MMX_Memcpy64B@@YAXPAXPBXH@Z 101ad470 f   idLib:Simd_MMX.obj
 0001:001ac4e0       ?MMX_Memcpy2kB@@YAXPAXPBXH@Z 101ad4e0 f   idLib:Simd_MMX.obj
 0001:001ac5d0       ?Memcpy@idSIMD_MMX@@UAIXPAXPBXH@Z 101ad5d0 f   idLib:Simd_MMX.obj
 0001:001ac6d0       ?Memset@idSIMD_MMX@@UAIXPAXHH@Z 101ad6d0 f   idLib:Simd_MMX.obj
 0001:001ac7c0       ?GetName@idSIMD_SSE@@UBIPBDXZ 101ad7c0 f   idLib:Simd_SSE.obj
 0001:001ac7d0       ?Add@idSIMD_SSE@@UAIXPAMMPBMH@Z 101ad7d0 f   idLib:Simd_SSE.obj
 0001:001ac900       ?Add@idSIMD_SSE@@UAIXPAMPBM1H@Z 101ad900 f   idLib:Simd_SSE.obj
 0001:001aca40       ?Sub@idSIMD_SSE@@UAIXPAMMPBMH@Z 101ada40 f   idLib:Simd_SSE.obj
 0001:001acb70       ?Sub@idSIMD_SSE@@UAIXPAMPBM1H@Z 101adb70 f   idLib:Simd_SSE.obj
 0001:001accb0       ?Mul@idSIMD_SSE@@UAIXPAMMPBMH@Z 101adcb0 f   idLib:Simd_SSE.obj
 0001:001acde0       ?Mul@idSIMD_SSE@@UAIXPAMPBM1H@Z 101adde0 f   idLib:Simd_SSE.obj
 0001:001acf20       ?Div@idSIMD_SSE@@UAIXPAMMPBMH@Z 101adf20 f   idLib:Simd_SSE.obj
 0001:001ad0d0       ?Div@idSIMD_SSE@@UAIXPAMPBM1H@Z 101ae0d0 f   idLib:Simd_SSE.obj
 0001:001ad390       ?MulAdd@idSIMD_SSE@@UAIXPAMMPBMH@Z 101ae390 f   idLib:Simd_SSE.obj
 0001:001ad750       ?MulAdd@idSIMD_SSE@@UAIXPAMPBM1H@Z 101ae750 f   idLib:Simd_SSE.obj
 0001:001ad800       ?MulSub@idSIMD_SSE@@UAIXPAMMPBMH@Z 101ae800 f   idLib:Simd_SSE.obj
 0001:001adc10       ?MulSub@idSIMD_SSE@@UAIXPAMPBM1H@Z 101aec10 f   idLib:Simd_SSE.obj
 0001:001adcd0       ?Dot@idSIMD_SSE@@UAIXPAMABVidVec3@@PBV2@H@Z 101aecd0 f   idLib:Simd_SSE.obj
 0001:001adda0       ?Dot@idSIMD_SSE@@UAIXPAMABVidVec3@@PBVidPlane@@H@Z 101aeda0 f   idLib:Simd_SSE.obj
 0001:001ade90       ?Dot@idSIMD_SSE@@UAIXPAMABVidVec3@@PBVidDrawVert@@H@Z 101aee90 f   idLib:Simd_SSE.obj
 0001:001adf80       ?Dot@idSIMD_SSE@@UAIXPAMABVidPlane@@PBVidVec3@@H@Z 101aef80 f   idLib:Simd_SSE.obj
 0001:001ae060       ?Dot@idSIMD_SSE@@UAIXPAMABVidPlane@@PBV2@H@Z 101af060 f   idLib:Simd_SSE.obj
 0001:001ae1c0       ?Dot@idSIMD_SSE@@UAIXPAMABVidPlane@@PBVidDrawVert@@H@Z 101af1c0 f   idLib:Simd_SSE.obj
 0001:001ae2c0       ?Dot@idSIMD_SSE@@UAIXPAMPBVidVec3@@1H@Z 101af2c0 f   idLib:Simd_SSE.obj
 0001:001ae3b0       ?Dot@idSIMD_SSE@@UAIXAAMPBM1H@Z 101af3b0 f   idLib:Simd_SSE.obj
 0001:001ae510       ?CmpGT@idSIMD_SSE@@UAIXPAEPBMMH@Z 101af510 f   idLib:Simd_SSE.obj
 0001:001ae6e0       ?CmpGT@idSIMD_SSE@@UAIXPAEEPBMMH@Z 101af6e0 f   idLib:Simd_SSE.obj
 0001:001ae8f0       ?CmpGE@idSIMD_SSE@@UAIXPAEPBMMH@Z 101af8f0 f   idLib:Simd_SSE.obj
 0001:001aeac0       ?CmpGE@idSIMD_SSE@@UAIXPAEEPBMMH@Z 101afac0 f   idLib:Simd_SSE.obj
 0001:001aecd0       ?CmpLT@idSIMD_SSE@@UAIXPAEPBMMH@Z 101afcd0 f   idLib:Simd_SSE.obj
 0001:001aeea0       ?CmpLT@idSIMD_SSE@@UAIXPAEEPBMMH@Z 101afea0 f   idLib:Simd_SSE.obj
 0001:001af0b0       ?CmpLE@idSIMD_SSE@@UAIXPAEPBMMH@Z 101b00b0 f   idLib:Simd_SSE.obj
 0001:001af280       ?CmpLE@idSIMD_SSE@@UAIXPAEEPBMMH@Z 101b0280 f   idLib:Simd_SSE.obj
 0001:001af490       ?MinMax@idSIMD_SSE@@UAIXAAM0PBMH@Z 101b0490 f   idLib:Simd_SSE.obj
 0001:001af730       ?MinMax@idSIMD_SSE@@UAIXAAVidVec2@@0PBV2@H@Z 101b0730 f   idLib:Simd_SSE.obj
 0001:001af7b0       ?MinMax@idSIMD_SSE@@UAIXAAVidVec3@@0PBV2@H@Z 101b07b0 f   idLib:Simd_SSE.obj
 0001:001af880       ?MinMax@idSIMD_SSE@@UAIXAAVidVec3@@0PBVidDrawVert@@H@Z 101b0880 f   idLib:Simd_SSE.obj
 0001:001af960       ?MinMax@idSIMD_SSE@@UAIXAAVidVec3@@0PBVidDrawVert@@PBHH@Z 101b0960 f   idLib:Simd_SSE.obj
 0001:001afa50       ?Clamp@idSIMD_SSE@@UAIXPAMPBMMMH@Z 101b0a50 f   idLib:Simd_SSE.obj
 0001:001afcc0       ?ClampMin@idSIMD_SSE@@UAIXPAMPBMMH@Z 101b0cc0 f   idLib:Simd_SSE.obj
 0001:001afe80       ?ClampMax@idSIMD_SSE@@UAIXPAMPBMMH@Z 101b0e80 f   idLib:Simd_SSE.obj
 0001:001b0040       ?Zero16@idSIMD_SSE@@UAIXPAMH@Z 101b1040 f   idLib:Simd_SSE.obj
 0001:001b0070       ?Negate16@idSIMD_SSE@@UAIXPAMH@Z 101b1070 f   idLib:Simd_SSE.obj
 0001:001b00b0       ?Copy16@idSIMD_SSE@@UAIXPAMPBMH@Z 101b10b0 f   idLib:Simd_SSE.obj
 0001:001b00f0       ?Add16@idSIMD_SSE@@UAIXPAMPBM1H@Z 101b10f0 f   idLib:Simd_SSE.obj
 0001:001b0130       ?Sub16@idSIMD_SSE@@UAIXPAMPBM1H@Z 101b1130 f   idLib:Simd_SSE.obj
 0001:001b0170       ?Mul16@idSIMD_SSE@@UAIXPAMPBMMH@Z 101b1170 f   idLib:Simd_SSE.obj
 0001:001b01b0       ?AddAssign16@idSIMD_SSE@@UAIXPAMPBMH@Z 101b11b0 f   idLib:Simd_SSE.obj
 0001:001b01f0       ?SubAssign16@idSIMD_SSE@@UAIXPAMPBMH@Z 101b11f0 f   idLib:Simd_SSE.obj
 0001:001b0230       ?MulAssign16@idSIMD_SSE@@UAIXPAMMH@Z 101b1230 f   idLib:Simd_SSE.obj
 0001:001b0270       ?ConvertJointMatsToJointQuats@idSIMD_SSE@@UAIXPAVidJointQuat@@PBVidJointMat@@H@Z 101b1270 f   idLib:Simd_SSE.obj
 0001:001b07f0       ?TransformJoints@idSIMD_SSE@@UAIXPAVidJointMat@@PBHHH@Z 101b17f0 f   idLib:Simd_SSE.obj
 0001:001b0900       ?UntransformJoints@idSIMD_SSE@@UAIXPAVidJointMat@@PBHHH@Z 101b1900 f   idLib:Simd_SSE.obj
 0001:001b0a10       ?TransformVerts@idSIMD_SSE@@UAIXPAVidDrawVert@@HPBVidJointMat@@PBVidVec4@@PBHH@Z 101b1a10 f   idLib:Simd_SSE.obj
 0001:001b0ad0       ?TracePointCull@idSIMD_SSE@@UAIXPAEAAEMPBVidPlane@@PBVidDrawVert@@H@Z 101b1ad0 f   idLib:Simd_SSE.obj
 0001:001b0ba0       ?DecalPointCull@idSIMD_SSE@@UAIXPAEPBVidPlane@@PBVidDrawVert@@H@Z 101b1ba0 f   idLib:Simd_SSE.obj
 0001:001b0dd0       ?OverlayPointCull@idSIMD_SSE@@UAIXPAEPAVidVec2@@PBVidPlane@@PBVidDrawVert@@H@Z 101b1dd0 f   idLib:Simd_SSE.obj
 0001:001b0f00       ?DeriveTriPlanes@idSIMD_SSE@@UAIXPAVidPlane@@PBVidDrawVert@@HPBHH@Z 101b1f00 f   idLib:Simd_SSE.obj
 0001:001b1390       ?DeriveUnsmoothedTangents@idSIMD_SSE@@UAIXPAVidDrawVert@@PBUdominantTri_s@@H@Z 101b2390 f   idLib:Simd_SSE.obj
 0001:001b1ab0       ?NormalizeTangents@idSIMD_SSE@@UAIXPAVidDrawVert@@H@Z 101b2ab0 f   idLib:Simd_SSE.obj
 0001:001b2010       ?CreateTextureSpaceLightVectors@idSIMD_SSE@@UAIXPAVidVec3@@ABV2@PBVidDrawVert@@HPBHH@Z 101b3010 f   idLib:Simd_SSE.obj
 0001:001b2330       ?CreateSpecularTextureCoords@idSIMD_SSE@@UAIXPAVidVec4@@ABVidVec3@@1PBVidDrawVert@@HPBHH@Z 101b3330 f   idLib:Simd_SSE.obj
 0001:001b27e0       ?CreateShadowCache@idSIMD_SSE@@UAIHPAVidVec4@@PAHABVidVec3@@PBVidDrawVert@@H@Z 101b37e0 f   idLib:Simd_SSE.obj
 0001:001b2950       ?CreateVertexProgramShadowCache@idSIMD_SSE@@UAIHPAVidVec4@@PBVidDrawVert@@H@Z 101b3950 f   idLib:Simd_SSE.obj
 0001:001b2be0       ?UpSamplePCMTo44kHz@idSIMD_SSE@@UAIXPAMPBFHHH@Z 101b3be0 f   idLib:Simd_SSE.obj
 0001:001b30c0       ?UpSampleOGGTo44kHz@idSIMD_SSE@@UAIXPAMPBQBMHHH@Z 101b40c0 f   idLib:Simd_SSE.obj
 0001:001b3180       ?MixSoundTwoSpeakerMono@idSIMD_SSE@@UAIXPAMPBMHQBM2@Z 101b4180 f   idLib:Simd_SSE.obj
 0001:001b3260       ?MixSoundTwoSpeakerStereo@idSIMD_SSE@@UAIXPAMPBMHQBM2@Z 101b4260 f   idLib:Simd_SSE.obj
 0001:001b3330       ?MixSoundSixSpeakerMono@idSIMD_SSE@@UAIXPAMPBMHQBM2@Z 101b4330 f   idLib:Simd_SSE.obj
 0001:001b3490       ?MixSoundSixSpeakerStereo@idSIMD_SSE@@UAIXPAMPBMHQBM2@Z 101b4490 f   idLib:Simd_SSE.obj
 0001:001b35b0       ?MixedSoundToSamples@idSIMD_SSE@@UAIXPAFPBMH@Z 101b45b0 f   idLib:Simd_SSE.obj
 0001:001b3640       ?MatX_MultiplyVecX@idSIMD_SSE@@UAIXAAVidVecX@@ABVidMatX@@ABV2@@Z 101b4640 f   idLib:Simd_SSE.obj
 0001:001b4560       ?MatX_MultiplyAddVecX@idSIMD_SSE@@UAIXAAVidVecX@@ABVidMatX@@ABV2@@Z 101b5560 f   idLib:Simd_SSE.obj
 0001:001b5600       ?MatX_MultiplySubVecX@idSIMD_SSE@@UAIXAAVidVecX@@ABVidMatX@@ABV2@@Z 101b6600 f   idLib:Simd_SSE.obj
 0001:001b66d0       ?MatX_TransposeMultiplyVecX@idSIMD_SSE@@UAIXAAVidVecX@@ABVidMatX@@ABV2@@Z 101b76d0 f   idLib:Simd_SSE.obj
 0001:001b7400       ?MatX_TransposeMultiplyAddVecX@idSIMD_SSE@@UAIXAAVidVecX@@ABVidMatX@@ABV2@@Z 101b8400 f   idLib:Simd_SSE.obj
 0001:001b8260       ?MatX_TransposeMultiplySubVecX@idSIMD_SSE@@UAIXAAVidVecX@@ABVidMatX@@ABV2@@Z 101b9260 f   idLib:Simd_SSE.obj
 0001:001b9110       ?MatX_MultiplyMatX@idSIMD_SSE@@UAIXAAVidMatX@@ABV2@1@Z 101ba110 f   idLib:Simd_SSE.obj
 0001:001bc010       ?MatX_TransposeMultiplyMatX@idSIMD_SSE@@UAIXAAVidMatX@@ABV2@1@Z 101bd010 f   idLib:Simd_SSE.obj
 0001:001bdf20       ?MatX_LowerTriangularSolve@idSIMD_SSE@@UAIXABVidMatX@@PAMPBMHH@Z 101bef20 f   idLib:Simd_SSE.obj
 0001:001be550       ?MatX_LowerTriangularSolveTranspose@idSIMD_SSE@@UAIXABVidMatX@@PAMPBMH@Z 101bf550 f   idLib:Simd_SSE.obj
 0001:001becf0       ?MatX_LDLTFactor@idSIMD_SSE@@UAI_NAAVidMatX@@AAVidVecX@@H@Z 101bfcf0 f   idLib:Simd_SSE.obj
 0001:001bf4c0       ?ConvertJointQuatsToJointMats@idSIMD_SSE@@UAIXPAVidJointMat@@PBVidJointQuat@@H@Z 101c04c0 f   idLib:Simd_SSE.obj
 0001:001bf600       ?DeriveTangents@idSIMD_SSE@@UAIXPAVidPlane@@PAVidDrawVert@@HPBHH@Z 101c0600 f   idLib:Simd_SSE.obj
 0001:001c0240       ?BlendJoints@idSIMD_SSE@@UAIXPAVidJointQuat@@PBV2@MPBHH@Z 101c1240 f   idLib:Simd_SSE.obj
 0001:001c0fe0       ?GetName@idSIMD_3DNow@@UBIPBDXZ 101c1fe0 f   idLib:Simd_3DNow.obj
 0001:001c0ff0       ?Memcpy@idSIMD_3DNow@@UAIXPAXPBXH@Z 101c1ff0 f   idLib:Simd_3DNow.obj
 0001:001c11e0       ?GetName@idSIMD_SSE2@@UBIPBDXZ 101c21e0 f   idLib:Simd_SSE2.obj
 0001:001c11f0       ?MixedSoundToSamples@idSIMD_SSE2@@UAIXPAFPBMH@Z 101c21f0 f   idLib:Simd_SSE2.obj
